
C:\Users\yahya\AppData\Local\Temp\arduino\sketches\6B1C742F48D11EA039ED34F0FD8BA272/SX126x_PingPong_SOAR_Settings.ino.elf:     file format elf32-littlearm


Disassembly of section .text.code:

60001400 <memory_copy>:
	if (dest == src) return;
	do {
		*dest++ = *src++;
	} while (dest < dest_end);
#else
	asm volatile(
60001400:	4281      	cmp	r1, r0
60001402:	d005      	beq.n	60001410 <memory_copy+0x10>
60001404:	f851 3b04 	ldr.w	r3, [r1], #4
60001408:	f840 3b04 	str.w	r3, [r0], #4
6000140c:	4282      	cmp	r2, r0
6000140e:	d8f9      	bhi.n	60001404 <memory_copy+0x4>
	"	cmp	%[end], %[dest]		\n"
	"	bhi.n	1b			\n"
	"2:					\n"
	: [dest] "+r" (dest), [src] "+r" (src) : [end] "r" (dest_end) : "r3", "memory");
#endif
}
60001410:	4770      	bx	lr
60001412:	bf00      	nop

60001414 <memory_clear.constprop.0>:
#if 0
	while (dest < dest_end) {
		*dest++ = 0;
	}
#else
	asm volatile(
60001414:	4a04      	ldr	r2, [pc, #16]	; (60001428 <memory_clear.constprop.0+0x14>)
60001416:	4905      	ldr	r1, [pc, #20]	; (6000142c <memory_clear.constprop.0+0x18>)
60001418:	f04f 0300 	mov.w	r3, #0
6000141c:	f842 3b04 	str.w	r3, [r2], #4
60001420:	4291      	cmp	r1, r2
60001422:	d8fb      	bhi.n	6000141c <memory_clear.constprop.0+0x8>
	"1:	str.w	r3, [%[dest]], #4	\n"
	"	cmp	%[end], %[dest]		\n"
	"	bhi.n	1b			\n"
	: [dest] "+r" (dest) : [end] "r" (dest_end) : "r3", "memory");
#endif
}
60001424:	4770      	bx	lr
60001426:	bf00      	nop
60001428:	20001ac0 	.word	0x20001ac0
6000142c:	200023c0 	.word	0x200023c0

60001430 <ResetHandler2>:
{
60001430:	e92d 4888 	stmdb	sp!, {r3, r7, fp, lr}
	__asm__ volatile("dsb":::"memory");
60001434:	f3bf 8f4f 	dsb	sy
	asm volatile("nop");
60001438:	bf00      	nop
	asm volatile("nop");
6000143a:	bf00      	nop
	asm volatile("nop");
6000143c:	bf00      	nop
	asm volatile("nop");
6000143e:	bf00      	nop
	startup_early_hook(); // must be in FLASHMEM, as ITCM is not yet initialized!
60001440:	f000 f916 	bl	60001670 <startup_default_early_hook>
	PMU_MISC0_SET = 1<<3; //Use bandgap-based bias currents for best performance (Page 1175)
60001444:	4b67      	ldr	r3, [pc, #412]	; (600015e4 <ResetHandler2+0x1b4>)
60001446:	2208      	movs	r2, #8
60001448:	f8c3 2154 	str.w	r2, [r3, #340]	; 0x154
	asm volatile("nop");
6000144c:	bf00      	nop
	asm volatile("nop");
6000144e:	bf00      	nop
	asm volatile("nop");
60001450:	bf00      	nop
	asm volatile("nop");
60001452:	bf00      	nop
	asm volatile("nop");
60001454:	bf00      	nop
	asm volatile("nop");
60001456:	bf00      	nop
	asm volatile("nop");
60001458:	bf00      	nop
	asm volatile("nop");
6000145a:	bf00      	nop
	asm volatile("nop");
6000145c:	bf00      	nop
	asm volatile("nop");
6000145e:	bf00      	nop
	asm volatile("nop");
60001460:	bf00      	nop
	asm volatile("nop");
60001462:	bf00      	nop
	asm volatile("nop");
60001464:	bf00      	nop
	asm volatile("nop");
60001466:	bf00      	nop
	asm volatile("nop");
60001468:	bf00      	nop
	asm volatile("nop");
6000146a:	bf00      	nop
	memory_copy(&_stext, &_stextload, &_etext);
6000146c:	4a5e      	ldr	r2, [pc, #376]	; (600015e8 <ResetHandler2+0x1b8>)
6000146e:	495f      	ldr	r1, [pc, #380]	; (600015ec <ResetHandler2+0x1bc>)
60001470:	485f      	ldr	r0, [pc, #380]	; (600015f0 <ResetHandler2+0x1c0>)
60001472:	f7ff ffc5 	bl	60001400 <memory_copy>
	memory_copy(&_sdata, &_sdataload, &_edata);
60001476:	4a5f      	ldr	r2, [pc, #380]	; (600015f4 <ResetHandler2+0x1c4>)
60001478:	495f      	ldr	r1, [pc, #380]	; (600015f8 <ResetHandler2+0x1c8>)
6000147a:	4860      	ldr	r0, [pc, #384]	; (600015fc <ResetHandler2+0x1cc>)
6000147c:	f7ff ffc0 	bl	60001400 <memory_copy>
	memory_clear(&_sbss, &_ebss);
60001480:	4c5f      	ldr	r4, [pc, #380]	; (60001600 <ResetHandler2+0x1d0>)
60001482:	f7ff ffc7 	bl	60001414 <memory_clear.constprop.0>
	SCB_CPACR = 0x00F00000;
60001486:	f44f 0070 	mov.w	r0, #15728640	; 0xf00000
6000148a:	f04f 21e0 	mov.w	r1, #3758153728	; 0xe000e000
	for (i=0; i < NVIC_NUM_INTERRUPTS + 16; i++) _VectorsRam[i] = &unused_interrupt_vector;
6000148e:	2300      	movs	r3, #0
60001490:	4a5c      	ldr	r2, [pc, #368]	; (60001604 <ResetHandler2+0x1d4>)
	SCB_CPACR = 0x00F00000;
60001492:	f8c1 0d88 	str.w	r0, [r1, #3464]	; 0xd88
	for (i=0; i < NVIC_NUM_INTERRUPTS + 16; i++) _VectorsRam[i] = &unused_interrupt_vector;
60001496:	f844 2023 	str.w	r2, [r4, r3, lsl #2]
6000149a:	3301      	adds	r3, #1
6000149c:	2bb0      	cmp	r3, #176	; 0xb0
6000149e:	d1fa      	bne.n	60001496 <ResetHandler2+0x66>
600014a0:	4b59      	ldr	r3, [pc, #356]	; (60001608 <ResetHandler2+0x1d8>)
	for (i=0; i < NVIC_NUM_INTERRUPTS; i++) NVIC_SET_PRIORITY(i, 128);
600014a2:	2180      	movs	r1, #128	; 0x80
600014a4:	4a59      	ldr	r2, [pc, #356]	; (6000160c <ResetHandler2+0x1dc>)
600014a6:	f803 1b01 	strb.w	r1, [r3], #1
600014aa:	4293      	cmp	r3, r2
600014ac:	d1fb      	bne.n	600014a6 <ResetHandler2+0x76>
	SCB_VTOR = (uint32_t)_VectorsRam;
600014ae:	f04f 25e0 	mov.w	r5, #3758153728	; 0xe000e000
	CCM_ANALOG_PFD_528_SET = (1 << 31) | (1 << 23) | (1 << 15) | (1 << 7);
600014b2:	4e4c      	ldr	r6, [pc, #304]	; (600015e4 <ResetHandler2+0x1b4>)
600014b4:	f04f 3980 	mov.w	r9, #2155905152	; 0x80808080
	CCM_ANALOG_PFD_528 = 0x2018101B; // PFD0:352, PFD1:594, PFD2:396, PFD3:297 MHz 	
600014b8:	f8df b180 	ldr.w	fp, [pc, #384]	; 6000163c <ResetHandler2+0x20c>
	CCM_ANALOG_PFD_480 = 0x13110D0C; // PFD0:720, PFD1:664, PFD2:508, PFD3:454 MHz
600014bc:	f8df a180 	ldr.w	sl, [pc, #384]	; 60001640 <ResetHandler2+0x210>
	IOMUXC_GPR_GPR26 = 0xFFFFFFFF;
600014c0:	f04f 31ff 	mov.w	r1, #4294967295
	SCB_VTOR = (uint32_t)_VectorsRam;
600014c4:	f8c5 4d08 	str.w	r4, [r5, #3336]	; 0xd08
	SYST_CVR = 0;
600014c8:	2700      	movs	r7, #0
	CCM_ANALOG_PFD_528_SET = (1 << 31) | (1 << 23) | (1 << 15) | (1 << 7);
600014ca:	f8c6 9104 	str.w	r9, [r6, #260]	; 0x104
	CCM_ANALOG_PFD_528 = 0x2018101B; // PFD0:352, PFD1:594, PFD2:396, PFD3:297 MHz 	
600014ce:	f8c6 b100 	str.w	fp, [r6, #256]	; 0x100
	CCM_ANALOG_PFD_480_SET = (1 << 31) | (1 << 23) | (1 << 15) | (1 << 7);	
600014d2:	f8c6 90f4 	str.w	r9, [r6, #244]	; 0xf4
	CCM_ANALOG_PFD_480 = 0x13110D0C; // PFD0:720, PFD1:664, PFD2:508, PFD3:454 MHz
600014d6:	f8c6 a0f0 	str.w	sl, [r6, #240]	; 0xf0
	SCB_SHCSR |= SCB_SHCSR_MEMFAULTENA | SCB_SHCSR_BUSFAULTENA | SCB_SHCSR_USGFAULTENA;
600014da:	f8d5 3d24 	ldr.w	r3, [r5, #3364]	; 0xd24
	CCM_CSCMR1 = (CCM_CSCMR1 & ~CCM_CSCMR1_PERCLK_PODF(0x3F)) | CCM_CSCMR1_PERCLK_CLK_SEL;
600014de:	f8df 8164 	ldr.w	r8, [pc, #356]	; 60001644 <ResetHandler2+0x214>
	SCB_SHCSR |= SCB_SHCSR_MEMFAULTENA | SCB_SHCSR_BUSFAULTENA | SCB_SHCSR_USGFAULTENA;
600014e2:	f443 23e0 	orr.w	r3, r3, #458752	; 0x70000
	IOMUXC_GPR_GPR26 = 0xFFFFFFFF;
600014e6:	4a4a      	ldr	r2, [pc, #296]	; (60001610 <ResetHandler2+0x1e0>)
	SCB_SHCSR |= SCB_SHCSR_MEMFAULTENA | SCB_SHCSR_BUSFAULTENA | SCB_SHCSR_USGFAULTENA;
600014e8:	f8c5 3d24 	str.w	r3, [r5, #3364]	; 0xd24
	CCM_CSCMR1 = (CCM_CSCMR1 & ~CCM_CSCMR1_PERCLK_PODF(0x3F)) | CCM_CSCMR1_PERCLK_CLK_SEL;
600014ec:	f8d8 301c 	ldr.w	r3, [r8, #28]
600014f0:	f023 037f 	bic.w	r3, r3, #127	; 0x7f
600014f4:	f043 0340 	orr.w	r3, r3, #64	; 0x40
600014f8:	f8c8 301c 	str.w	r3, [r8, #28]
	CCM_CSCDR1 = (CCM_CSCDR1 & ~CCM_CSCDR1_UART_CLK_PODF(0x3F)) | CCM_CSCDR1_UART_CLK_SEL;
600014fc:	f8d8 3024 	ldr.w	r3, [r8, #36]	; 0x24
60001500:	f023 037f 	bic.w	r3, r3, #127	; 0x7f
60001504:	f043 0340 	orr.w	r3, r3, #64	; 0x40
60001508:	f8c8 3024 	str.w	r3, [r8, #36]	; 0x24
	IOMUXC_GPR_GPR26 = 0xFFFFFFFF;
6000150c:	6691      	str	r1, [r2, #104]	; 0x68
	IOMUXC_GPR_GPR27 = 0xFFFFFFFF;
6000150e:	66d1      	str	r1, [r2, #108]	; 0x6c
	IOMUXC_GPR_GPR28 = 0xFFFFFFFF;
60001510:	6711      	str	r1, [r2, #112]	; 0x70
	IOMUXC_GPR_GPR29 = 0xFFFFFFFF;
60001512:	6751      	str	r1, [r2, #116]	; 0x74
	configure_cache();
60001514:	f000 f8b4 	bl	60001680 <configure_cache>
	_VectorsRam[14] = pendablesrvreq_isr;
60001518:	4b3e      	ldr	r3, [pc, #248]	; (60001614 <ResetHandler2+0x1e4>)
	systick_cycle_count = ARM_DWT_CYCCNT; // compiled 0, corrected w/1st systick
6000151a:	493f      	ldr	r1, [pc, #252]	; (60001618 <ResetHandler2+0x1e8>)
	_VectorsRam[14] = pendablesrvreq_isr;
6000151c:	63a3      	str	r3, [r4, #56]	; 0x38
	_VectorsRam[15] = systick_isr;
6000151e:	4b3f      	ldr	r3, [pc, #252]	; (6000161c <ResetHandler2+0x1ec>)
60001520:	63e3      	str	r3, [r4, #60]	; 0x3c
	SYST_RVR = (SYSTICK_EXT_FREQ / 1000) - 1;
60001522:	2363      	movs	r3, #99	; 0x63
60001524:	616b      	str	r3, [r5, #20]
	SYST_CSR = SYST_CSR_TICKINT | SYST_CSR_ENABLE;
60001526:	2303      	movs	r3, #3
	SYST_CVR = 0;
60001528:	61af      	str	r7, [r5, #24]
	SYST_CSR = SYST_CSR_TICKINT | SYST_CSR_ENABLE;
6000152a:	612b      	str	r3, [r5, #16]
	SCB_SHPR3 = 0x20200000;  // Systick, pendablesrvreq_isr = priority 32;
6000152c:	4b3c      	ldr	r3, [pc, #240]	; (60001620 <ResetHandler2+0x1f0>)
6000152e:	f8c5 3d20 	str.w	r3, [r5, #3360]	; 0xd20
	ARM_DEMCR |= ARM_DEMCR_TRCENA;
60001532:	f8d5 3dfc 	ldr.w	r3, [r5, #3580]	; 0xdfc
60001536:	f043 7380 	orr.w	r3, r3, #16777216	; 0x1000000
6000153a:	f8c5 3dfc 	str.w	r3, [r5, #3580]	; 0xdfc
	ARM_DWT_CTRL |= ARM_DWT_CTRL_CYCCNTENA; // turn on cycle counter
6000153e:	4b39      	ldr	r3, [pc, #228]	; (60001624 <ResetHandler2+0x1f4>)
60001540:	681a      	ldr	r2, [r3, #0]
60001542:	f042 0201 	orr.w	r2, r2, #1
60001546:	601a      	str	r2, [r3, #0]
	systick_cycle_count = ARM_DWT_CYCCNT; // compiled 0, corrected w/1st systick
60001548:	685b      	ldr	r3, [r3, #4]
6000154a:	600b      	str	r3, [r1, #0]
	usb_pll_start();	
6000154c:	f000 f920 	bl	60001790 <usb_pll_start>
	CCM_ANALOG_PFD_528_SET = (1 << 31) | (1 << 23) | (1 << 15) | (1 << 7);
60001550:	f8c6 9104 	str.w	r9, [r6, #260]	; 0x104
	set_arm_clock(F_CPU);
60001554:	4834      	ldr	r0, [pc, #208]	; (60001628 <ResetHandler2+0x1f8>)
	CCM_ANALOG_PFD_528 = 0x2018101B; // PFD0:352, PFD1:594, PFD2:396, PFD3:297 MHz 	
60001556:	f8c6 b100 	str.w	fp, [r6, #256]	; 0x100
	CCM_ANALOG_PFD_480_SET = (1 << 31) | (1 << 23) | (1 << 15) | (1 << 7);	
6000155a:	f8c6 90f4 	str.w	r9, [r6, #244]	; 0xf4
	CCM_ANALOG_PFD_480 = 0x13110D0C; // PFD0:720, PFD1:664, PFD2:508, PFD3:454 MHz
6000155e:	f8c6 a0f0 	str.w	sl, [r6, #240]	; 0xf0
	set_arm_clock(F_CPU);
60001562:	f000 fab9 	bl	60001ad8 <__set_arm_clock_veneer>
	CCM_CCGR1 |= CCM_CCGR1_PIT(CCM_CCGR_ON);
60001566:	f8d8 106c 	ldr.w	r1, [r8, #108]	; 0x6c
	PIT_MCR = 0;
6000156a:	4b30      	ldr	r3, [pc, #192]	; (6000162c <ResetHandler2+0x1fc>)
	if (!(SNVS_LPCR & SNVS_LPCR_SRTC_ENV)) {
6000156c:	4a30      	ldr	r2, [pc, #192]	; (60001630 <ResetHandler2+0x200>)
	CCM_CCGR1 |= CCM_CCGR1_PIT(CCM_CCGR_ON);
6000156e:	f441 5140 	orr.w	r1, r1, #12288	; 0x3000
60001572:	f8c8 106c 	str.w	r1, [r8, #108]	; 0x6c
	PIT_MCR = 0;
60001576:	601f      	str	r7, [r3, #0]
	PIT_TCTRL0 = 0;
60001578:	f8c3 7108 	str.w	r7, [r3, #264]	; 0x108
	PIT_TCTRL1 = 0;
6000157c:	f8c3 7118 	str.w	r7, [r3, #280]	; 0x118
	PIT_TCTRL2 = 0;
60001580:	f8c3 7128 	str.w	r7, [r3, #296]	; 0x128
	PIT_TCTRL3 = 0;
60001584:	f8c3 7138 	str.w	r7, [r3, #312]	; 0x138
	if (!(SNVS_LPCR & SNVS_LPCR_SRTC_ENV)) {
60001588:	6b93      	ldr	r3, [r2, #56]	; 0x38
6000158a:	07db      	lsls	r3, r3, #31
6000158c:	d408      	bmi.n	600015a0 <ResetHandler2+0x170>
		SNVS_LPSRTCMR = 1546300800u >> 17;
6000158e:	f642 6315 	movw	r3, #11797	; 0x2e15
		SNVS_LPSRTCLR = 1546300800u << 15;
60001592:	4928      	ldr	r1, [pc, #160]	; (60001634 <ResetHandler2+0x204>)
60001594:	6551      	str	r1, [r2, #84]	; 0x54
		SNVS_LPSRTCMR = 1546300800u >> 17;
60001596:	6513      	str	r3, [r2, #80]	; 0x50
		SNVS_LPCR |= SNVS_LPCR_SRTC_ENV;
60001598:	6b93      	ldr	r3, [r2, #56]	; 0x38
6000159a:	f043 0301 	orr.w	r3, r3, #1
6000159e:	6393      	str	r3, [r2, #56]	; 0x38
	SNVS_HPCR |= SNVS_HPCR_RTC_EN | SNVS_HPCR_HP_TS;
600015a0:	4a23      	ldr	r2, [pc, #140]	; (60001630 <ResetHandler2+0x200>)
600015a2:	4c25      	ldr	r4, [pc, #148]	; (60001638 <ResetHandler2+0x208>)
600015a4:	6893      	ldr	r3, [r2, #8]
600015a6:	f043 1301 	orr.w	r3, r3, #65537	; 0x10001
600015aa:	6093      	str	r3, [r2, #8]
	analog_init();
600015ac:	f000 fa54 	bl	60001a58 <analog_init>
	pwm_init();
600015b0:	f000 fa82 	bl	60001ab8 <__pwm_init_veneer>
	tempmon_init();
600015b4:	f000 f91a 	bl	600017ec <tempmon_init>
	startup_middle_hook();
600015b8:	f000 f85c 	bl	60001674 <startup_default_middle_hook>
// Returns the number of milliseconds since your program started running.
// This 32 bit number will roll back to zero after about 49.7 days.  For a
// simpler way to build delays or timeouts, consider using elapsedMillis.
static inline uint32_t millis(void)
{
	return systick_millis_count;
600015bc:	6823      	ldr	r3, [r4, #0]
	while (millis() < TEENSY_INIT_USB_DELAY_BEFORE) ; // wait
600015be:	2b13      	cmp	r3, #19
600015c0:	d9fc      	bls.n	600015bc <ResetHandler2+0x18c>
	usb_init();
600015c2:	f000 f9ab 	bl	6000191c <usb_init>
600015c6:	6823      	ldr	r3, [r4, #0]
	while (millis() < TEENSY_INIT_USB_DELAY_AFTER + TEENSY_INIT_USB_DELAY_BEFORE) ; // wait
600015c8:	f5b3 7f96 	cmp.w	r3, #300	; 0x12c
600015cc:	d3fb      	bcc.n	600015c6 <ResetHandler2+0x196>
	startup_debug_reset();
600015ce:	f000 f855 	bl	6000167c <startup_debug_reset>
	startup_late_hook();
600015d2:	f000 f851 	bl	60001678 <startup_default_late_hook>
	__libc_init_array();
600015d6:	f000 fa73 	bl	60001ac0 <____libc_init_array_veneer>
	main();
600015da:	f000 fa75 	bl	60001ac8 <__main_veneer>
	while (1) asm("WFI");
600015de:	bf30      	wfi
600015e0:	e7fd      	b.n	600015de <ResetHandler2+0x1ae>
600015e2:	bf00      	nop
600015e4:	400d8000 	.word	0x400d8000
600015e8:	00008d28 	.word	0x00008d28
600015ec:	60001c14 	.word	0x60001c14
600015f0:	00000000 	.word	0x00000000
600015f4:	20001ac0 	.word	0x20001ac0
600015f8:	6000a940 	.word	0x6000a940
600015fc:	20000000 	.word	0x20000000
60001600:	20001800 	.word	0x20001800
60001604:	000068c9 	.word	0x000068c9
60001608:	e000e400 	.word	0xe000e400
6000160c:	e000e4a0 	.word	0xe000e4a0
60001610:	400ac000 	.word	0x400ac000
60001614:	00005a09 	.word	0x00005a09
60001618:	20002348 	.word	0x20002348
6000161c:	00005a0d 	.word	0x00005a0d
60001620:	20200000 	.word	0x20200000
60001624:	e0001000 	.word	0xe0001000
60001628:	23c34600 	.word	0x23c34600
6000162c:	40084000 	.word	0x40084000
60001630:	400d4000 	.word	0x400d4000
60001634:	56c00000 	.word	0x56c00000
60001638:	2000234c 	.word	0x2000234c
6000163c:	2018101b 	.word	0x2018101b
60001640:	13110d0c 	.word	0x13110d0c
60001644:	400fc000 	.word	0x400fc000

60001648 <ResetHandler>:
	IOMUXC_GPR_GPR17 = (uint32_t)&_flexram_bank_config;
60001648:	4b05      	ldr	r3, [pc, #20]	; (60001660 <ResetHandler+0x18>)
	IOMUXC_GPR_GPR14 = 0x00AA0000;
6000164a:	f44f 012a 	mov.w	r1, #11141120	; 0xaa0000
	IOMUXC_GPR_GPR17 = (uint32_t)&_flexram_bank_config;
6000164e:	4a05      	ldr	r2, [pc, #20]	; (60001664 <ResetHandler+0x1c>)
	IOMUXC_GPR_GPR16 = 0x00200007;
60001650:	4805      	ldr	r0, [pc, #20]	; (60001668 <ResetHandler+0x20>)
	IOMUXC_GPR_GPR17 = (uint32_t)&_flexram_bank_config;
60001652:	645a      	str	r2, [r3, #68]	; 0x44
	IOMUXC_GPR_GPR16 = 0x00200007;
60001654:	6418      	str	r0, [r3, #64]	; 0x40
	__asm__ volatile("mov sp, %0" : : "r" ((uint32_t)&_estack) : "memory");
60001656:	4a05      	ldr	r2, [pc, #20]	; (6000166c <ResetHandler+0x24>)
	IOMUXC_GPR_GPR14 = 0x00AA0000;
60001658:	6399      	str	r1, [r3, #56]	; 0x38
	__asm__ volatile("mov sp, %0" : : "r" ((uint32_t)&_estack) : "memory");
6000165a:	4695      	mov	sp, r2
	ResetHandler2();
6000165c:	f7ff fee8 	bl	60001430 <ResetHandler2>
60001660:	400ac000 	.word	0x400ac000
60001664:	aaaaaaaf 	.word	0xaaaaaaaf
60001668:	00200007 	.word	0x00200007
6000166c:	20070000 	.word	0x20070000

60001670 <startup_default_early_hook>:
FLASHMEM void startup_default_early_hook(void) {}
60001670:	4770      	bx	lr
60001672:	bf00      	nop

60001674 <startup_default_middle_hook>:
60001674:	4770      	bx	lr
60001676:	bf00      	nop

60001678 <startup_default_late_hook>:
60001678:	4770      	bx	lr
6000167a:	bf00      	nop

6000167c <startup_debug_reset>:
FLASHMEM void startup_debug_reset(void) { __asm__ volatile("nop"); }
6000167c:	bf00      	nop
6000167e:	4770      	bx	lr

60001680 <configure_cache>:
{
60001680:	b410      	push	{r4}
	SCB_MPU_CTRL = 0; // turn off MPU
60001682:	f04f 23e0 	mov.w	r3, #3758153728	; 0xe000e000
60001686:	2100      	movs	r1, #0
	SCB_MPU_RBAR = 0x00000000 | REGION(i++); //https://developer.arm.com/docs/146793866/10/why-does-the-cortex-m7-initiate-axim-read-accesses-to-memory-addresses-that-do-not-fall-under-a-defined-mpu-region
60001688:	2410      	movs	r4, #16
	SCB_MPU_RASR = SCB_MPU_RASR_TEX(0) | NOACCESS | NOEXEC | SIZE_4G;
6000168a:	4831      	ldr	r0, [pc, #196]	; (60001750 <configure_cache+0xd0>)
	SCB_MPU_CTRL = 0; // turn off MPU
6000168c:	f8c3 1d94 	str.w	r1, [r3, #3476]	; 0xd94
	SCB_MPU_RBAR = 0x00000000 | REGION(i++); //https://developer.arm.com/docs/146793866/10/why-does-the-cortex-m7-initiate-axim-read-accesses-to-memory-addresses-that-do-not-fall-under-a-defined-mpu-region
60001690:	f8c3 4d9c 	str.w	r4, [r3, #3484]	; 0xd9c
	SCB_MPU_RBAR = 0x00000000 | REGION(i++); // ITCM
60001694:	2411      	movs	r4, #17
	SCB_MPU_RASR = SCB_MPU_RASR_TEX(0) | NOACCESS | NOEXEC | SIZE_4G;
60001696:	f8c3 0da0 	str.w	r0, [r3, #3488]	; 0xda0
	SCB_MPU_RASR = MEM_NOCACHE | READONLY | SIZE_512K;
6000169a:	482e      	ldr	r0, [pc, #184]	; (60001754 <configure_cache+0xd4>)
	SCB_MPU_RBAR = 0x00000000 | REGION(i++); // ITCM
6000169c:	f8c3 4d9c 	str.w	r4, [r3, #3484]	; 0xd9c
	SCB_MPU_RBAR = 0x00000000 | REGION(i++); // trap NULL pointer deref
600016a0:	2412      	movs	r4, #18
	SCB_MPU_RASR = MEM_NOCACHE | READONLY | SIZE_512K;
600016a2:	f8c3 0da0 	str.w	r0, [r3, #3488]	; 0xda0
	SCB_MPU_RASR =  DEV_NOCACHE | NOACCESS | SIZE_32B;
600016a6:	482c      	ldr	r0, [pc, #176]	; (60001758 <configure_cache+0xd8>)
	SCB_MPU_RBAR = 0x00000000 | REGION(i++); // trap NULL pointer deref
600016a8:	f8c3 4d9c 	str.w	r4, [r3, #3484]	; 0xd9c
	SCB_MPU_RBAR = ((uint32_t)&_ebss) | REGION(i++); // trap stack overflow
600016ac:	4a2b      	ldr	r2, [pc, #172]	; (6000175c <configure_cache+0xdc>)
	SCB_MPU_RASR =  DEV_NOCACHE | NOACCESS | SIZE_32B;
600016ae:	f8c3 0da0 	str.w	r0, [r3, #3488]	; 0xda0
	SCB_MPU_RBAR = 0x00200000 | REGION(i++); // Boot ROM
600016b2:	4c2b      	ldr	r4, [pc, #172]	; (60001760 <configure_cache+0xe0>)
	SCB_MPU_RBAR = ((uint32_t)&_ebss) | REGION(i++); // trap stack overflow
600016b4:	f042 0215 	orr.w	r2, r2, #21
	SCB_MPU_RASR = MEM_CACHE_WT | READONLY | SIZE_128K;
600016b8:	482a      	ldr	r0, [pc, #168]	; (60001764 <configure_cache+0xe4>)
	SCB_MPU_RBAR = 0x00200000 | REGION(i++); // Boot ROM
600016ba:	f8c3 4d9c 	str.w	r4, [r3, #3484]	; 0xd9c
	SCB_MPU_RASR = MEM_CACHE_WT | READONLY | SIZE_128K;
600016be:	f8c3 0da0 	str.w	r0, [r3, #3488]	; 0xda0
	SCB_MPU_RBAR = 0x20000000 | REGION(i++); // DTCM
600016c2:	4c29      	ldr	r4, [pc, #164]	; (60001768 <configure_cache+0xe8>)
	SCB_MPU_RASR = MEM_NOCACHE | READWRITE | NOEXEC | SIZE_512K;
600016c4:	4829      	ldr	r0, [pc, #164]	; (6000176c <configure_cache+0xec>)
	SCB_MPU_RBAR = 0x20000000 | REGION(i++); // DTCM
600016c6:	f8c3 4d9c 	str.w	r4, [r3, #3484]	; 0xd9c
	SCB_MPU_RASR = MEM_NOCACHE | READWRITE | NOEXEC | SIZE_512K;
600016ca:	f8c3 0da0 	str.w	r0, [r3, #3488]	; 0xda0
	SCB_MPU_RASR = SCB_MPU_RASR_TEX(0) | NOACCESS | NOEXEC | SIZE_32B;
600016ce:	4c28      	ldr	r4, [pc, #160]	; (60001770 <configure_cache+0xf0>)
	SCB_MPU_RBAR = ((uint32_t)&_ebss) | REGION(i++); // trap stack overflow
600016d0:	f8c3 2d9c 	str.w	r2, [r3, #3484]	; 0xd9c
	SCB_MPU_RBAR = 0x20200000 | REGION(i++); // RAM (AXI bus)
600016d4:	4827      	ldr	r0, [pc, #156]	; (60001774 <configure_cache+0xf4>)
	SCB_MPU_RASR = MEM_CACHE_WBWA | READWRITE | NOEXEC | SIZE_1M;
600016d6:	4a28      	ldr	r2, [pc, #160]	; (60001778 <configure_cache+0xf8>)
	SCB_MPU_RASR = SCB_MPU_RASR_TEX(0) | NOACCESS | NOEXEC | SIZE_32B;
600016d8:	f8c3 4da0 	str.w	r4, [r3, #3488]	; 0xda0
	SCB_MPU_RBAR = 0x20200000 | REGION(i++); // RAM (AXI bus)
600016dc:	f8c3 0d9c 	str.w	r0, [r3, #3484]	; 0xd9c
	SCB_MPU_RASR = MEM_CACHE_WBWA | READWRITE | NOEXEC | SIZE_1M;
600016e0:	f8c3 2da0 	str.w	r2, [r3, #3488]	; 0xda0
	SCB_MPU_RASR = DEV_NOCACHE | READWRITE | NOEXEC | SIZE_64M;
600016e4:	f502 22a0 	add.w	r2, r2, #327680	; 0x50000
	SCB_MPU_RBAR = 0x40000000 | REGION(i++); // Peripherals
600016e8:	4c24      	ldr	r4, [pc, #144]	; (6000177c <configure_cache+0xfc>)
	SCB_MPU_RASR = DEV_NOCACHE | READWRITE | NOEXEC | SIZE_64M;
600016ea:	320c      	adds	r2, #12
	SCB_MPU_RBAR = 0x60000000 | REGION(i++); // QSPI Flash
600016ec:	4824      	ldr	r0, [pc, #144]	; (60001780 <configure_cache+0x100>)
	SCB_MPU_RBAR = 0x40000000 | REGION(i++); // Peripherals
600016ee:	f8c3 4d9c 	str.w	r4, [r3, #3484]	; 0xd9c
	SCB_MPU_RASR = DEV_NOCACHE | READWRITE | NOEXEC | SIZE_64M;
600016f2:	f8c3 2da0 	str.w	r2, [r3, #3488]	; 0xda0
	SCB_MPU_RASR = MEM_CACHE_WBWA | READONLY | SIZE_16M;
600016f6:	4a23      	ldr	r2, [pc, #140]	; (60001784 <configure_cache+0x104>)
	SCB_MPU_RBAR = 0x60000000 | REGION(i++); // QSPI Flash
600016f8:	f8c3 0d9c 	str.w	r0, [r3, #3484]	; 0xd9c
	SCB_MPU_RBAR = 0x70000000 | REGION(i++); // FlexSPI2
600016fc:	4c22      	ldr	r4, [pc, #136]	; (60001788 <configure_cache+0x108>)
	SCB_MPU_RASR = MEM_CACHE_WBWA | READONLY | SIZE_16M;
600016fe:	f8c3 2da0 	str.w	r2, [r3, #3488]	; 0xda0
	SCB_MPU_RASR = MEM_CACHE_WBWA | READWRITE | NOEXEC | SIZE_16M;
60001702:	f102 6240 	add.w	r2, r2, #201326592	; 0xc000000
	SCB_MPU_RBAR = 0x70000000 | REGION(i++); // FlexSPI2
60001706:	f8c3 4d9c 	str.w	r4, [r3, #3484]	; 0xd9c
	SCB_MPU_RBAR = 0x80000000 | REGION(i++); // SEMC: SDRAM, NAND, SRAM, etc
6000170a:	4820      	ldr	r0, [pc, #128]	; (6000178c <configure_cache+0x10c>)
	SCB_MPU_RASR = MEM_CACHE_WBWA | READWRITE | NOEXEC | SIZE_16M;
6000170c:	f8c3 2da0 	str.w	r2, [r3, #3488]	; 0xda0
	SCB_MPU_RASR = MEM_CACHE_WBWA | READWRITE | NOEXEC | SIZE_1G;
60001710:	320c      	adds	r2, #12
	SCB_MPU_RBAR = 0x80000000 | REGION(i++); // SEMC: SDRAM, NAND, SRAM, etc
60001712:	f8c3 0d9c 	str.w	r0, [r3, #3484]	; 0xd9c
	SCB_MPU_RASR = MEM_CACHE_WBWA | READWRITE | NOEXEC | SIZE_1G;
60001716:	f8c3 2da0 	str.w	r2, [r3, #3488]	; 0xda0
	asm("nop"); // allow a few cycles for bus writes before enable MPU
6000171a:	bf00      	nop
	asm("nop");
6000171c:	bf00      	nop
	asm("nop");
6000171e:	bf00      	nop
	asm("nop");
60001720:	bf00      	nop
	asm("nop");
60001722:	bf00      	nop
	SCB_MPU_CTRL = SCB_MPU_CTRL_ENABLE;
60001724:	2201      	movs	r2, #1
60001726:	f8c3 2d94 	str.w	r2, [r3, #3476]	; 0xd94
	asm("dsb");
6000172a:	f3bf 8f4f 	dsb	sy
	asm("isb");
6000172e:	f3bf 8f6f 	isb	sy
	SCB_CACHE_ICIALLU = 0;
60001732:	f8c3 1f50 	str.w	r1, [r3, #3920]	; 0xf50
	asm("dsb");
60001736:	f3bf 8f4f 	dsb	sy
	asm("isb");
6000173a:	f3bf 8f6f 	isb	sy
	SCB_CCR |= (SCB_CCR_IC | SCB_CCR_DC);
6000173e:	f8d3 2d14 	ldr.w	r2, [r3, #3348]	; 0xd14
}
60001742:	f85d 4b04 	ldr.w	r4, [sp], #4
	SCB_CCR |= (SCB_CCR_IC | SCB_CCR_DC);
60001746:	f442 3240 	orr.w	r2, r2, #196608	; 0x30000
6000174a:	f8c3 2d14 	str.w	r2, [r3, #3348]	; 0xd14
}
6000174e:	4770      	bx	lr
60001750:	1000003f 	.word	0x1000003f
60001754:	07080025 	.word	0x07080025
60001758:	00100009 	.word	0x00100009
6000175c:	200023c0 	.word	0x200023c0
60001760:	00200013 	.word	0x00200013
60001764:	07020021 	.word	0x07020021
60001768:	20000014 	.word	0x20000014
6000176c:	13080025 	.word	0x13080025
60001770:	10000009 	.word	0x10000009
60001774:	20200016 	.word	0x20200016
60001778:	130b0027 	.word	0x130b0027
6000177c:	40000017 	.word	0x40000017
60001780:	60000018 	.word	0x60000018
60001784:	070b002f 	.word	0x070b002f
60001788:	70000019 	.word	0x70000019
6000178c:	8000001a 	.word	0x8000001a

60001790 <usb_pll_start>:
{
60001790:	b4f0      	push	{r4, r5, r6, r7}
		uint32_t n = CCM_ANALOG_PLL_USB1; // pg 759
60001792:	4a15      	ldr	r2, [pc, #84]	; (600017e8 <usb_pll_start+0x58>)
			CCM_ANALOG_PLL_USB1_SET = CCM_ANALOG_PLL_USB1_EN_USB_CLKS;
60001794:	2740      	movs	r7, #64	; 0x40
			CCM_ANALOG_PLL_USB1_CLR = CCM_ANALOG_PLL_USB1_BYPASS;
60001796:	f44f 3180 	mov.w	r1, #65536	; 0x10000
			CCM_ANALOG_PLL_USB1_SET = CCM_ANALOG_PLL_USB1_POWER;
6000179a:	f44f 5680 	mov.w	r6, #4096	; 0x1000
			CCM_ANALOG_PLL_USB1_SET = CCM_ANALOG_PLL_USB1_ENABLE;
6000179e:	f44f 5500 	mov.w	r5, #8192	; 0x2000
			CCM_ANALOG_PLL_USB1_CLR = 0xC000;			// bypass 24 MHz
600017a2:	f44f 4440 	mov.w	r4, #49152	; 0xc000
			CCM_ANALOG_PLL_USB1_CLR = CCM_ANALOG_PLL_USB1_POWER |	// power down
600017a6:	f243 0042 	movw	r0, #12354	; 0x3042
		uint32_t n = CCM_ANALOG_PLL_USB1; // pg 759
600017aa:	6913      	ldr	r3, [r2, #16]
		if (n & CCM_ANALOG_PLL_USB1_DIV_SELECT) {
600017ac:	f013 0f02 	tst.w	r3, #2
600017b0:	d10e      	bne.n	600017d0 <usb_pll_start+0x40>
		if (!(n & CCM_ANALOG_PLL_USB1_ENABLE)) {
600017b2:	f413 5f00 	tst.w	r3, #8192	; 0x2000
600017b6:	d00f      	beq.n	600017d8 <usb_pll_start+0x48>
		if (!(n & CCM_ANALOG_PLL_USB1_POWER)) {
600017b8:	f413 5f80 	tst.w	r3, #4096	; 0x1000
600017bc:	d00e      	beq.n	600017dc <usb_pll_start+0x4c>
		if (!(n & CCM_ANALOG_PLL_USB1_LOCK)) {
600017be:	2b00      	cmp	r3, #0
600017c0:	daf3      	bge.n	600017aa <usb_pll_start+0x1a>
		if (n & CCM_ANALOG_PLL_USB1_BYPASS) {
600017c2:	f413 3f80 	tst.w	r3, #65536	; 0x10000
600017c6:	d10b      	bne.n	600017e0 <usb_pll_start+0x50>
		if (!(n & CCM_ANALOG_PLL_USB1_EN_USB_CLKS)) {
600017c8:	065b      	lsls	r3, r3, #25
600017ca:	d50b      	bpl.n	600017e4 <usb_pll_start+0x54>
}
600017cc:	bcf0      	pop	{r4, r5, r6, r7}
600017ce:	4770      	bx	lr
			CCM_ANALOG_PLL_USB1_CLR = 0xC000;			// bypass 24 MHz
600017d0:	6194      	str	r4, [r2, #24]
			CCM_ANALOG_PLL_USB1_SET = CCM_ANALOG_PLL_USB1_BYPASS;	// bypass
600017d2:	6151      	str	r1, [r2, #20]
			CCM_ANALOG_PLL_USB1_CLR = CCM_ANALOG_PLL_USB1_POWER |	// power down
600017d4:	6190      	str	r0, [r2, #24]
			continue;
600017d6:	e7e8      	b.n	600017aa <usb_pll_start+0x1a>
			CCM_ANALOG_PLL_USB1_SET = CCM_ANALOG_PLL_USB1_ENABLE;
600017d8:	6155      	str	r5, [r2, #20]
			continue;
600017da:	e7e6      	b.n	600017aa <usb_pll_start+0x1a>
			CCM_ANALOG_PLL_USB1_SET = CCM_ANALOG_PLL_USB1_POWER;
600017dc:	6156      	str	r6, [r2, #20]
			continue;
600017de:	e7e4      	b.n	600017aa <usb_pll_start+0x1a>
			CCM_ANALOG_PLL_USB1_CLR = CCM_ANALOG_PLL_USB1_BYPASS;
600017e0:	6191      	str	r1, [r2, #24]
			continue;
600017e2:	e7e2      	b.n	600017aa <usb_pll_start+0x1a>
			CCM_ANALOG_PLL_USB1_SET = CCM_ANALOG_PLL_USB1_EN_USB_CLKS;
600017e4:	6157      	str	r7, [r2, #20]
			continue;
600017e6:	e7e0      	b.n	600017aa <usb_pll_start+0x1a>
600017e8:	400d8000 	.word	0x400d8000

600017ec <tempmon_init>:
  uint32_t calibrationData;
  uint32_t roomCount;
  uint32_t tempCodeVal;
      
  //first power on the temperature sensor - no register change
  TEMPMON_TEMPSENSE0 &= ~0x1U;
600017ec:	4a3f      	ldr	r2, [pc, #252]	; (600018ec <tempmon_init+0x100>)

  //set monitoring frequency - no register change
  TEMPMON_TEMPSENSE1 = (((uint32_t)(((uint32_t)(frequency)) << 0U)) & 0xFFFFU);
600017ee:	2003      	movs	r0, #3
  
  //read calibration data - this works
  calibrationData = HW_OCOTP_ANA1;
600017f0:	493f      	ldr	r1, [pc, #252]	; (600018f0 <tempmon_init+0x104>)
    s_hotTemp = (uint32_t)(calibrationData & 0xFFU) >> 0x00U;
    s_hotCount = (uint32_t)(calibrationData & 0xFFF00U) >> 0X08U;
    roomCount = (uint32_t)(calibrationData & 0xFFF00000U) >> 0x14U;
    s_hot_ROOM = (float) (s_hotTemp) - 25.0f;
600017f2:	eef3 5a09 	vmov.f32	s11, #57	; 0x41c80000  25.0
  TEMPMON_TEMPSENSE0 &= ~0x1U;
600017f6:	f8d2 3080 	ldr.w	r3, [r2, #128]	; 0x80
  
  //Start temp monitoring
  TEMPMON_TEMPSENSE0 |= 0x2U;   //starts temp monitoring

  //PANIC shutdown:
  NVIC_SET_PRIORITY(IRQ_TEMPERATURE_PANIC, 0);
600017fa:	f04f 0c00 	mov.w	ip, #0
  tempCodeVal = ((float)s_hotCount + ((float)s_hotTemp - highAlarmTemp) * s_roomC_hotC / s_hot_ROOM);
600017fe:	ed9f 6a3d 	vldr	s12, [pc, #244]	; 600018f4 <tempmon_init+0x108>
  TEMPMON_TEMPSENSE0 &= ~0x1U;
60001802:	f023 0301 	bic.w	r3, r3, #1
  tempCodeVal = ((float)s_hotCount + ((float)s_hotTemp - panicAlarmTemp) * s_roomC_hotC / s_hot_ROOM);
60001806:	ed9f 5a3c 	vldr	s10, [pc, #240]	; 600018f8 <tempmon_init+0x10c>
{
6000180a:	b430      	push	{r4, r5}
  TEMPMON_TEMPSENSE0 &= ~0x1U;
6000180c:	f8c2 3080 	str.w	r3, [r2, #128]	; 0x80
  TEMPMON_TEMPSENSE1 = (((uint32_t)(((uint32_t)(frequency)) << 0U)) & 0xFFFFU);
60001810:	f8c2 0090 	str.w	r0, [r2, #144]	; 0x90
  calibrationData = HW_OCOTP_ANA1;
60001814:	f8d1 10e0 	ldr.w	r1, [r1, #224]	; 0xe0
    s_hotTemp = (uint32_t)(calibrationData & 0xFFU) >> 0x00U;
60001818:	4d38      	ldr	r5, [pc, #224]	; (600018fc <tempmon_init+0x110>)
6000181a:	b2cb      	uxtb	r3, r1
    s_hotCount = (uint32_t)(calibrationData & 0xFFF00U) >> 0X08U;
6000181c:	4c38      	ldr	r4, [pc, #224]	; (60001900 <tempmon_init+0x114>)
    s_hot_ROOM = (float) (s_hotTemp) - 25.0f;
6000181e:	4839      	ldr	r0, [pc, #228]	; (60001904 <tempmon_init+0x118>)
    s_hotTemp = (uint32_t)(calibrationData & 0xFFU) >> 0x00U;
60001820:	602b      	str	r3, [r5, #0]
    s_hot_ROOM = (float) (s_hotTemp) - 25.0f;
60001822:	ee07 3a90 	vmov	s15, r3
    roomCount = (uint32_t)(calibrationData & 0xFFF00000U) >> 0x14U;
60001826:	0d0b      	lsrs	r3, r1, #20
    s_hotCount = (uint32_t)(calibrationData & 0xFFF00U) >> 0X08U;
60001828:	f3c1 210b 	ubfx	r1, r1, #8, #12
    s_hot_ROOM = (float) (s_hotTemp) - 25.0f;
6000182c:	eef8 7ae7 	vcvt.f32.s32	s15, s15
    roomCount = (uint32_t)(calibrationData & 0xFFF00000U) >> 0x14U;
60001830:	ee06 3a90 	vmov	s13, r3
    s_roomC_hotC = (float) roomCount - (float) s_hotCount;
60001834:	ee07 1a10 	vmov	s14, r1
60001838:	4b33      	ldr	r3, [pc, #204]	; (60001908 <tempmon_init+0x11c>)
6000183a:	eeb8 7ac7 	vcvt.f32.s32	s14, s14
    s_hotCount = (uint32_t)(calibrationData & 0xFFF00U) >> 0X08U;
6000183e:	6021      	str	r1, [r4, #0]
    s_roomC_hotC = (float) roomCount - (float) s_hotCount;
60001840:	eef8 6ae6 	vcvt.f32.s32	s13, s13
    TEMPMON_TEMPSENSE2 |= (((uint32_t)(((uint32_t)(tempCodeVal)) << 16U)) & 0xFFF0000U);
60001844:	4931      	ldr	r1, [pc, #196]	; (6000190c <tempmon_init+0x120>)
  tempCodeVal = ((float)s_hotCount + ((float)s_hotTemp - highAlarmTemp) * s_roomC_hotC / s_hot_ROOM);
60001846:	ee37 6ac6 	vsub.f32	s12, s15, s12
  tempCodeVal = ((float)s_hotCount + ((float)s_hotTemp - panicAlarmTemp) * s_roomC_hotC / s_hot_ROOM);
6000184a:	ee37 5ac5 	vsub.f32	s10, s15, s10
    s_roomC_hotC = (float) roomCount - (float) s_hotCount;
6000184e:	ee76 6ac7 	vsub.f32	s13, s13, s14
    s_hot_ROOM = (float) (s_hotTemp) - 25.0f;
60001852:	ee77 7ae5 	vsub.f32	s15, s15, s11
  tempCodeVal = ((float)s_hotCount + ((float)s_hotTemp - highAlarmTemp) * s_roomC_hotC / s_hot_ROOM);
60001856:	ee26 6a26 	vmul.f32	s12, s12, s13
    s_roomC_hotC = (float) roomCount - (float) s_hotCount;
6000185a:	edc3 6a00 	vstr	s13, [r3]
  tempCodeVal = ((float)s_hotCount + ((float)s_hotTemp - panicAlarmTemp) * s_roomC_hotC / s_hot_ROOM);
6000185e:	ee25 5a26 	vmul.f32	s10, s10, s13
    TEMPMON_TEMPSENSE0 |= (((uint32_t)(((uint32_t)(tempCodeVal)) << 20U)) & 0xFFF00000U);
60001862:	f8d2 3080 	ldr.w	r3, [r2, #128]	; 0x80
  tempCodeVal = ((float)s_hotCount + ((float)s_hotTemp - lowAlarmTemp) * s_roomC_hotC / s_hot_ROOM);
60001866:	ee67 4aa6 	vmul.f32	s9, s15, s13
    s_hot_ROOM = (float) (s_hotTemp) - 25.0f;
6000186a:	edc0 7a00 	vstr	s15, [r0]
  tempCodeVal = ((float)s_hotCount + ((float)s_hotTemp - highAlarmTemp) * s_roomC_hotC / s_hot_ROOM);
6000186e:	eec6 5a27 	vdiv.f32	s11, s12, s15
  NVIC_SET_PRIORITY(IRQ_TEMPERATURE_PANIC, 0);
60001872:	4827      	ldr	r0, [pc, #156]	; (60001910 <tempmon_init+0x124>)
  tempCodeVal = ((float)s_hotCount + ((float)s_hotTemp - panicAlarmTemp) * s_roomC_hotC / s_hot_ROOM);
60001874:	ee85 6a27 	vdiv.f32	s12, s10, s15
  tempCodeVal = ((float)s_hotCount + ((float)s_hotTemp - lowAlarmTemp) * s_roomC_hotC / s_hot_ROOM);
60001878:	eec4 6aa7 	vdiv.f32	s13, s9, s15
  tempCodeVal = ((float)s_hotCount + ((float)s_hotTemp - highAlarmTemp) * s_roomC_hotC / s_hot_ROOM);
6000187c:	ee75 5a87 	vadd.f32	s11, s11, s14
60001880:	eefc 5ae5 	vcvt.u32.f32	s11, s11
  tempCodeVal = ((float)s_hotCount + ((float)s_hotTemp - panicAlarmTemp) * s_roomC_hotC / s_hot_ROOM);
60001884:	ee36 6a07 	vadd.f32	s12, s12, s14
    TEMPMON_TEMPSENSE0 |= (((uint32_t)(((uint32_t)(tempCodeVal)) << 20U)) & 0xFFF00000U);
60001888:	ee15 4a90 	vmov	r4, s11
  tempCodeVal = ((float)s_hotCount + ((float)s_hotTemp - panicAlarmTemp) * s_roomC_hotC / s_hot_ROOM);
6000188c:	eebc 6ac6 	vcvt.u32.f32	s12, s12
    TEMPMON_TEMPSENSE0 |= (((uint32_t)(((uint32_t)(tempCodeVal)) << 20U)) & 0xFFF00000U);
60001890:	ea43 5304 	orr.w	r3, r3, r4, lsl #20
  tempCodeVal = ((float)s_hotCount + ((float)s_hotTemp - lowAlarmTemp) * s_roomC_hotC / s_hot_ROOM);
60001894:	ee76 7a87 	vadd.f32	s15, s13, s14
    TEMPMON_TEMPSENSE0 |= (((uint32_t)(((uint32_t)(tempCodeVal)) << 20U)) & 0xFFF00000U);
60001898:	f8c2 3080 	str.w	r3, [r2, #128]	; 0x80
    TEMPMON_TEMPSENSE2 |= (((uint32_t)(((uint32_t)(tempCodeVal)) << 16U)) & 0xFFF0000U);
6000189c:	ee16 3a10 	vmov	r3, s12
600018a0:	f8d2 4190 	ldr.w	r4, [r2, #400]	; 0x190
  tempCodeVal = ((float)s_hotCount + ((float)s_hotTemp - lowAlarmTemp) * s_roomC_hotC / s_hot_ROOM);
600018a4:	eefc 7ae7 	vcvt.u32.f32	s15, s15
    TEMPMON_TEMPSENSE2 |= (((uint32_t)(((uint32_t)(tempCodeVal)) << 16U)) & 0xFFF0000U);
600018a8:	ea01 4103 	and.w	r1, r1, r3, lsl #16
600018ac:	4321      	orrs	r1, r4
  tempCodeVal = ((float)s_hotCount + ((float)s_hotTemp - lowAlarmTemp) * s_roomC_hotC / s_hot_ROOM);
600018ae:	ee17 3a90 	vmov	r3, s15
    TEMPMON_TEMPSENSE2 |= (((uint32_t)(((uint32_t)(tempCodeVal)) << 16U)) & 0xFFF0000U);
600018b2:	f8c2 1190 	str.w	r1, [r2, #400]	; 0x190
    TEMPMON_TEMPSENSE2 |= (((uint32_t)(((uint32_t)(tempCodeVal)) << 0U)) & 0xFFFU);
600018b6:	f3c3 030b 	ubfx	r3, r3, #0, #12
600018ba:	f8d2 1190 	ldr.w	r1, [r2, #400]	; 0x190
600018be:	430b      	orrs	r3, r1
static inline void attachInterruptVector(IRQ_NUMBER_t irq, void (*function)(void)) __attribute__((always_inline, unused));
static inline void attachInterruptVector(IRQ_NUMBER_t irq, void (*function)(void)) { _VectorsRam[irq + 16] = function; asm volatile("": : :"memory"); }
#else
extern void (* volatile _VectorsRam[NVIC_NUM_INTERRUPTS+16])(void);
static inline void attachInterruptVector(enum IRQ_NUMBER_t irq, void (*function)(void)) __attribute__((always_inline, unused));
static inline void attachInterruptVector(enum IRQ_NUMBER_t irq, void (*function)(void)) { _VectorsRam[irq + 16] = function; asm volatile("": : :"memory"); }
600018c0:	4914      	ldr	r1, [pc, #80]	; (60001914 <tempmon_init+0x128>)
600018c2:	f8c2 3190 	str.w	r3, [r2, #400]	; 0x190
  TEMPMON_TEMPSENSE0 |= 0x2U;   //starts temp monitoring
600018c6:	f8d2 3080 	ldr.w	r3, [r2, #128]	; 0x80
600018ca:	f043 0302 	orr.w	r3, r3, #2
600018ce:	f8c2 3080 	str.w	r3, [r2, #128]	; 0x80
600018d2:	4b11      	ldr	r3, [pc, #68]	; (60001918 <tempmon_init+0x12c>)
  NVIC_SET_PRIORITY(IRQ_TEMPERATURE_PANIC, 0);
600018d4:	f880 c040 	strb.w	ip, [r0, #64]	; 0x40
600018d8:	f8c1 3140 	str.w	r3, [r1, #320]	; 0x140
  attachInterruptVector(IRQ_TEMPERATURE_PANIC, &Panic_Temp_isr);
  NVIC_ENABLE_IRQ(IRQ_TEMPERATURE_PANIC);
600018dc:	f04f 23e0 	mov.w	r3, #3758153728	; 0xe000e000
600018e0:	2201      	movs	r2, #1
}
600018e2:	bc30      	pop	{r4, r5}
  NVIC_ENABLE_IRQ(IRQ_TEMPERATURE_PANIC);
600018e4:	f8c3 2108 	str.w	r2, [r3, #264]	; 0x108
}
600018e8:	4770      	bx	lr
600018ea:	bf00      	nop
600018ec:	400d8100 	.word	0x400d8100
600018f0:	401f4400 	.word	0x401f4400
600018f4:	42aa0000 	.word	0x42aa0000
600018f8:	42b40000 	.word	0x42b40000
600018fc:	20002338 	.word	0x20002338
60001900:	20002334 	.word	0x20002334
60001904:	2000233c 	.word	0x2000233c
60001908:	20002340 	.word	0x20002340
6000190c:	0fff0000 	.word	0x0fff0000
60001910:	e000e400 	.word	0xe000e400
60001914:	20001800 	.word	0x20001800
60001918:	00006a8d 	.word	0x00006a8d

6000191c <usb_init>:
FLASHMEM void usb_init(void)
{
	// TODO: only enable when VBUS detected
	// TODO: return to low power mode when VBUS removed
	// TODO: protect PMU access with MPU
	PMU_REG_3P0 = PMU_REG_3P0_OUTPUT_TRG(0x0F) | PMU_REG_3P0_BO_OFFSET(6)
6000191c:	4b31      	ldr	r3, [pc, #196]	; (600019e4 <usb_init+0xc8>)
6000191e:	f640 7261 	movw	r2, #3937	; 0xf61
{
60001922:	b510      	push	{r4, lr}
	PMU_REG_3P0 = PMU_REG_3P0_OUTPUT_TRG(0x0F) | PMU_REG_3P0_BO_OFFSET(6)
60001924:	f8c3 2120 	str.w	r2, [r3, #288]	; 0x120

	CCM_CCGR6 |= CCM_CCGR6_USBOH3(CCM_CCGR_ON); // turn on clocks to USB peripheral
	
	printf("BURSTSIZE=%08lX\n", USB1_BURSTSIZE);
	//USB1_BURSTSIZE = USB_BURSTSIZE_TXPBURST(4) | USB_BURSTSIZE_RXPBURST(4);
	USB1_BURSTSIZE = 0x0404;
60001928:	f240 4404 	movw	r4, #1028	; 0x404
	usb_init_serialnumber();
6000192c:	f000 f8d8 	bl	60001ae0 <__usb_init_serialnumber_veneer>
	CCM_CCGR6 |= CCM_CCGR6_USBOH3(CCM_CCGR_ON); // turn on clocks to USB peripheral
60001930:	4a2d      	ldr	r2, [pc, #180]	; (600019e8 <usb_init+0xcc>)
	USB1_BURSTSIZE = 0x0404;
60001932:	492e      	ldr	r1, [pc, #184]	; (600019ec <usb_init+0xd0>)
	CCM_CCGR6 |= CCM_CCGR6_USBOH3(CCM_CCGR_ON); // turn on clocks to USB peripheral
60001934:	f8d2 3080 	ldr.w	r3, [r2, #128]	; 0x80
	//printf("USB1_USBMODE=%08lX\n", USB1_USBMODE);

	// turn on PLL3, wait for 480 MHz lock?
	// turn on CCM clock gates?  CCGR6[CG0]
#if 1
	if ((USBPHY1_PWD & (USBPHY_PWD_RXPWDRX | USBPHY_PWD_RXPWDDIFF | USBPHY_PWD_RXPWD1PT1
60001938:	482d      	ldr	r0, [pc, #180]	; (600019f0 <usb_init+0xd4>)
	CCM_CCGR6 |= CCM_CCGR6_USBOH3(CCM_CCGR_ON); // turn on clocks to USB peripheral
6000193a:	f043 0303 	orr.w	r3, r3, #3
6000193e:	f8c2 3080 	str.w	r3, [r2, #128]	; 0x80
	if ((USBPHY1_PWD & (USBPHY_PWD_RXPWDRX | USBPHY_PWD_RXPWDDIFF | USBPHY_PWD_RXPWD1PT1
60001942:	4b2c      	ldr	r3, [pc, #176]	; (600019f4 <usb_init+0xd8>)
	USB1_BURSTSIZE = 0x0404;
60001944:	f8c1 4160 	str.w	r4, [r1, #352]	; 0x160
	if ((USBPHY1_PWD & (USBPHY_PWD_RXPWDRX | USBPHY_PWD_RXPWDDIFF | USBPHY_PWD_RXPWD1PT1
60001948:	6802      	ldr	r2, [r0, #0]
6000194a:	421a      	tst	r2, r3
6000194c:	d103      	bne.n	60001956 <usb_init+0x3a>
	  | USBPHY_PWD_RXPWDENV | USBPHY_PWD_TXPWDV2I | USBPHY_PWD_TXPWDIBIAS
	  | USBPHY_PWD_TXPWDFS)) || (USB1_USBMODE & USB_USBMODE_CM_MASK)) {
6000194e:	f8d1 31a8 	ldr.w	r3, [r1, #424]	; 0x1a8
60001952:	079a      	lsls	r2, r3, #30
60001954:	d01b      	beq.n	6000198e <usb_init+0x72>
		// USB controller is turned on from previous use
		// reset needed to turn it off & start from clean slate
		USBPHY1_CTRL_SET = USBPHY_CTRL_SFTRST; // USBPHY1_CTRL page 3292
		USB1_USBCMD |= USB_USBCMD_RST; // reset controller
60001956:	4a25      	ldr	r2, [pc, #148]	; (600019ec <usb_init+0xd0>)
		USBPHY1_CTRL_SET = USBPHY_CTRL_SFTRST; // USBPHY1_CTRL page 3292
60001958:	f04f 4100 	mov.w	r1, #2147483648	; 0x80000000
6000195c:	4b24      	ldr	r3, [pc, #144]	; (600019f0 <usb_init+0xd4>)
6000195e:	6359      	str	r1, [r3, #52]	; 0x34
		USB1_USBCMD |= USB_USBCMD_RST; // reset controller
60001960:	f8d2 3140 	ldr.w	r3, [r2, #320]	; 0x140
60001964:	f043 0302 	orr.w	r3, r3, #2
60001968:	f8c2 3140 	str.w	r3, [r2, #320]	; 0x140
		int count=0;
		while (USB1_USBCMD & USB_USBCMD_RST) count++;
6000196c:	f8d2 3140 	ldr.w	r3, [r2, #320]	; 0x140
60001970:	079b      	lsls	r3, r3, #30
60001972:	d4fb      	bmi.n	6000196c <usb_init+0x50>
		NVIC_CLEAR_PENDING(IRQ_USB1);
60001974:	f44f 3000 	mov.w	r0, #131072	; 0x20000
60001978:	f04f 21e0 	mov.w	r1, #3758153728	; 0xe000e000
		USBPHY1_CTRL_CLR = USBPHY_CTRL_SFTRST; // reset PHY
6000197c:	4b1c      	ldr	r3, [pc, #112]	; (600019f0 <usb_init+0xd4>)
6000197e:	f04f 4200 	mov.w	r2, #2147483648	; 0x80000000
		NVIC_CLEAR_PENDING(IRQ_USB1);
60001982:	f8c1 028c 	str.w	r0, [r1, #652]	; 0x28c
		//printf("USBPHY1_PWD=%08lX\n", USBPHY1_PWD);
		//printf("USBPHY1_TX=%08lX\n", USBPHY1_TX);
		//printf("USBPHY1_RX=%08lX\n", USBPHY1_RX);
		//printf("USBPHY1_CTRL=%08lX\n", USBPHY1_CTRL);
		//printf("USB1_USBMODE=%08lX\n", USB1_USBMODE);
		delay(25);
60001986:	2019      	movs	r0, #25
		USBPHY1_CTRL_CLR = USBPHY_CTRL_SFTRST; // reset PHY
60001988:	639a      	str	r2, [r3, #56]	; 0x38
		delay(25);
6000198a:	f000 f8a1 	bl	60001ad0 <__delay_veneer>
	// ENDPTFLUSH	pg 3247
	// ENDPTSTAT	pg 3247
	// ENDPTCOMPLETE   3248
	// ENDPTCTRL0	pg 3249

	USBPHY1_CTRL_CLR = USBPHY_CTRL_CLKGATE;
6000198e:	4a18      	ldr	r2, [pc, #96]	; (600019f0 <usb_init+0xd4>)
60001990:	f04f 4080 	mov.w	r0, #1073741824	; 0x40000000
	USBPHY1_PWD = 0;
	//printf("USBPHY1_PWD=%08lX\n", USBPHY1_PWD);
	//printf("USBPHY1_CTRL=%08lX\n", USBPHY1_CTRL);

	USB1_USBMODE = USB_USBMODE_CM(2) | USB_USBMODE_SLOM;
60001994:	4c15      	ldr	r4, [pc, #84]	; (600019ec <usb_init+0xd0>)
	USBPHY1_PWD = 0;
60001996:	2100      	movs	r1, #0
	USBPHY1_CTRL_CLR = USBPHY_CTRL_CLKGATE;
60001998:	6390      	str	r0, [r2, #56]	; 0x38
	USB1_USBMODE = USB_USBMODE_CM(2) | USB_USBMODE_SLOM;
6000199a:	200a      	movs	r0, #10
	memset(endpoint_queue_head, 0, sizeof(endpoint_queue_head));
6000199c:	4b16      	ldr	r3, [pc, #88]	; (600019f8 <usb_init+0xdc>)
	USBPHY1_PWD = 0;
6000199e:	6011      	str	r1, [r2, #0]
	memset(endpoint_queue_head, 0, sizeof(endpoint_queue_head));
600019a0:	f44f 7220 	mov.w	r2, #640	; 0x280
	USB1_USBMODE = USB_USBMODE_CM(2) | USB_USBMODE_SLOM;
600019a4:	f8c4 01a8 	str.w	r0, [r4, #424]	; 0x1a8
	memset(endpoint_queue_head, 0, sizeof(endpoint_queue_head));
600019a8:	4618      	mov	r0, r3
600019aa:	f000 f89d 	bl	60001ae8 <__memset_veneer>
	endpoint_queue_head[0].config = (64 << 16) | (1 << 15);
	endpoint_queue_head[1].config = (64 << 16);
600019ae:	f44f 0280 	mov.w	r2, #4194304	; 0x400000
	memset(endpoint_queue_head, 0, sizeof(endpoint_queue_head));
600019b2:	4603      	mov	r3, r0
	endpoint_queue_head[0].config = (64 << 16) | (1 << 15);
600019b4:	f44f 0081 	mov.w	r0, #4227072	; 0x408000
	USB1_ENDPOINTLISTADDR = (uint32_t)&endpoint_queue_head;
	//  Recommended: enable all device interrupts including: USBINT, USBERRINT,
	// Port Change Detect, USB Reset Received, DCSuspend.
	USB1_USBINTR = USB_USBINTR_UE | USB_USBINTR_UEE | /* USB_USBINTR_PCE | */
600019b8:	f240 1143 	movw	r1, #323	; 0x143
	endpoint_queue_head[0].config = (64 << 16) | (1 << 15);
600019bc:	6018      	str	r0, [r3, #0]
	USB1_ENDPOINTLISTADDR = (uint32_t)&endpoint_queue_head;
600019be:	f8c4 3158 	str.w	r3, [r4, #344]	; 0x158
	endpoint_queue_head[1].config = (64 << 16);
600019c2:	641a      	str	r2, [r3, #64]	; 0x40
600019c4:	4b0d      	ldr	r3, [pc, #52]	; (600019fc <usb_init+0xe0>)
600019c6:	4a0e      	ldr	r2, [pc, #56]	; (60001a00 <usb_init+0xe4>)
	USB1_USBINTR = USB_USBINTR_UE | USB_USBINTR_UEE | /* USB_USBINTR_PCE | */
600019c8:	f8c4 1148 	str.w	r1, [r4, #328]	; 0x148
600019cc:	f8c3 2204 	str.w	r2, [r3, #516]	; 0x204
		USB_USBINTR_URE | USB_USBINTR_SLE;
	//_VectorsRam[IRQ_USB1+16] = &usb_isr;
	attachInterruptVector(IRQ_USB1, &usb_isr);
	NVIC_ENABLE_IRQ(IRQ_USB1);
600019d0:	f04f 22e0 	mov.w	r2, #3758153728	; 0xe000e000
600019d4:	f44f 3100 	mov.w	r1, #131072	; 0x20000
	//printf("USB1_ENDPTCTRL0=%08lX\n", USB1_ENDPTCTRL0);
	//printf("USB1_ENDPTCTRL1=%08lX\n", USB1_ENDPTCTRL1);
	//printf("USB1_ENDPTCTRL2=%08lX\n", USB1_ENDPTCTRL2);
	//printf("USB1_ENDPTCTRL3=%08lX\n", USB1_ENDPTCTRL3);
	USB1_USBCMD = USB_USBCMD_RS;
600019d8:	2301      	movs	r3, #1
	NVIC_ENABLE_IRQ(IRQ_USB1);
600019da:	f8c2 110c 	str.w	r1, [r2, #268]	; 0x10c
	USB1_USBCMD = USB_USBCMD_RS;
600019de:	f8c4 3140 	str.w	r3, [r4, #320]	; 0x140
	//transfer_log_head = 0;
	//transfer_log_count = 0;
	//USB1_PORTSC1 |= USB_PORTSC1_PFSC; // force 12 Mbit/sec
}
600019e2:	bd10      	pop	{r4, pc}
600019e4:	400d8000 	.word	0x400d8000
600019e8:	400fc000 	.word	0x400fc000
600019ec:	402e0000 	.word	0x402e0000
600019f0:	400d9000 	.word	0x400d9000
600019f4:	001e1c00 	.word	0x001e1c00
600019f8:	20000000 	.word	0x20000000
600019fc:	20001800 	.word	0x20001800
60001a00:	00006c75 	.word	0x00006c75

60001a04 <_reboot_Teensyduino_>:


FLASHMEM __attribute__((noinline)) void _reboot_Teensyduino_(void)
{
60001a04:	b508      	push	{r3, lr}
	if (!(HW_OCOTP_CFG5 & 0x02)) {
60001a06:	4b0e      	ldr	r3, [pc, #56]	; (60001a40 <_reboot_Teensyduino_+0x3c>)
60001a08:	6e1b      	ldr	r3, [r3, #96]	; 0x60
60001a0a:	079b      	lsls	r3, r3, #30
60001a0c:	d400      	bmi.n	60001a10 <_reboot_Teensyduino_+0xc>
		asm("bkpt #251"); // run bootloader
60001a0e:	befb      	bkpt	0x00fb
	} else {
		__disable_irq(); // secure mode NXP ROM reboot
60001a10:	b672      	cpsid	i
		USB1_USBCMD = 0;
60001a12:	4b0c      	ldr	r3, [pc, #48]	; (60001a44 <_reboot_Teensyduino_+0x40>)
60001a14:	2000      	movs	r0, #0
		IOMUXC_GPR_GPR16 = 0x00200003;
60001a16:	4a0c      	ldr	r2, [pc, #48]	; (60001a48 <_reboot_Teensyduino_+0x44>)
		USB1_USBCMD = 0;
60001a18:	f8c3 0140 	str.w	r0, [r3, #320]	; 0x140
		// TODO: wipe all RAM for security
		__asm__ volatile("mov sp, %0" : : "r" (0x20201000) : );
60001a1c:	f103 4360 	add.w	r3, r3, #3758096384	; 0xe0000000
		IOMUXC_GPR_GPR16 = 0x00200003;
60001a20:	490a      	ldr	r1, [pc, #40]	; (60001a4c <_reboot_Teensyduino_+0x48>)
		__asm__ volatile("mov sp, %0" : : "r" (0x20201000) : );
60001a22:	f5a3 235f 	sub.w	r3, r3, #913408	; 0xdf000
		IOMUXC_GPR_GPR16 = 0x00200003;
60001a26:	6411      	str	r1, [r2, #64]	; 0x40
		__asm__ volatile("mov sp, %0" : : "r" (0x20201000) : );
60001a28:	469d      	mov	sp, r3
		__asm__ volatile("dsb":::"memory");
60001a2a:	f3bf 8f4f 	dsb	sy
		volatile uint32_t * const p = (uint32_t *)0x20208000;
		*p = 0xEB120000;
		((void (*)(volatile void *))(*(uint32_t *)(*(uint32_t *)0x0020001C + 8)))(p);
60001a2e:	f44f 1300 	mov.w	r3, #2097152	; 0x200000
		*p = 0xEB120000;
60001a32:	4807      	ldr	r0, [pc, #28]	; (60001a50 <_reboot_Teensyduino_+0x4c>)
60001a34:	4a07      	ldr	r2, [pc, #28]	; (60001a54 <_reboot_Teensyduino_+0x50>)
		((void (*)(volatile void *))(*(uint32_t *)(*(uint32_t *)0x0020001C + 8)))(p);
60001a36:	69db      	ldr	r3, [r3, #28]
		*p = 0xEB120000;
60001a38:	6002      	str	r2, [r0, #0]
		((void (*)(volatile void *))(*(uint32_t *)(*(uint32_t *)0x0020001C + 8)))(p);
60001a3a:	689b      	ldr	r3, [r3, #8]
60001a3c:	4798      	blx	r3
	}
	__builtin_unreachable();
60001a3e:	bf00      	nop
60001a40:	401f4400 	.word	0x401f4400
60001a44:	402e0000 	.word	0x402e0000
60001a48:	400ac000 	.word	0x400ac000
60001a4c:	00200003 	.word	0x00200003
60001a50:	20208000 	.word	0x20208000
60001a54:	eb120000 	.word	0xeb120000

60001a58 <analog_init>:
{
	uint32_t mode, avg=0;

	printf("analogInit\n");

	CCM_CCGR1 |= CCM_CCGR1_ADC1(CCM_CCGR_ON);
60001a58:	4b10      	ldr	r3, [pc, #64]	; (60001a9c <analog_init+0x44>)
		mode |= ADC_CFG_ADIV(0) | ADC_CFG_ADICLK(0); // use IPG
	}
#endif
	//ADC1
	ADC1_CFG = mode | ADC_CFG_ADHSC;
	ADC1_GC = avg | ADC_GC_CAL;		// begin cal
60001a5a:	20a0      	movs	r0, #160	; 0xa0
	ADC1_CFG = mode | ADC_CFG_ADHSC;
60001a5c:	4a10      	ldr	r2, [pc, #64]	; (60001aa0 <analog_init+0x48>)
	CCM_CCGR1 |= CCM_CCGR1_ADC1(CCM_CCGR_ON);
60001a5e:	6ed9      	ldr	r1, [r3, #108]	; 0x6c
60001a60:	f441 3140 	orr.w	r1, r1, #196608	; 0x30000
{
60001a64:	b410      	push	{r4}
	CCM_CCGR1 |= CCM_CCGR1_ADC1(CCM_CCGR_ON);
60001a66:	66d9      	str	r1, [r3, #108]	; 0x6c
	ADC1_CFG = mode | ADC_CFG_ADHSC;
60001a68:	f240 6437 	movw	r4, #1591	; 0x637
	CCM_CCGR1 |= CCM_CCGR1_ADC2(CCM_CCGR_ON);
60001a6c:	6ed9      	ldr	r1, [r3, #108]	; 0x6c
60001a6e:	f441 7140 	orr.w	r1, r1, #768	; 0x300
60001a72:	66d9      	str	r1, [r3, #108]	; 0x6c
	ADC1_CFG = mode | ADC_CFG_ADHSC;
60001a74:	6454      	str	r4, [r2, #68]	; 0x44
	ADC1_GC = avg | ADC_GC_CAL;		// begin cal
60001a76:	6490      	str	r0, [r2, #72]	; 0x48
	calibrating = 1;
	while (ADC1_GC & ADC_GC_CAL) {
60001a78:	6c93      	ldr	r3, [r2, #72]	; 0x48
60001a7a:	061b      	lsls	r3, r3, #24
60001a7c:	d4fc      	bmi.n	60001a78 <analog_init+0x20>
		//yield();
	}
	calibrating = 0;
	//ADC2
	ADC2_CFG = mode | ADC_CFG_ADHSC;
60001a7e:	4a09      	ldr	r2, [pc, #36]	; (60001aa4 <analog_init+0x4c>)
60001a80:	f240 6137 	movw	r1, #1591	; 0x637
	ADC2_GC = avg | ADC_GC_CAL;		// begin cal
60001a84:	23a0      	movs	r3, #160	; 0xa0
	ADC2_CFG = mode | ADC_CFG_ADHSC;
60001a86:	6451      	str	r1, [r2, #68]	; 0x44
	ADC2_GC = avg | ADC_GC_CAL;		// begin cal
60001a88:	6493      	str	r3, [r2, #72]	; 0x48
	calibrating = 1;
	while (ADC2_GC & ADC_GC_CAL) {
60001a8a:	6c93      	ldr	r3, [r2, #72]	; 0x48
60001a8c:	f013 0380 	ands.w	r3, r3, #128	; 0x80
60001a90:	d1fb      	bne.n	60001a8a <analog_init+0x32>
		//yield();
	}
	calibrating = 0;
60001a92:	4a05      	ldr	r2, [pc, #20]	; (60001aa8 <analog_init+0x50>)
60001a94:	7013      	strb	r3, [r2, #0]
}
60001a96:	f85d 4b04 	ldr.w	r4, [sp], #4
60001a9a:	4770      	bx	lr
60001a9c:	400fc000 	.word	0x400fc000
60001aa0:	400c4000 	.word	0x400c4000
60001aa4:	400c8000 	.word	0x400c8000
60001aa8:	20002375 	.word	0x20002375

60001aac <_init>:
60001aac:	b5f8      	push	{r3, r4, r5, r6, r7, lr}
60001aae:	bf00      	nop
60001ab0:	bcf8      	pop	{r3, r4, r5, r6, r7}
60001ab2:	bc08      	pop	{r3}
60001ab4:	469e      	mov	lr, r3
60001ab6:	4770      	bx	lr

60001ab8 <__pwm_init_veneer>:
60001ab8:	f85f f000 	ldr.w	pc, [pc]	; 60001abc <__pwm_init_veneer+0x4>
60001abc:	00007f59 	.word	0x00007f59

60001ac0 <____libc_init_array_veneer>:
60001ac0:	f85f f000 	ldr.w	pc, [pc]	; 60001ac4 <____libc_init_array_veneer+0x4>
60001ac4:	000087e5 	.word	0x000087e5

60001ac8 <__main_veneer>:
60001ac8:	f85f f000 	ldr.w	pc, [pc]	; 60001acc <__main_veneer+0x4>
60001acc:	00006715 	.word	0x00006715

60001ad0 <__delay_veneer>:
60001ad0:	f85f f000 	ldr.w	pc, [pc]	; 60001ad4 <__delay_veneer+0x4>
60001ad4:	00006311 	.word	0x00006311

60001ad8 <__set_arm_clock_veneer>:
60001ad8:	f85f f000 	ldr.w	pc, [pc]	; 60001adc <__set_arm_clock_veneer+0x4>
60001adc:	00006021 	.word	0x00006021

60001ae0 <__usb_init_serialnumber_veneer>:
60001ae0:	f85f f000 	ldr.w	pc, [pc]	; 60001ae4 <__usb_init_serialnumber_veneer+0x4>
60001ae4:	000073e5 	.word	0x000073e5

60001ae8 <__memset_veneer>:
60001ae8:	f85f f000 	ldr.w	pc, [pc]	; 60001aec <__memset_veneer+0x4>
60001aec:	00008621 	.word	0x00008621

60001af0 <__frame_dummy_init_array_entry>:
60001af0:	00000105 00000135 000053d9 000053f1     ....5....S...S..
60001b00:	0000556d 00005f59 00007eb1              mU..Y_...~..

Disassembly of section .text.itcm:

00000000 <_stext>:
	...

00000020 <irq_gpio6789>:

#if defined(RADIOLIB_BUILD_ARDUINO)

ArduinoHal::ArduinoHal(): RadioLibHal(INPUT, OUTPUT, LOW, HIGH, RISING, FALLING), spi(&RADIOLIB_DEFAULT_SPI), initInterface(true) {}

ArduinoHal::ArduinoHal(SPIClass& spi, SPISettings spiSettings): RadioLibHal(INPUT, OUTPUT, LOW, HIGH, RISING, FALLING), spi(&spi), spiSettings(spiSettings) {}
      20:	b5f8      	push	{r3, r4, r5, r6, r7, lr}
      22:	f04f 4384 	mov.w	r3, #1107296256	; 0x42000000
      26:	699d      	ldr	r5, [r3, #24]
      28:	695a      	ldr	r2, [r3, #20]
      2a:	4015      	ands	r5, r2
      2c:	d00d      	beq.n	4a <_teensy_model_identifier+0x26>
      2e:	4f25      	ldr	r7, [pc, #148]	; (c4 <_teensy_model_identifier+0xa0>)
      30:	2601      	movs	r6, #1
      32:	619d      	str	r5, [r3, #24]
      34:	fa95 f4a5 	rbit	r4, r5
      38:	fab4 f484 	clz	r4, r4
      3c:	f857 3024 	ldr.w	r3, [r7, r4, lsl #2]
      40:	fa06 f404 	lsl.w	r4, r6, r4
	// start the SRTC
	SNVS_LPCR |= SNVS_LPCR_SRTC_ENV;
	while (!(SNVS_LPCR & SNVS_LPCR_SRTC_ENV)); // wait
	// start the RTC and sync it to the SRTC
	SNVS_HPCR |= SNVS_HPCR_RTC_EN | SNVS_HPCR_HP_TS;
}
      44:	4798      	blx	r3
      46:	43a5      	bics	r5, r4

static void usb_endpoint_config(endpoint_t *qh, uint32_t config, void (*callback)(transfer_t *))
{
	memset(qh, 0, sizeof(endpoint_t));
	qh->config = config;
	qh->next = 1; // Terminate bit = 1
      48:	d1f4      	bne.n	34 <_teensy_model_identifier+0x10>
      4a:	4b1f      	ldr	r3, [pc, #124]	; (c8 <_teensy_model_identifier+0xa4>)
{
	if (mult < 1 || mult > 3) return;
	uint32_t config = (packet_size << 16) | (mult << 30);
	if (ep < 2 || ep > NUM_ENDPOINTS) return;
	usb_endpoint_config(endpoint_queue_head + ep * 2 + 1, config, cb);
	if (cb) endpointN_notify_mask |= (1 << (ep + 16));
      4c:	699d      	ldr	r5, [r3, #24]
      4e:	695a      	ldr	r2, [r3, #20]
      50:	4015      	ands	r5, r2
      52:	d00d      	beq.n	70 <_teensy_model_identifier+0x4c>
      54:	4f1d      	ldr	r7, [pc, #116]	; (cc <_teensy_model_identifier+0xa8>)
      56:	2601      	movs	r6, #1
      58:	619d      	str	r5, [r3, #24]
      5a:	fa95 f4a5 	rbit	r4, r5
}
      5e:	fab4 f484 	clz	r4, r4
      62:	f857 3024 	ldr.w	r3, [r7, r4, lsl #2]
      66:	fa06 f404 	lsl.w	r4, r6, r4
      6a:	4798      	blx	r3
int16_t SX1262::setFrequency(float freq) {
  return(setFrequency(freq, false));
}

int16_t SX1262::setFrequency(float freq, bool skipCalibration) {
  RADIOLIB_CHECK_RANGE(freq, 150.0, 960.0, RADIOLIB_ERR_INVALID_FREQUENCY);
      6c:	43a5      	bics	r5, r4
      6e:	d1f4      	bne.n	5a <_teensy_model_identifier+0x36>
      70:	4b17      	ldr	r3, [pc, #92]	; (d0 <_teensy_model_identifier+0xac>)
      72:	699d      	ldr	r5, [r3, #24]
      74:	695a      	ldr	r2, [r3, #20]
      76:	4015      	ands	r5, r2
}

Module& Module::operator=(const Module& mod) {
  memcpy((void*)&mod.spiConfig, &this->spiConfig, sizeof(SPIConfig_t));
  this->csPin = mod.csPin;
  this->irqPin = mod.irqPin;
      78:	d00d      	beq.n	96 <_teensy_model_identifier+0x72>
      7a:	4f16      	ldr	r7, [pc, #88]	; (d4 <_teensy_model_identifier+0xb0>)
  this->rstPin = mod.rstPin;
  this->gpioPin = mod.gpioPin;
      7c:	2601      	movs	r6, #1
      7e:	619d      	str	r5, [r3, #24]
}
      80:	fa95 f4a5 	rbit	r4, r5
      84:	fab4 f484 	clz	r4, r4
      88:	f857 3024 	ldr.w	r3, [r7, r4, lsl #2]
{
	MillisTimer *timer = listActive;
	while (timer) {
		if (timer->_ms > 0) {
			timer->_ms--;
			break;
      8c:	fa06 f404 	lsl.w	r4, r6, r4
      90:	4798      	blx	r3
      92:	43a5      	bics	r5, r4
	uint8_t digit, i;

	if (base < 2) return 0;
	if (n == 0) {
		buf[sizeof(buf) - 1] = '0';
		i = sizeof(buf) - 1;
      94:	d1f4      	bne.n	80 <_teensy_model_identifier+0x5c>
		buf[sizeof(buf) - 1] = '0';
      96:	4b10      	ldr	r3, [pc, #64]	; (d8 <_teensy_model_identifier+0xb4>)
      98:	699d      	ldr	r5, [r3, #24]
		i = sizeof(buf) - 1;
      9a:	695a      	ldr	r2, [r3, #20]
	if (base < 2) return 0;
      9c:	4015      	ands	r5, r2
	if (sign) {
		i--;
		buf[i] = '-';
	}
	return write(buf + i, sizeof(buf) - i);
}
      9e:	d00d      	beq.n	bc <_teensy_model_identifier+0x98>
      a0:	4f0e      	ldr	r7, [pc, #56]	; (dc <_teensy_model_identifier+0xb8>)
      a2:	2601      	movs	r6, #1
    if(len == 0) {
      length = getPacketLength(false);
    }

    // add null terminator
    data[length] = 0;
      a4:	619d      	str	r5, [r3, #24]
      a6:	fa95 f4a5 	rbit	r4, r5
      aa:	fab4 f484 	clz	r4, r4
}
      ae:	f857 3024 	ldr.w	r3, [r7, r4, lsl #2]
	if (status) {
		gpio[ISR_INDEX] = status;
		while (status) {
			uint32_t index = __builtin_ctz(status);
			table[index]();
			status = status & ~(1 << index);
      b2:	fa06 f404 	lsl.w	r4, r6, r4
			table[index]();
      b6:	4798      	blx	r3
		while (status) {
      b8:	43a5      	bics	r5, r4
      ba:	d1f4      	bne.n	a6 <_teensy_model_identifier+0x82>
{
	irq_anyport(&GPIO6_DR, isr_table_gpio1);
	irq_anyport(&GPIO7_DR, isr_table_gpio2);
	irq_anyport(&GPIO8_DR, isr_table_gpio3);
	irq_anyport(&GPIO9_DR, isr_table_gpio4);
	asm volatile ("dsb":::"memory");
      bc:	f3bf 8f4f 	dsb	sy
}
      c0:	bdf8      	pop	{r3, r4, r5, r6, r7, pc}
      c2:	bf00      	nop
      c4:	200011e0 	.word	0x200011e0
      c8:	42004000 	.word	0x42004000
      cc:	20001260 	.word	0x20001260
      d0:	42008000 	.word	0x42008000
      d4:	200012e0 	.word	0x200012e0
      d8:	4200c000 	.word	0x4200c000
      dc:	20001360 	.word	0x20001360

000000e0 <register_tm_clones>:
		while ((foundAt = strstr(readFrom, find.buffer)) != NULL) {
			unsigned int n = foundAt - readFrom;
			memcpy(writeTo, readFrom, n);
			writeTo += n;
			memcpy(writeTo, replace.buffer, replace.len);
			writeTo += replace.len;
      e0:	4805      	ldr	r0, [pc, #20]	; (f8 <register_tm_clones+0x18>)
			readFrom = foundAt + find.len;
      e2:	4b06      	ldr	r3, [pc, #24]	; (fc <register_tm_clones+0x1c>)
			len += diff;
      e4:	1a1b      	subs	r3, r3, r0
			writeTo += replace.len;
      e6:	0fd9      	lsrs	r1, r3, #31
			readFrom = foundAt + find.len;
      e8:	eb01 01a3 	add.w	r1, r1, r3, asr #2
		while ((foundAt = strstr(readFrom, find.buffer)) != NULL) {
      ec:	1049      	asrs	r1, r1, #1
      ee:	d002      	beq.n	f6 <register_tm_clones+0x16>
      f0:	4b03      	ldr	r3, [pc, #12]	; (100 <register_tm_clones+0x20>)
      f2:	b103      	cbz	r3, f6 <register_tm_clones+0x16>
      f4:	4718      	bx	r3
			memcpy(writeTo, readFrom, n);
      f6:	4770      	bx	lr
      f8:	20001ac0 	.word	0x20001ac0
		while ((foundAt = strstr(readFrom, find.buffer)) != NULL) {
      fc:	20001ac0 	.word	0x20001ac0
		}
		strcpy(writeTo, readFrom);
     100:	00000000 	.word	0x00000000

00000104 <frame_dummy>:
     104:	b508      	push	{r3, lr}
	char *newbuffer = (char *)realloc(buffer, maxStrLen + 1);
     106:	4b05      	ldr	r3, [pc, #20]	; (11c <frame_dummy+0x18>)
     108:	b11b      	cbz	r3, 112 <frame_dummy+0xe>
     10a:	4905      	ldr	r1, [pc, #20]	; (120 <frame_dummy+0x1c>)
     10c:	4805      	ldr	r0, [pc, #20]	; (124 <frame_dummy+0x20>)
     10e:	f3af 8000 	nop.w
	if (newbuffer) {
     112:	e8bd 4008 	ldmia.w	sp!, {r3, lr}
		capacity = maxStrLen;
     116:	f7ff bfe3 	b.w	e0 <register_tm_clones>
		return 1;
     11a:	bf00      	nop
    // frequency error is negative
    efe |= (uint32_t) 0xFFF00000;
    efe = ~efe + 1;
    error = 1.55 * (float) efe / (1600.0 / (float) this->bandwidthKhz) * -1.0;
  } else {
    error = 1.55 * (float) efe / (1600.0 / (float) this->bandwidthKhz);
     11c:	00000000 	.word	0x00000000
     120:	2000212c 	.word	0x2000212c
     124:	6000d000 	.word	0x6000d000

00000128 <setFlag()>:
// flag to indicate that a packet was sent or received
volatile bool operationDone = false;

void setFlag(void) {
  // we sent or received a packet, set the flag
  operationDone = true;
     128:	4b01      	ldr	r3, [pc, #4]	; (130 <setFlag()+0x8>)
     12a:	2201      	movs	r2, #1
     12c:	701a      	strb	r2, [r3, #0]
}
     12e:	4770      	bx	lr
     130:	20002376 	.word	0x20002376

00000134 <_GLOBAL__sub_I_radio>:
      transmissionState = radio.startTransmit("Hello World!");
      transmitFlag = true;
    }
  
  }
}
     134:	b510      	push	{r4, lr}
SX1262 radio = new Module(SX_CS, DIO1, RST, BUSY);
     136:	2048      	movs	r0, #72	; 0x48
}
     138:	b082      	sub	sp, #8
SX1262 radio = new Module(SX_CS, DIO1, RST, BUSY);
     13a:	f006 fb8d 	bl	6858 <operator new(unsigned int)>
     13e:	2108      	movs	r1, #8
     140:	4604      	mov	r4, r0
     142:	2309      	movs	r3, #9
     144:	9100      	str	r1, [sp, #0]
     146:	2215      	movs	r2, #21
     148:	210e      	movs	r1, #14
     14a:	f000 f971 	bl	430 <Module::Module(unsigned long, unsigned long, unsigned long, unsigned long)>
     14e:	4621      	mov	r1, r4
     150:	4802      	ldr	r0, [pc, #8]	; (15c <_GLOBAL__sub_I_radio+0x28>)
}
     152:	b002      	add	sp, #8
     154:	e8bd 4010 	ldmia.w	sp!, {r4, lr}
SX1262 radio = new Module(SX_CS, DIO1, RST, BUSY);
     158:	f001 b82c 	b.w	11b4 <SX1262::SX1262(Module*)>
     15c:	20002144 	.word	0x20002144

00000160 <setup>:
void setup() {
     160:	e92d 43f0 	stmdb	sp!, {r4, r5, r6, r7, r8, r9, lr}
	// is always initialized early during startup.  The baud rate setting
	// is not used.  Communication occurs at USB native speed.  For
	// compatibility with Arduino code, Serial.begin waits up to 2 seconds
	// for your PC to open the virtual serial port.
        void begin(long baud_unused __attribute__((unused))) {
		uint32_t millis_begin = systick_millis_count;
     164:	4d47      	ldr	r5, [pc, #284]	; (284 <setup+0x124>)
     166:	b085      	sub	sp, #20
     168:	4c47      	ldr	r4, [pc, #284]	; (288 <setup+0x128>)
				// Wait up to 2 seconds for Arduino Serial Monitor
				if (elapsed > 2000) break;
			} else {
				// But wait only 3/4 second if there is no sign the
				// USB host has begun the USB enumeration process.
				if (elapsed > 750) break;
     16a:	f240 28ee 	movw	r8, #750	; 0x2ee
	// Testing Serial as a boolean indicates whether USB is active and a program
	// running on your PC has raised the DTR signal, which typically means it has
	// opened the port and is ready to communicate.
        operator bool() {
		yield();
		return usb_configuration && (usb_cdc_line_rtsdtr & USB_SERIAL_DTR) &&
     16e:	4f47      	ldr	r7, [pc, #284]	; (28c <setup+0x12c>)
		((uint32_t)(systick_millis_count - usb_cdc_line_rtsdtr_millis) >= 15);
     170:	f8df 9148 	ldr.w	r9, [pc, #328]	; 2bc <setup+0x15c>
		uint32_t millis_begin = systick_millis_count;
     174:	682e      	ldr	r6, [r5, #0]
		yield();
     176:	f007 fd1b 	bl	7bb0 <yield>
		return usb_configuration && (usb_cdc_line_rtsdtr & USB_SERIAL_DTR) &&
     17a:	7823      	ldrb	r3, [r4, #0]
     17c:	2b00      	cmp	r3, #0
     17e:	d05a      	beq.n	236 <setup+0xd6>
     180:	783b      	ldrb	r3, [r7, #0]
     182:	07db      	lsls	r3, r3, #31
     184:	d557      	bpl.n	236 <setup+0xd6>
		((uint32_t)(systick_millis_count - usb_cdc_line_rtsdtr_millis) >= 15);
     186:	682b      	ldr	r3, [r5, #0]
     188:	f8d9 2000 	ldr.w	r2, [r9]
     18c:	1a9b      	subs	r3, r3, r2
		return usb_configuration && (usb_cdc_line_rtsdtr & USB_SERIAL_DTR) &&
     18e:	2b0e      	cmp	r3, #14
     190:	d951      	bls.n	236 <setup+0xd6>
        virtual size_t write(const uint8_t *buffer, size_t size) { return usb_serial_write(buffer, size); }
     192:	211a      	movs	r1, #26
     194:	483e      	ldr	r0, [pc, #248]	; (290 <setup+0x130>)
     196:	f007 fc8d 	bl	7ab4 <usb_serial_write>
  int state = radio.begin();
     19a:	2508      	movs	r5, #8
     19c:	2100      	movs	r1, #0
     19e:	200a      	movs	r0, #10
     1a0:	ed9f 1a3c 	vldr	s2, [pc, #240]	; 294 <setup+0x134>
     1a4:	2312      	movs	r3, #18
     1a6:	9102      	str	r1, [sp, #8]
     1a8:	2207      	movs	r2, #7
     1aa:	eddf 0a3b 	vldr	s1, [pc, #236]	; 298 <setup+0x138>
     1ae:	2109      	movs	r1, #9
     1b0:	ed9f 0a3a 	vldr	s0, [pc, #232]	; 29c <setup+0x13c>
     1b4:	e9cd 0500 	strd	r0, r5, [sp]
     1b8:	4839      	ldr	r0, [pc, #228]	; (2a0 <setup+0x140>)
     1ba:	f001 f80b 	bl	11d4 <SX1262::begin(float, float, unsigned char, unsigned char, unsigned char, signed char, unsigned short, float, bool)>
  if (state == RADIOLIB_ERR_NONE) {
     1be:	4604      	mov	r4, r0
     1c0:	2800      	cmp	r0, #0
     1c2:	d145      	bne.n	250 <setup+0xf0>
     1c4:	4629      	mov	r1, r5
     1c6:	4837      	ldr	r0, [pc, #220]	; (2a4 <setup+0x144>)
     1c8:	f007 fc74 	bl	7ab4 <usb_serial_write>
	// Print a single character and newline
	size_t println(char c)				{ return print(c) + println(); }
	// Print a string and newline
	size_t println(const char s[])			{ return print(s) + println(); }
	// Print a string and newline
	size_t println(const __FlashStringHelper *f)	{ return print(f) + println(); }
     1cc:	4836      	ldr	r0, [pc, #216]	; (2a8 <setup+0x148>)
     1ce:	f005 fca3 	bl	5b18 <Print::println()>
  radio.setDio1Action(setFlag);
     1d2:	4936      	ldr	r1, [pc, #216]	; (2ac <setup+0x14c>)
     1d4:	4832      	ldr	r0, [pc, #200]	; (2a0 <setup+0x140>)
     1d6:	f002 fa8b 	bl	26f0 <SX126x::setDio1Action(void (*)())>
  radio.setRfSwitchPins(RX_EN, TX_EN);
     1da:	2211      	movs	r2, #17
     1dc:	2110      	movs	r1, #16
     1de:	4830      	ldr	r0, [pc, #192]	; (2a0 <setup+0x140>)
     1e0:	f002 fd64 	bl	2cac <SX126x::setRfSwitchPins(unsigned long, unsigned long)>
  radio.setFrequency(915.0);
     1e4:	ed9f 0a32 	vldr	s0, [pc, #200]	; 2b0 <setup+0x150>
     1e8:	482d      	ldr	r0, [pc, #180]	; (2a0 <setup+0x140>)
     1ea:	f000 ffa7 	bl	113c <SX1262::setFrequency(float)>
  radio.setOutputPower(22);
     1ee:	2116      	movs	r1, #22
     1f0:	482b      	ldr	r0, [pc, #172]	; (2a0 <setup+0x140>)
     1f2:	f000 ff61 	bl	10b8 <SX1262::setOutputPower(signed char)>
  radio.setCodingRate(5);
     1f6:	2105      	movs	r1, #5
     1f8:	4829      	ldr	r0, [pc, #164]	; (2a0 <setup+0x140>)
     1fa:	f003 f961 	bl	34c0 <SX126x::setCodingRate(unsigned char)>
  radio.setSpreadingFactor(8);
     1fe:	4629      	mov	r1, r5
     200:	4827      	ldr	r0, [pc, #156]	; (2a0 <setup+0x140>)
     202:	f003 f92f 	bl	3464 <SX126x::setSpreadingFactor(unsigned char)>
     206:	2120      	movs	r1, #32
     208:	482a      	ldr	r0, [pc, #168]	; (2b4 <setup+0x154>)
     20a:	f007 fc53 	bl	7ab4 <usb_serial_write>
    state = radio.startReceive();
     20e:	4824      	ldr	r0, [pc, #144]	; (2a0 <setup+0x140>)
     210:	f004 f828 	bl	4264 <SX126x::startReceive()>
    if (state == RADIOLIB_ERR_NONE) {
     214:	4604      	mov	r4, r0
     216:	b350      	cbz	r0, 26e <setup+0x10e>
     218:	210d      	movs	r1, #13
     21a:	4827      	ldr	r0, [pc, #156]	; (2b8 <setup+0x158>)
     21c:	f007 fc4a 	bl	7ab4 <usb_serial_write>
	size_t print(int n)				{ return print((long)n); }
     220:	4621      	mov	r1, r4
     222:	4821      	ldr	r0, [pc, #132]	; (2a8 <setup+0x148>)
     224:	f005 fc6c 	bl	5b00 <Print::print(long)>

	// Print an unsigned number and newline
	size_t println(uint8_t b)			{ return print(b) + println(); }
	// Print a signed number and newline
	size_t println(int n)				{ return print(n) + println(); }
     228:	481f      	ldr	r0, [pc, #124]	; (2a8 <setup+0x148>)
     22a:	f005 fc75 	bl	5b18 <Print::println()>
      while (true) { delay(10); }
     22e:	200a      	movs	r0, #10
     230:	f006 f86e 	bl	6310 <delay>
     234:	e7fb      	b.n	22e <setup+0xce>
			uint32_t elapsed = systick_millis_count - millis_begin;
     236:	682b      	ldr	r3, [r5, #0]
			if (usb_configuration) {
     238:	7822      	ldrb	r2, [r4, #0]
			uint32_t elapsed = systick_millis_count - millis_begin;
     23a:	1b9b      	subs	r3, r3, r6
			if (usb_configuration) {
     23c:	b12a      	cbz	r2, 24a <setup+0xea>
				if (elapsed > 2000) break;
     23e:	f5b3 6ffa 	cmp.w	r3, #2000	; 0x7d0
     242:	d8a6      	bhi.n	192 <setup+0x32>
			yield();
     244:	f007 fcb4 	bl	7bb0 <yield>
     248:	e795      	b.n	176 <setup+0x16>
				if (elapsed > 750) break;
     24a:	4543      	cmp	r3, r8
     24c:	d9fa      	bls.n	244 <setup+0xe4>
     24e:	e7a0      	b.n	192 <setup+0x32>
        virtual size_t write(const uint8_t *buffer, size_t size) { return usb_serial_write(buffer, size); }
     250:	210d      	movs	r1, #13
     252:	4819      	ldr	r0, [pc, #100]	; (2b8 <setup+0x158>)
     254:	f007 fc2e 	bl	7ab4 <usb_serial_write>
	size_t print(int n)				{ return print((long)n); }
     258:	4621      	mov	r1, r4
     25a:	4813      	ldr	r0, [pc, #76]	; (2a8 <setup+0x148>)
     25c:	f005 fc50 	bl	5b00 <Print::print(long)>
	size_t println(int n)				{ return print(n) + println(); }
     260:	4811      	ldr	r0, [pc, #68]	; (2a8 <setup+0x148>)
     262:	f005 fc59 	bl	5b18 <Print::println()>
    while (true) { delay(10); }
     266:	200a      	movs	r0, #10
     268:	f006 f852 	bl	6310 <delay>
     26c:	e7fb      	b.n	266 <setup+0x106>
     26e:	4629      	mov	r1, r5
     270:	480c      	ldr	r0, [pc, #48]	; (2a4 <setup+0x144>)
     272:	f007 fc1f 	bl	7ab4 <usb_serial_write>
	size_t println(const __FlashStringHelper *f)	{ return print(f) + println(); }
     276:	480c      	ldr	r0, [pc, #48]	; (2a8 <setup+0x148>)
}
     278:	b005      	add	sp, #20
     27a:	e8bd 43f0 	ldmia.w	sp!, {r4, r5, r6, r7, r8, r9, lr}
     27e:	f005 bc4b 	b.w	5b18 <Print::println()>
     282:	bf00      	nop
     284:	2000234c 	.word	0x2000234c
     288:	2000237f 	.word	0x2000237f
     28c:	2000237e 	.word	0x2000237e
     290:	20000ad4 	.word	0x20000ad4
     294:	3fcccccd 	.word	0x3fcccccd
     298:	42fa0000 	.word	0x42fa0000
     29c:	43d90000 	.word	0x43d90000
     2a0:	20002144 	.word	0x20002144
     2a4:	20000af0 	.word	0x20000af0
     2a8:	20000d30 	.word	0x20000d30
     2ac:	00000129 	.word	0x00000129
     2b0:	4464c000 	.word	0x4464c000
     2b4:	20000afc 	.word	0x20000afc
     2b8:	20000b20 	.word	0x20000b20
     2bc:	20002360 	.word	0x20002360

000002c0 <loop>:
  if(operationDone) {
     2c0:	4b41      	ldr	r3, [pc, #260]	; (3c8 <loop+0x108>)
     2c2:	781a      	ldrb	r2, [r3, #0]
     2c4:	b1da      	cbz	r2, 2fe <loop+0x3e>
    operationDone = false;
     2c6:	2200      	movs	r2, #0
void loop() {
     2c8:	b530      	push	{r4, r5, lr}
    if(transmitFlag) {
     2ca:	4c40      	ldr	r4, [pc, #256]	; (3cc <loop+0x10c>)
void loop() {
     2cc:	b085      	sub	sp, #20
    operationDone = false;
     2ce:	701a      	strb	r2, [r3, #0]
    if(transmitFlag) {
     2d0:	7825      	ldrb	r5, [r4, #0]
     2d2:	b1ed      	cbz	r5, 310 <loop+0x50>
      if (transmissionState == RADIOLIB_ERR_NONE) {
     2d4:	4d3e      	ldr	r5, [pc, #248]	; (3d0 <loop+0x110>)
     2d6:	682b      	ldr	r3, [r5, #0]
     2d8:	b193      	cbz	r3, 300 <loop+0x40>
     2da:	210d      	movs	r1, #13
     2dc:	483d      	ldr	r0, [pc, #244]	; (3d4 <loop+0x114>)
     2de:	f007 fbe9 	bl	7ab4 <usb_serial_write>
	size_t print(int n)				{ return print((long)n); }
     2e2:	6829      	ldr	r1, [r5, #0]
     2e4:	483c      	ldr	r0, [pc, #240]	; (3d8 <loop+0x118>)
     2e6:	f005 fc0b 	bl	5b00 <Print::print(long)>
	size_t println(int n)				{ return print(n) + println(); }
     2ea:	483b      	ldr	r0, [pc, #236]	; (3d8 <loop+0x118>)
     2ec:	f005 fc14 	bl	5b18 <Print::println()>
      radio.startReceive();
     2f0:	483a      	ldr	r0, [pc, #232]	; (3dc <loop+0x11c>)
     2f2:	f003 ffb7 	bl	4264 <SX126x::startReceive()>
      transmitFlag = false;
     2f6:	2300      	movs	r3, #0
     2f8:	7023      	strb	r3, [r4, #0]
}
     2fa:	b005      	add	sp, #20
     2fc:	bd30      	pop	{r4, r5, pc}
     2fe:	4770      	bx	lr
     300:	2116      	movs	r1, #22
     302:	4837      	ldr	r0, [pc, #220]	; (3e0 <loop+0x120>)
     304:	f007 fbd6 	bl	7ab4 <usb_serial_write>
	size_t println(const __FlashStringHelper *f)	{ return print(f) + println(); }
     308:	4833      	ldr	r0, [pc, #204]	; (3d8 <loop+0x118>)
     30a:	f005 fc05 	bl	5b18 <Print::println()>
     30e:	e7ef      	b.n	2f0 <loop+0x30>
      String str;
     310:	4629      	mov	r1, r5
     312:	a801      	add	r0, sp, #4
     314:	f005 fe2c 	bl	5f70 <String::String(char const*)>
      int state = radio.readData(str);
     318:	462a      	mov	r2, r5
     31a:	a901      	add	r1, sp, #4
     31c:	482f      	ldr	r0, [pc, #188]	; (3dc <loop+0x11c>)
     31e:	f004 ff67 	bl	51f0 <PhysicalLayer::readData(String&, unsigned int)>
      if (state == RADIOLIB_ERR_NONE) {
     322:	b1b0      	cbz	r0, 352 <loop+0x92>
      delay(1000);
     324:	f44f 707a 	mov.w	r0, #1000	; 0x3e8
     328:	f005 fff2 	bl	6310 <delay>
     32c:	2124      	movs	r1, #36	; 0x24
     32e:	482d      	ldr	r0, [pc, #180]	; (3e4 <loop+0x124>)
     330:	f007 fbc0 	bl	7ab4 <usb_serial_write>
      transmissionState = radio.startTransmit("Hello World!");
     334:	2200      	movs	r2, #0
     336:	492c      	ldr	r1, [pc, #176]	; (3e8 <loop+0x128>)
     338:	4828      	ldr	r0, [pc, #160]	; (3dc <loop+0x11c>)
     33a:	f004 ff3d 	bl	51b8 <PhysicalLayer::startTransmit(char const*, unsigned char)>
     33e:	4a24      	ldr	r2, [pc, #144]	; (3d0 <loop+0x110>)
     340:	4601      	mov	r1, r0
      transmitFlag = true;
     342:	2301      	movs	r3, #1
    }
     344:	a801      	add	r0, sp, #4
      transmissionState = radio.startTransmit("Hello World!");
     346:	6011      	str	r1, [r2, #0]
      transmitFlag = true;
     348:	7023      	strb	r3, [r4, #0]
    }
     34a:	f005 fe2f 	bl	5fac <String::~String()>
}
     34e:	b005      	add	sp, #20
     350:	bd30      	pop	{r4, r5, pc}
     352:	2119      	movs	r1, #25
     354:	4825      	ldr	r0, [pc, #148]	; (3ec <loop+0x12c>)
     356:	f007 fbad 	bl	7ab4 <usb_serial_write>
     35a:	481f      	ldr	r0, [pc, #124]	; (3d8 <loop+0x118>)
     35c:	f005 fbdc 	bl	5b18 <Print::println()>
     360:	2110      	movs	r1, #16
     362:	4823      	ldr	r0, [pc, #140]	; (3f0 <loop+0x130>)
     364:	f007 fba6 	bl	7ab4 <usb_serial_write>
	size_t println(const String &s)			{ return print(s) + println(); }
     368:	a901      	add	r1, sp, #4
     36a:	481b      	ldr	r0, [pc, #108]	; (3d8 <loop+0x118>)
     36c:	f005 fba2 	bl	5ab4 <Print::print(String const&)>
     370:	4819      	ldr	r0, [pc, #100]	; (3d8 <loop+0x118>)
     372:	f005 fbd1 	bl	5b18 <Print::println()>
     376:	2110      	movs	r1, #16
     378:	481e      	ldr	r0, [pc, #120]	; (3f4 <loop+0x134>)
     37a:	f007 fb9b 	bl	7ab4 <usb_serial_write>
        Serial.print(radio.getRSSI());
     37e:	4817      	ldr	r0, [pc, #92]	; (3dc <loop+0x11c>)
     380:	f001 f98e 	bl	16a0 <SX126x::getRSSI()>
	size_t print(double n, int digits = 2)		{ return printFloat(n, digits); }
     384:	2102      	movs	r1, #2
     386:	eeb7 0ac0 	vcvt.f64.f32	d0, s0
     38a:	4813      	ldr	r0, [pc, #76]	; (3d8 <loop+0x118>)
     38c:	f005 fbd4 	bl	5b38 <Print::printFloat(double, unsigned char)>
     390:	2104      	movs	r1, #4
     392:	4819      	ldr	r0, [pc, #100]	; (3f8 <loop+0x138>)
     394:	f007 fb8e 	bl	7ab4 <usb_serial_write>
	size_t println(const __FlashStringHelper *f)	{ return print(f) + println(); }
     398:	480f      	ldr	r0, [pc, #60]	; (3d8 <loop+0x118>)
     39a:	f005 fbbd 	bl	5b18 <Print::println()>
     39e:	210f      	movs	r1, #15
     3a0:	4816      	ldr	r0, [pc, #88]	; (3fc <loop+0x13c>)
     3a2:	f007 fb87 	bl	7ab4 <usb_serial_write>
        Serial.print(radio.getSNR());
     3a6:	480d      	ldr	r0, [pc, #52]	; (3dc <loop+0x11c>)
     3a8:	f001 fb6c 	bl	1a84 <SX126x::getSNR()>
	size_t print(double n, int digits = 2)		{ return printFloat(n, digits); }
     3ac:	2102      	movs	r1, #2
     3ae:	eeb7 0ac0 	vcvt.f64.f32	d0, s0
     3b2:	4809      	ldr	r0, [pc, #36]	; (3d8 <loop+0x118>)
     3b4:	f005 fbc0 	bl	5b38 <Print::printFloat(double, unsigned char)>
     3b8:	2103      	movs	r1, #3
     3ba:	4811      	ldr	r0, [pc, #68]	; (400 <loop+0x140>)
     3bc:	f007 fb7a 	bl	7ab4 <usb_serial_write>
	size_t println(const __FlashStringHelper *f)	{ return print(f) + println(); }
     3c0:	4805      	ldr	r0, [pc, #20]	; (3d8 <loop+0x118>)
     3c2:	f005 fba9 	bl	5b18 <Print::println()>
     3c6:	e7ad      	b.n	324 <loop+0x64>
     3c8:	20002376 	.word	0x20002376
     3cc:	2000237a 	.word	0x2000237a
     3d0:	20002354 	.word	0x20002354
     3d4:	20000b20 	.word	0x20000b20
     3d8:	20000d30 	.word	0x20000d30
     3dc:	20002144 	.word	0x20002144
     3e0:	20000a24 	.word	0x20000a24
     3e4:	20000a9c 	.word	0x20000a9c
     3e8:	20000ac4 	.word	0x20000ac4
     3ec:	20000a3c 	.word	0x20000a3c
     3f0:	20000a58 	.word	0x20000a58
     3f4:	20000a6c 	.word	0x20000a6c
     3f8:	20000a80 	.word	0x20000a80
     3fc:	20000a88 	.word	0x20000a88
     400:	20000a98 	.word	0x20000a98

00000404 <RadioLibHal::init()>:
      GpioInterruptRising(rising),
      GpioInterruptFalling(falling) {}

void RadioLibHal::init() {

}
     404:	4770      	bx	lr
     406:	bf00      	nop

00000408 <RadioLibHal::tone(unsigned long, unsigned int, unsigned long)>:

void RadioLibHal::tone(uint32_t pin, unsigned int frequency, RadioLibTime_t duration) {
  (void)pin;
  (void)frequency;
  (void)duration;
}
     408:	4770      	bx	lr
     40a:	bf00      	nop

0000040c <RadioLibHal::noTone(unsigned long)>:

void RadioLibHal::noTone(uint32_t pin) {
  (void)pin;
}
     40c:	4770      	bx	lr
     40e:	bf00      	nop

00000410 <RadioLibHal::pinToInterrupt(unsigned long)>:

}

uint32_t RadioLibHal::pinToInterrupt(uint32_t pin) {
  return(pin);
}
     410:	4608      	mov	r0, r1
     412:	4770      	bx	lr

00000414 <RadioLibHal::RadioLibHal(unsigned long, unsigned long, unsigned long, unsigned long, unsigned long, unsigned long)>:
      GpioLevelLow(low),
     414:	60c3      	str	r3, [r0, #12]
RadioLibHal::RadioLibHal(const uint32_t input, const uint32_t output, const uint32_t low, const uint32_t high, const uint32_t rising, const uint32_t falling)
     416:	9b00      	ldr	r3, [sp, #0]
      GpioModeOutput(output),
     418:	e9c0 1201 	strd	r1, r2, [r0, #4]
      GpioLevelHigh(high),
     41c:	6103      	str	r3, [r0, #16]
      GpioInterruptFalling(falling) {}
     41e:	4a03      	ldr	r2, [pc, #12]	; (42c <RadioLibHal::RadioLibHal(unsigned long, unsigned long, unsigned long, unsigned long, unsigned long, unsigned long)+0x18>)
RadioLibHal::RadioLibHal(const uint32_t input, const uint32_t output, const uint32_t low, const uint32_t high, const uint32_t rising, const uint32_t falling)
     420:	e9dd 1301 	ldrd	r1, r3, [sp, #4]
      GpioInterruptFalling(falling) {}
     424:	6002      	str	r2, [r0, #0]
      GpioInterruptRising(rising),
     426:	6141      	str	r1, [r0, #20]
      GpioInterruptFalling(falling) {}
     428:	6183      	str	r3, [r0, #24]
     42a:	4770      	bx	lr
     42c:	20000490 	.word	0x20000490

00000430 <Module::Module(unsigned long, unsigned long, unsigned long, unsigned long)>:
Module::Module(uint32_t cs, uint32_t irq, uint32_t rst, uint32_t gpio) : csPin(cs), irqPin(irq), rstPin(rst), gpioPin(gpio) {
     430:	e92d 47f0 	stmdb	sp!, {r4, r5, r6, r7, r8, r9, sl, lr}
     434:	461f      	mov	r7, r3
     436:	4b15      	ldr	r3, [pc, #84]	; (48c <Module::Module(unsigned long, unsigned long, unsigned long, unsigned long)+0x5c>)
     438:	4604      	mov	r4, r0
     43a:	4689      	mov	r9, r1
     43c:	469c      	mov	ip, r3
     43e:	4690      	mov	r8, r2
     440:	2600      	movs	r6, #0
     442:	4686      	mov	lr, r0
     444:	f103 0a1c 	add.w	sl, r3, #28
     448:	f100 0530 	add.w	r5, r0, #48	; 0x30
     44c:	f84e 6b04 	str.w	r6, [lr], #4
     450:	e8bc 000f 	ldmia.w	ip!, {r0, r1, r2, r3}
     454:	e8ae 000f 	stmia.w	lr!, {r0, r1, r2, r3}
     458:	e89c 0007 	ldmia.w	ip, {r0, r1, r2}
     45c:	9b08      	ldr	r3, [sp, #32]
     45e:	e88e 0007 	stmia.w	lr, {r0, r1, r2}
     462:	62e3      	str	r3, [r4, #44]	; 0x2c
     464:	62a7      	str	r7, [r4, #40]	; 0x28
     466:	e8ba 000f 	ldmia.w	sl!, {r0, r1, r2, r3}
     46a:	e9c4 9808 	strd	r9, r8, [r4, #32]
     46e:	c50f      	stmia	r5!, {r0, r1, r2, r3}
     470:	f8da 3000 	ldr.w	r3, [sl]
  this->hal = new ArduinoHal();
     474:	202c      	movs	r0, #44	; 0x2c
Module::Module(uint32_t cs, uint32_t irq, uint32_t rst, uint32_t gpio) : csPin(cs), irqPin(irq), rstPin(rst), gpioPin(gpio) {
     476:	602b      	str	r3, [r5, #0]
     478:	6466      	str	r6, [r4, #68]	; 0x44
  this->hal = new ArduinoHal();
     47a:	f006 f9ed 	bl	6858 <operator new(unsigned int)>
     47e:	4605      	mov	r5, r0
     480:	f000 fde4 	bl	104c <ArduinoHal::ArduinoHal()>
}
     484:	4620      	mov	r0, r4
  this->hal = new ArduinoHal();
     486:	6025      	str	r5, [r4, #0]
}
     488:	e8bd 87f0 	ldmia.w	sp!, {r4, r5, r6, r7, r8, r9, sl, pc}
     48c:	20000280 	.word	0x20000280

00000490 <Module::init()>:
  return(*this);
}

static volatile const char info[] = RADIOLIB_INFO;
void Module::init() {
     490:	b510      	push	{r4, lr}
     492:	4604      	mov	r4, r0
  this->hal->init();
     494:	6800      	ldr	r0, [r0, #0]
     496:	6803      	ldr	r3, [r0, #0]
     498:	6bdb      	ldr	r3, [r3, #60]	; 0x3c
     49a:	4798      	blx	r3
  this->hal->pinMode(csPin, this->hal->GpioModeOutput);
     49c:	6820      	ldr	r0, [r4, #0]
     49e:	6a21      	ldr	r1, [r4, #32]
     4a0:	6803      	ldr	r3, [r0, #0]
     4a2:	6882      	ldr	r2, [r0, #8]
     4a4:	681b      	ldr	r3, [r3, #0]
     4a6:	4798      	blx	r3
  this->hal->digitalWrite(csPin, this->hal->GpioLevelHigh);
     4a8:	6820      	ldr	r0, [r4, #0]
     4aa:	6a21      	ldr	r1, [r4, #32]
     4ac:	6803      	ldr	r3, [r0, #0]
     4ae:	6902      	ldr	r2, [r0, #16]
     4b0:	685b      	ldr	r3, [r3, #4]
  RADIOLIB_DEBUG_BASIC_PRINTLN(RADIOLIB_INFO);
}
     4b2:	e8bd 4010 	ldmia.w	sp!, {r4, lr}
  this->hal->digitalWrite(csPin, this->hal->GpioLevelHigh);
     4b6:	4718      	bx	r3

000004b8 <Module::term()>:

void Module::term() {
  // stop hardware interfaces (if they were initialized by the library)
  this->hal->term();
     4b8:	6800      	ldr	r0, [r0, #0]
     4ba:	6803      	ldr	r3, [r0, #0]
     4bc:	6c1b      	ldr	r3, [r3, #64]	; 0x40
     4be:	4718      	bx	r3

000004c0 <Module::SPItransfer(unsigned short, unsigned long, unsigned char*, unsigned char*, unsigned int)>:
    }
    SPItransferStream(cmd, this->spiConfig.widths[RADIOLIB_MODULE_SPI_WIDTH_CMD]/8 + this->spiConfig.widths[RADIOLIB_MODULE_SPI_WIDTH_ADDR]/8, true, &data, NULL, 1, true);
  }
}

void Module::SPItransfer(uint16_t cmd, uint32_t reg, uint8_t* dataOut, uint8_t* dataIn, size_t numBytes) {
     4c0:	e92d 4ff0 	stmdb	sp!, {r4, r5, r6, r7, r8, r9, sl, fp, lr}
     4c4:	b083      	sub	sp, #12
  // prepare the buffers
  size_t buffLen = this->spiConfig.widths[RADIOLIB_MODULE_SPI_WIDTH_CMD]/8 + this->spiConfig.widths[RADIOLIB_MODULE_SPI_WIDTH_ADDR]/8 + numBytes;
     4c6:	7c05      	ldrb	r5, [r0, #16]
void Module::SPItransfer(uint16_t cmd, uint32_t reg, uint8_t* dataOut, uint8_t* dataIn, size_t numBytes) {
     4c8:	4698      	mov	r8, r3
     4ca:	4604      	mov	r4, r0
     4cc:	9b0c      	ldr	r3, [sp, #48]	; 0x30
  size_t buffLen = this->spiConfig.widths[RADIOLIB_MODULE_SPI_WIDTH_CMD]/8 + this->spiConfig.widths[RADIOLIB_MODULE_SPI_WIDTH_ADDR]/8 + numBytes;
     4ce:	08ed      	lsrs	r5, r5, #3
void Module::SPItransfer(uint16_t cmd, uint32_t reg, uint8_t* dataOut, uint8_t* dataIn, size_t numBytes) {
     4d0:	f8dd a034 	ldr.w	sl, [sp, #52]	; 0x34
     4d4:	460f      	mov	r7, r1
     4d6:	9301      	str	r3, [sp, #4]
     4d8:	4691      	mov	r9, r2
  size_t buffLen = this->spiConfig.widths[RADIOLIB_MODULE_SPI_WIDTH_CMD]/8 + this->spiConfig.widths[RADIOLIB_MODULE_SPI_WIDTH_ADDR]/8 + numBytes;
     4da:	7c43      	ldrb	r3, [r0, #17]
     4dc:	eb05 05d3 	add.w	r5, r5, r3, lsr #3
     4e0:	4455      	add	r5, sl
  #if RADIOLIB_STATIC_ONLY
    uint8_t buffOut[RADIOLIB_STATIC_ARRAY_SIZE];
    uint8_t buffIn[RADIOLIB_STATIC_ARRAY_SIZE];
  #else
    uint8_t* buffOut = new uint8_t[buffLen];
     4e2:	4628      	mov	r0, r5
     4e4:	f006 f9ba 	bl	685c <operator new[](unsigned int)>
     4e8:	4606      	mov	r6, r0
    uint8_t* buffIn = new uint8_t[buffLen];
     4ea:	4628      	mov	r0, r5
     4ec:	f006 f9b6 	bl	685c <operator new[](unsigned int)>
  #endif
  uint8_t* buffOutPtr = buffOut;

  // copy the command
  // TODO properly handle variable commands and addresses
  if(this->spiConfig.widths[RADIOLIB_MODULE_SPI_WIDTH_ADDR] <= 8) {
     4f0:	7c23      	ldrb	r3, [r4, #16]
    uint8_t* buffIn = new uint8_t[buffLen];
     4f2:	4683      	mov	fp, r0
  if(this->spiConfig.widths[RADIOLIB_MODULE_SPI_WIDTH_ADDR] <= 8) {
     4f4:	2b08      	cmp	r3, #8
     4f6:	d832      	bhi.n	55e <Module::SPItransfer(unsigned short, unsigned long, unsigned char*, unsigned char*, unsigned int)+0x9e>
    *(buffOutPtr++) = (reg >> 8) | cmd;
    *(buffOutPtr++) = reg & 0xFF;
  }

  // copy the data
  if(cmd == spiConfig.cmds[RADIOLIB_MODULE_SPI_COMMAND_WRITE]) {
     4f8:	8963      	ldrh	r3, [r4, #10]
    *(buffOutPtr++) = reg | cmd;
     4fa:	ea47 0209 	orr.w	r2, r7, r9
     4fe:	4630      	mov	r0, r6
  if(cmd == spiConfig.cmds[RADIOLIB_MODULE_SPI_COMMAND_WRITE]) {
     500:	42bb      	cmp	r3, r7
    *(buffOutPtr++) = reg | cmd;
     502:	f800 2b01 	strb.w	r2, [r0], #1
  if(cmd == spiConfig.cmds[RADIOLIB_MODULE_SPI_COMMAND_WRITE]) {
     506:	d034      	beq.n	572 <Module::SPItransfer(unsigned short, unsigned long, unsigned char*, unsigned char*, unsigned int)+0xb2>
    memcpy(buffOutPtr, dataOut, numBytes);
  } else {
    memset(buffOutPtr, this->spiConfig.cmds[RADIOLIB_MODULE_SPI_COMMAND_NOP], numBytes);
     508:	4652      	mov	r2, sl
     50a:	89a1      	ldrh	r1, [r4, #12]
     50c:	f008 f888 	bl	8620 <memset>
  }

  // do the transfer
  this->hal->spiBeginTransaction();
     510:	6820      	ldr	r0, [r4, #0]
     512:	6803      	ldr	r3, [r0, #0]
     514:	6adb      	ldr	r3, [r3, #44]	; 0x2c
     516:	4798      	blx	r3
  this->hal->digitalWrite(this->csPin, this->hal->GpioLevelLow);
     518:	6820      	ldr	r0, [r4, #0]
     51a:	6a21      	ldr	r1, [r4, #32]
     51c:	6803      	ldr	r3, [r0, #0]
     51e:	68c2      	ldr	r2, [r0, #12]
     520:	685b      	ldr	r3, [r3, #4]
     522:	4798      	blx	r3
  this->hal->spiTransfer(buffOut, buffLen, buffIn);
     524:	6820      	ldr	r0, [r4, #0]
     526:	462a      	mov	r2, r5
     528:	465b      	mov	r3, fp
     52a:	6805      	ldr	r5, [r0, #0]
     52c:	4631      	mov	r1, r6
     52e:	6b2d      	ldr	r5, [r5, #48]	; 0x30
     530:	47a8      	blx	r5
  this->hal->digitalWrite(this->csPin, this->hal->GpioLevelHigh);
     532:	6820      	ldr	r0, [r4, #0]
     534:	6a21      	ldr	r1, [r4, #32]
     536:	6803      	ldr	r3, [r0, #0]
     538:	6902      	ldr	r2, [r0, #16]
     53a:	685b      	ldr	r3, [r3, #4]
     53c:	4798      	blx	r3
  this->hal->spiEndTransaction();
     53e:	6820      	ldr	r0, [r4, #0]
     540:	6803      	ldr	r3, [r0, #0]
     542:	6b5b      	ldr	r3, [r3, #52]	; 0x34
     544:	4798      	blx	r3
  
  // copy the data
  if(cmd == spiConfig.cmds[RADIOLIB_MODULE_SPI_COMMAND_READ]) {
     546:	8923      	ldrh	r3, [r4, #8]
     548:	42bb      	cmp	r3, r7
     54a:	d017      	beq.n	57c <Module::SPItransfer(unsigned short, unsigned long, unsigned char*, unsigned char*, unsigned int)+0xbc>
    }
    RADIOLIB_DEBUG_SPI_PRINTLN_NOTAG();
  #endif

  #if !RADIOLIB_STATIC_ONLY
    delete[] buffOut;
     54c:	4630      	mov	r0, r6
     54e:	f006 f987 	bl	6860 <operator delete[](void*)>
    delete[] buffIn;
     552:	4658      	mov	r0, fp
  #endif
}
     554:	b003      	add	sp, #12
     556:	e8bd 4ff0 	ldmia.w	sp!, {r4, r5, r6, r7, r8, r9, sl, fp, lr}
    delete[] buffIn;
     55a:	f006 b981 	b.w	6860 <operator delete[](void*)>
    *(buffOutPtr++) = (reg >> 8) | cmd;
     55e:	ea47 2319 	orr.w	r3, r7, r9, lsr #8
     562:	4630      	mov	r0, r6
     564:	f800 3b02 	strb.w	r3, [r0], #2
  if(cmd == spiConfig.cmds[RADIOLIB_MODULE_SPI_COMMAND_WRITE]) {
     568:	8963      	ldrh	r3, [r4, #10]
    *(buffOutPtr++) = reg & 0xFF;
     56a:	f886 9001 	strb.w	r9, [r6, #1]
  if(cmd == spiConfig.cmds[RADIOLIB_MODULE_SPI_COMMAND_WRITE]) {
     56e:	42bb      	cmp	r3, r7
     570:	d1ca      	bne.n	508 <Module::SPItransfer(unsigned short, unsigned long, unsigned char*, unsigned char*, unsigned int)+0x48>
    memcpy(buffOutPtr, dataOut, numBytes);
     572:	4641      	mov	r1, r8
     574:	4652      	mov	r2, sl
     576:	f006 f8d5 	bl	6724 <memcpy>
     57a:	e7c9      	b.n	510 <Module::SPItransfer(unsigned short, unsigned long, unsigned char*, unsigned char*, unsigned int)+0x50>
    memcpy(dataIn, &buffIn[this->spiConfig.widths[RADIOLIB_MODULE_SPI_WIDTH_ADDR]/8], numBytes);
     57c:	7c21      	ldrb	r1, [r4, #16]
     57e:	4652      	mov	r2, sl
     580:	9801      	ldr	r0, [sp, #4]
     582:	eb0b 01d1 	add.w	r1, fp, r1, lsr #3
     586:	f006 f8cd 	bl	6724 <memcpy>
     58a:	e7df      	b.n	54c <Module::SPItransfer(unsigned short, unsigned long, unsigned char*, unsigned char*, unsigned int)+0x8c>

0000058c <Module::SPItransferStream(unsigned char const*, unsigned char, bool, unsigned char*, unsigned char*, unsigned int, bool)>:
  #endif

  return(state);
}

int16_t Module::SPItransferStream(const uint8_t* cmd, uint8_t cmdLen, bool write, uint8_t* dataOut, uint8_t* dataIn, size_t numBytes, bool waitForGpio) {
     58c:	e92d 4ff8 	stmdb	sp!, {r3, r4, r5, r6, r7, r8, r9, sl, fp, lr}
     590:	f8dd a030 	ldr.w	sl, [sp, #48]	; 0x30
     594:	4615      	mov	r5, r2
     596:	4604      	mov	r4, r0
     598:	460f      	mov	r7, r1
     59a:	f89d b034 	ldrb.w	fp, [sp, #52]	; 0x34
  // prepare the output buffer
  size_t buffLen = cmdLen + numBytes;
     59e:	eb02 090a 	add.w	r9, r2, sl
  if(!write) {
     5a2:	4698      	mov	r8, r3
     5a4:	2b00      	cmp	r3, #0
     5a6:	f040 808f 	bne.w	6c8 <Module::SPItransferStream(unsigned char const*, unsigned char, bool, unsigned char*, unsigned char*, unsigned int, bool)+0x13c>
    buffLen += (this->spiConfig.widths[RADIOLIB_MODULE_SPI_WIDTH_STATUS] / 8);
     5aa:	7c83      	ldrb	r3, [r0, #18]
     5ac:	eb09 09d3 	add.w	r9, r9, r3, lsr #3
  }
  #if RADIOLIB_STATIC_ONLY
    uint8_t buffOut[RADIOLIB_STATIC_ARRAY_SIZE];
  #else
    uint8_t* buffOut = new uint8_t[buffLen];
     5b0:	4648      	mov	r0, r9
     5b2:	f006 f953 	bl	685c <operator new[](unsigned int)>
     5b6:	4606      	mov	r6, r0
  #endif
  uint8_t* buffOutPtr = buffOut;

  // copy the command
  for(uint8_t n = 0; n < cmdLen; n++) {
     5b8:	b125      	cbz	r5, 5c4 <Module::SPItransferStream(unsigned char const*, unsigned char, bool, unsigned char*, unsigned char*, unsigned int, bool)+0x38>
    *(buffOutPtr++) = cmd[n];
     5ba:	4639      	mov	r1, r7
     5bc:	462a      	mov	r2, r5
     5be:	f006 f8b1 	bl	6724 <memcpy>
     5c2:	1970      	adds	r0, r6, r5

  // copy the data
  if(write) {
    memcpy(buffOutPtr, dataOut, numBytes);
  } else {
    memset(buffOutPtr, this->spiConfig.cmds[RADIOLIB_MODULE_SPI_COMMAND_NOP], numBytes + (this->spiConfig.widths[RADIOLIB_MODULE_SPI_WIDTH_STATUS] / 8));
     5c4:	7ca2      	ldrb	r2, [r4, #18]
     5c6:	89a1      	ldrh	r1, [r4, #12]
     5c8:	eb0a 02d2 	add.w	r2, sl, r2, lsr #3
     5cc:	f008 f828 	bl	8620 <memset>
  }

  // ensure GPIO is low
  if(waitForGpio) {
     5d0:	f1bb 0f00 	cmp.w	fp, #0
     5d4:	d01d      	beq.n	612 <Module::SPItransferStream(unsigned char const*, unsigned char, bool, unsigned char*, unsigned char*, unsigned int, bool)+0x86>
    if(this->gpioPin == RADIOLIB_NC) {
     5d6:	6ae3      	ldr	r3, [r4, #44]	; 0x2c
      this->hal->delay(50);
     5d8:	6820      	ldr	r0, [r4, #0]
    if(this->gpioPin == RADIOLIB_NC) {
     5da:	3301      	adds	r3, #1
     5dc:	f000 8083 	beq.w	6e6 <Module::SPItransferStream(unsigned char const*, unsigned char, bool, unsigned char*, unsigned char*, unsigned int, bool)+0x15a>
    } else {
      RadioLibTime_t start = this->hal->millis();
     5e0:	6803      	ldr	r3, [r0, #0]
     5e2:	69db      	ldr	r3, [r3, #28]
     5e4:	4798      	blx	r3
     5e6:	4607      	mov	r7, r0
      while(this->hal->digitalRead(this->gpioPin)) {
     5e8:	e00c      	b.n	604 <Module::SPItransferStream(unsigned char const*, unsigned char, bool, unsigned char*, unsigned char*, unsigned int, bool)+0x78>
        this->hal->yield();
     5ea:	6820      	ldr	r0, [r4, #0]
     5ec:	6803      	ldr	r3, [r0, #0]
     5ee:	6cdb      	ldr	r3, [r3, #76]	; 0x4c
     5f0:	4798      	blx	r3
        if(this->hal->millis() - start >= this->spiConfig.timeout) {
     5f2:	6820      	ldr	r0, [r4, #0]
     5f4:	6803      	ldr	r3, [r0, #0]
     5f6:	69db      	ldr	r3, [r3, #28]
     5f8:	4798      	blx	r3
     5fa:	69e3      	ldr	r3, [r4, #28]
     5fc:	1bc0      	subs	r0, r0, r7
     5fe:	4298      	cmp	r0, r3
     600:	f080 8084 	bcs.w	70c <Module::SPItransferStream(unsigned char const*, unsigned char, bool, unsigned char*, unsigned char*, unsigned int, bool)+0x180>
      while(this->hal->digitalRead(this->gpioPin)) {
     604:	6820      	ldr	r0, [r4, #0]
     606:	6ae1      	ldr	r1, [r4, #44]	; 0x2c
     608:	6803      	ldr	r3, [r0, #0]
     60a:	689b      	ldr	r3, [r3, #8]
     60c:	4798      	blx	r3
     60e:	2800      	cmp	r0, #0
     610:	d1eb      	bne.n	5ea <Module::SPItransferStream(unsigned char const*, unsigned char, bool, unsigned char*, unsigned char*, unsigned int, bool)+0x5e>

  // prepare the input buffer
  #if RADIOLIB_STATIC_ONLY
    uint8_t buffIn[RADIOLIB_STATIC_ARRAY_SIZE];
  #else
    uint8_t* buffIn = new uint8_t[buffLen];
     612:	4648      	mov	r0, r9
     614:	f006 f922 	bl	685c <operator new[](unsigned int)>
     618:	4607      	mov	r7, r0
  #endif

  // do the transfer
  this->hal->spiBeginTransaction();
     61a:	6820      	ldr	r0, [r4, #0]
     61c:	6803      	ldr	r3, [r0, #0]
     61e:	6adb      	ldr	r3, [r3, #44]	; 0x2c
     620:	4798      	blx	r3
  this->hal->digitalWrite(this->csPin, this->hal->GpioLevelLow);
     622:	6820      	ldr	r0, [r4, #0]
     624:	6a21      	ldr	r1, [r4, #32]
     626:	6803      	ldr	r3, [r0, #0]
     628:	68c2      	ldr	r2, [r0, #12]
     62a:	685b      	ldr	r3, [r3, #4]
     62c:	4798      	blx	r3
  this->hal->spiTransfer(buffOut, buffLen, buffIn);
     62e:	6820      	ldr	r0, [r4, #0]
     630:	464a      	mov	r2, r9
     632:	463b      	mov	r3, r7
     634:	f8d0 c000 	ldr.w	ip, [r0]
     638:	4631      	mov	r1, r6
     63a:	f8dc 9030 	ldr.w	r9, [ip, #48]	; 0x30
     63e:	47c8      	blx	r9
  this->hal->digitalWrite(this->csPin, this->hal->GpioLevelHigh);
     640:	6820      	ldr	r0, [r4, #0]
     642:	6a21      	ldr	r1, [r4, #32]
     644:	6803      	ldr	r3, [r0, #0]
     646:	6902      	ldr	r2, [r0, #16]
     648:	685b      	ldr	r3, [r3, #4]
     64a:	4798      	blx	r3
  this->hal->spiEndTransaction();
     64c:	6820      	ldr	r0, [r4, #0]
     64e:	6803      	ldr	r3, [r0, #0]
     650:	6b5b      	ldr	r3, [r3, #52]	; 0x34
     652:	4798      	blx	r3

  // wait for GPIO to go high and then low
  if(waitForGpio) {
     654:	f1bb 0f00 	cmp.w	fp, #0
     658:	d021      	beq.n	69e <Module::SPItransferStream(unsigned char const*, unsigned char, bool, unsigned char*, unsigned char*, unsigned int, bool)+0x112>
    if(this->gpioPin == RADIOLIB_NC) {
     65a:	6ae3      	ldr	r3, [r4, #44]	; 0x2c
      this->hal->delay(1);
     65c:	2101      	movs	r1, #1
     65e:	6820      	ldr	r0, [r4, #0]
    if(this->gpioPin == RADIOLIB_NC) {
     660:	3301      	adds	r3, #1
      this->hal->delay(1);
     662:	6803      	ldr	r3, [r0, #0]
    if(this->gpioPin == RADIOLIB_NC) {
     664:	d05c      	beq.n	720 <Module::SPItransferStream(unsigned char const*, unsigned char, bool, unsigned char*, unsigned char*, unsigned int, bool)+0x194>
    } else {
      this->hal->delayMicroseconds(1);
     666:	699b      	ldr	r3, [r3, #24]
     668:	4798      	blx	r3
      RadioLibTime_t start = this->hal->millis();
     66a:	6820      	ldr	r0, [r4, #0]
     66c:	6803      	ldr	r3, [r0, #0]
     66e:	69db      	ldr	r3, [r3, #28]
     670:	4798      	blx	r3
     672:	4681      	mov	r9, r0
      while(this->hal->digitalRead(this->gpioPin)) {
     674:	e00c      	b.n	690 <Module::SPItransferStream(unsigned char const*, unsigned char, bool, unsigned char*, unsigned char*, unsigned int, bool)+0x104>
        this->hal->yield();
     676:	6820      	ldr	r0, [r4, #0]
     678:	6803      	ldr	r3, [r0, #0]
     67a:	6cdb      	ldr	r3, [r3, #76]	; 0x4c
     67c:	4798      	blx	r3
        if(this->hal->millis() - start >= this->spiConfig.timeout) {
     67e:	6820      	ldr	r0, [r4, #0]
     680:	6803      	ldr	r3, [r0, #0]
     682:	69db      	ldr	r3, [r3, #28]
     684:	4798      	blx	r3
     686:	69e3      	ldr	r3, [r4, #28]
     688:	eba0 0009 	sub.w	r0, r0, r9
     68c:	4298      	cmp	r0, r3
     68e:	d24e      	bcs.n	72e <Module::SPItransferStream(unsigned char const*, unsigned char, bool, unsigned char*, unsigned char*, unsigned int, bool)+0x1a2>
      while(this->hal->digitalRead(this->gpioPin)) {
     690:	6820      	ldr	r0, [r4, #0]
     692:	6ae1      	ldr	r1, [r4, #44]	; 0x2c
     694:	6803      	ldr	r3, [r0, #0]
     696:	689b      	ldr	r3, [r3, #8]
     698:	4798      	blx	r3
     69a:	2800      	cmp	r0, #0
     69c:	d1eb      	bne.n	676 <Module::SPItransferStream(unsigned char const*, unsigned char, bool, unsigned char*, unsigned char*, unsigned int, bool)+0xea>
    }
  }

  // parse status
  int16_t state = RADIOLIB_ERR_NONE;
  if((this->spiConfig.parseStatusCb != nullptr) && (numBytes > 0)) {
     69e:	6963      	ldr	r3, [r4, #20]
     6a0:	f1ba 0f00 	cmp.w	sl, #0
     6a4:	d024      	beq.n	6f0 <Module::SPItransferStream(unsigned char const*, unsigned char, bool, unsigned char*, unsigned char*, unsigned int, bool)+0x164>
     6a6:	b31b      	cbz	r3, 6f0 <Module::SPItransferStream(unsigned char const*, unsigned char, bool, unsigned char*, unsigned char*, unsigned int, bool)+0x164>
    state = this->spiConfig.parseStatusCb(buffIn[this->spiConfig.statusPos]);
     6a8:	7ce2      	ldrb	r2, [r4, #19]
     6aa:	5cb8      	ldrb	r0, [r7, r2]
     6ac:	4798      	blx	r3
     6ae:	4681      	mov	r9, r0
  }
  
  // copy the data
  if(!write) {
     6b0:	f1b8 0f00 	cmp.w	r8, #0
     6b4:	d021      	beq.n	6fa <Module::SPItransferStream(unsigned char const*, unsigned char, bool, unsigned char*, unsigned char*, unsigned int, bool)+0x16e>
    }
    RADIOLIB_DEBUG_SPI_PRINTLN_NOTAG();
  #endif

  #if !RADIOLIB_STATIC_ONLY
    delete[] buffOut;
     6b6:	4630      	mov	r0, r6
     6b8:	f006 f8d2 	bl	6860 <operator delete[](void*)>
    delete[] buffIn;
     6bc:	4638      	mov	r0, r7
     6be:	f006 f8cf 	bl	6860 <operator delete[](void*)>
  #endif

  return(state);
}
     6c2:	4648      	mov	r0, r9
     6c4:	e8bd 8ff8 	ldmia.w	sp!, {r3, r4, r5, r6, r7, r8, r9, sl, fp, pc}
    uint8_t* buffOut = new uint8_t[buffLen];
     6c8:	4648      	mov	r0, r9
     6ca:	f006 f8c7 	bl	685c <operator new[](unsigned int)>
     6ce:	4606      	mov	r6, r0
  for(uint8_t n = 0; n < cmdLen; n++) {
     6d0:	b325      	cbz	r5, 71c <Module::SPItransferStream(unsigned char const*, unsigned char, bool, unsigned char*, unsigned char*, unsigned int, bool)+0x190>
    *(buffOutPtr++) = cmd[n];
     6d2:	4639      	mov	r1, r7
     6d4:	462a      	mov	r2, r5
     6d6:	f006 f825 	bl	6724 <memcpy>
     6da:	1970      	adds	r0, r6, r5
    memcpy(buffOutPtr, dataOut, numBytes);
     6dc:	4652      	mov	r2, sl
     6de:	990a      	ldr	r1, [sp, #40]	; 0x28
     6e0:	f006 f820 	bl	6724 <memcpy>
     6e4:	e774      	b.n	5d0 <Module::SPItransferStream(unsigned char const*, unsigned char, bool, unsigned char*, unsigned char*, unsigned int, bool)+0x44>
      this->hal->delay(50);
     6e6:	6803      	ldr	r3, [r0, #0]
     6e8:	2132      	movs	r1, #50	; 0x32
     6ea:	695b      	ldr	r3, [r3, #20]
     6ec:	4798      	blx	r3
     6ee:	e790      	b.n	612 <Module::SPItransferStream(unsigned char const*, unsigned char, bool, unsigned char*, unsigned char*, unsigned int, bool)+0x86>
  int16_t state = RADIOLIB_ERR_NONE;
     6f0:	f04f 0900 	mov.w	r9, #0
  if(!write) {
     6f4:	f1b8 0f00 	cmp.w	r8, #0
     6f8:	d1dd      	bne.n	6b6 <Module::SPItransferStream(unsigned char const*, unsigned char, bool, unsigned char*, unsigned char*, unsigned int, bool)+0x12a>
    memcpy(dataIn, &buffIn[cmdLen + (this->spiConfig.widths[RADIOLIB_MODULE_SPI_WIDTH_STATUS] / 8)], numBytes);
     6fa:	7ca1      	ldrb	r1, [r4, #18]
     6fc:	4652      	mov	r2, sl
     6fe:	980b      	ldr	r0, [sp, #44]	; 0x2c
     700:	eb05 01d1 	add.w	r1, r5, r1, lsr #3
     704:	4439      	add	r1, r7
     706:	f006 f80d 	bl	6724 <memcpy>
     70a:	e7d4      	b.n	6b6 <Module::SPItransferStream(unsigned char const*, unsigned char, bool, unsigned char*, unsigned char*, unsigned int, bool)+0x12a>
          return(RADIOLIB_ERR_SPI_CMD_TIMEOUT);
     70c:	f46f 7930 	mvn.w	r9, #704	; 0x2c0
            delete[] buffOut;
     710:	4630      	mov	r0, r6
     712:	f006 f8a5 	bl	6860 <operator delete[](void*)>
}
     716:	4648      	mov	r0, r9
     718:	e8bd 8ff8 	ldmia.w	sp!, {r3, r4, r5, r6, r7, r8, r9, sl, fp, pc}
    uint8_t* buffOut = new uint8_t[buffLen];
     71c:	4630      	mov	r0, r6
     71e:	e7dd      	b.n	6dc <Module::SPItransferStream(unsigned char const*, unsigned char, bool, unsigned char*, unsigned char*, unsigned int, bool)+0x150>
      this->hal->delay(1);
     720:	695b      	ldr	r3, [r3, #20]
     722:	4798      	blx	r3
  if((this->spiConfig.parseStatusCb != nullptr) && (numBytes > 0)) {
     724:	6963      	ldr	r3, [r4, #20]
     726:	f1ba 0f00 	cmp.w	sl, #0
     72a:	d1bc      	bne.n	6a6 <Module::SPItransferStream(unsigned char const*, unsigned char, bool, unsigned char*, unsigned char*, unsigned int, bool)+0x11a>
     72c:	e7e0      	b.n	6f0 <Module::SPItransferStream(unsigned char const*, unsigned char, bool, unsigned char*, unsigned char*, unsigned int, bool)+0x164>
            delete[] buffOut;
     72e:	4630      	mov	r0, r6
          return(RADIOLIB_ERR_SPI_CMD_TIMEOUT);
     730:	f46f 7930 	mvn.w	r9, #704	; 0x2c0
            delete[] buffOut;
     734:	f006 f894 	bl	6860 <operator delete[](void*)>
            delete[] buffIn;
     738:	4638      	mov	r0, r7
     73a:	f006 f891 	bl	6860 <operator delete[](void*)>
}
     73e:	4648      	mov	r0, r9
     740:	e8bd 8ff8 	ldmia.w	sp!, {r3, r4, r5, r6, r7, r8, r9, sl, fp, pc}

00000744 <Module::SPIreadRegisterBurst(unsigned long, unsigned int, unsigned char*)>:
void Module::SPIreadRegisterBurst(uint32_t reg, size_t numBytes, uint8_t* inBytes) {
     744:	e92d 43f0 	stmdb	sp!, {r4, r5, r6, r7, r8, r9, lr}
     748:	461e      	mov	r6, r3
  if(!this->spiConfig.stream) {
     74a:	7903      	ldrb	r3, [r0, #4]
void Module::SPIreadRegisterBurst(uint32_t reg, size_t numBytes, uint8_t* inBytes) {
     74c:	b087      	sub	sp, #28
     74e:	4605      	mov	r5, r0
     750:	4617      	mov	r7, r2
  if(!this->spiConfig.stream) {
     752:	2b00      	cmp	r3, #0
     754:	d042      	beq.n	7dc <Module::SPIreadRegisterBurst(unsigned long, unsigned int, unsigned char*)+0x98>
    for(int8_t i = (int8_t)this->spiConfig.widths[RADIOLIB_MODULE_SPI_WIDTH_CMD]/8 - 1; i >= 0; i--) {
     756:	f990 c011 	ldrsb.w	ip, [r0, #17]
     75a:	7c43      	ldrb	r3, [r0, #17]
     75c:	f1bc 0f00 	cmp.w	ip, #0
     760:	bfb8      	it	lt
     762:	f10c 0c07 	addlt.w	ip, ip, #7
     766:	f3cc 0cc7 	ubfx	ip, ip, #3, #8
     76a:	f10c 32ff 	add.w	r2, ip, #4294967295
     76e:	b252      	sxtb	r2, r2
     770:	2a00      	cmp	r2, #0
     772:	db3c      	blt.n	7ee <Module::SPIreadRegisterBurst(unsigned long, unsigned int, unsigned char*)+0xaa>
    uint8_t* cmdPtr = cmd;
     774:	a804      	add	r0, sp, #16
     776:	00d2      	lsls	r2, r2, #3
      *(cmdPtr++) = (this->spiConfig.cmds[RADIOLIB_MODULE_SPI_COMMAND_READ] >> 8*i) & 0xFF;
     778:	f8b5 9008 	ldrh.w	r9, [r5, #8]
    for(int8_t i = (int8_t)this->spiConfig.widths[RADIOLIB_MODULE_SPI_WIDTH_CMD]/8 - 1; i >= 0; i--) {
     77c:	f10d 080f 	add.w	r8, sp, #15
    uint8_t* cmdPtr = cmd;
     780:	4686      	mov	lr, r0
      *(cmdPtr++) = (this->spiConfig.cmds[RADIOLIB_MODULE_SPI_COMMAND_READ] >> 8*i) & 0xFF;
     782:	fa49 f402 	asr.w	r4, r9, r2
     786:	3a08      	subs	r2, #8
     788:	f80e 4b01 	strb.w	r4, [lr], #1
    for(int8_t i = (int8_t)this->spiConfig.widths[RADIOLIB_MODULE_SPI_WIDTH_CMD]/8 - 1; i >= 0; i--) {
     78c:	eba8 040e 	sub.w	r4, r8, lr
     790:	4464      	add	r4, ip
     792:	0624      	lsls	r4, r4, #24
     794:	d5f5      	bpl.n	782 <Module::SPIreadRegisterBurst(unsigned long, unsigned int, unsigned char*)+0x3e>
    for(int8_t i = (int8_t)((this->spiConfig.widths[RADIOLIB_MODULE_SPI_WIDTH_ADDR]/8) - 1); i >= 0; i--) {
     796:	7c2a      	ldrb	r2, [r5, #16]
     798:	08d2      	lsrs	r2, r2, #3
     79a:	1e54      	subs	r4, r2, #1
     79c:	fa4f fc84 	sxtb.w	ip, r4
     7a0:	3401      	adds	r4, #1
     7a2:	d00c      	beq.n	7be <Module::SPIreadRegisterBurst(unsigned long, unsigned int, unsigned char*)+0x7a>
      *(cmdPtr++) = (reg >> 8*i) & 0xFF;
     7a4:	ea4f 04cc 	mov.w	r4, ip, lsl #3
     7a8:	f10c 3cff 	add.w	ip, ip, #4294967295
     7ac:	fa4f fc8c 	sxtb.w	ip, ip
     7b0:	fa21 f404 	lsr.w	r4, r1, r4
    for(int8_t i = (int8_t)((this->spiConfig.widths[RADIOLIB_MODULE_SPI_WIDTH_ADDR]/8) - 1); i >= 0; i--) {
     7b4:	f1bc 3fff 	cmp.w	ip, #4294967295
      *(cmdPtr++) = (reg >> 8*i) & 0xFF;
     7b8:	f80e 4b01 	strb.w	r4, [lr], #1
    for(int8_t i = (int8_t)((this->spiConfig.widths[RADIOLIB_MODULE_SPI_WIDTH_ADDR]/8) - 1); i >= 0; i--) {
     7bc:	d1f2      	bne.n	7a4 <Module::SPIreadRegisterBurst(unsigned long, unsigned int, unsigned char*)+0x60>
    SPItransferStream(cmd, this->spiConfig.widths[RADIOLIB_MODULE_SPI_WIDTH_CMD]/8 + this->spiConfig.widths[RADIOLIB_MODULE_SPI_WIDTH_ADDR]/8, false, NULL, inBytes, numBytes, true);
     7be:	eb02 02d3 	add.w	r2, r2, r3, lsr #3
     7c2:	2401      	movs	r4, #1
     7c4:	2300      	movs	r3, #0
     7c6:	4601      	mov	r1, r0
     7c8:	9702      	str	r7, [sp, #8]
     7ca:	4628      	mov	r0, r5
     7cc:	9403      	str	r4, [sp, #12]
     7ce:	e9cd 3600 	strd	r3, r6, [sp]
     7d2:	f7ff fedb 	bl	58c <Module::SPItransferStream(unsigned char const*, unsigned char, bool, unsigned char*, unsigned char*, unsigned int, bool)>
}
     7d6:	b007      	add	sp, #28
     7d8:	e8bd 83f0 	ldmia.w	sp!, {r4, r5, r6, r7, r8, r9, pc}
    SPItransfer(this->spiConfig.cmds[RADIOLIB_MODULE_SPI_COMMAND_READ], reg, NULL, inBytes, numBytes);
     7dc:	9201      	str	r2, [sp, #4]
     7de:	460a      	mov	r2, r1
     7e0:	8901      	ldrh	r1, [r0, #8]
     7e2:	9600      	str	r6, [sp, #0]
     7e4:	f7ff fe6c 	bl	4c0 <Module::SPItransfer(unsigned short, unsigned long, unsigned char*, unsigned char*, unsigned int)>
}
     7e8:	b007      	add	sp, #28
     7ea:	e8bd 83f0 	ldmia.w	sp!, {r4, r5, r6, r7, r8, r9, pc}
    uint8_t* cmdPtr = cmd;
     7ee:	a804      	add	r0, sp, #16
     7f0:	4686      	mov	lr, r0
     7f2:	e7d0      	b.n	796 <Module::SPIreadRegisterBurst(unsigned long, unsigned int, unsigned char*)+0x52>

000007f4 <Module::SPIreadRegister(unsigned long)>:
uint8_t Module::SPIreadRegister(uint32_t reg) {
     7f4:	b5f0      	push	{r4, r5, r6, r7, lr}
  uint8_t resp = 0;
     7f6:	2300      	movs	r3, #0
uint8_t Module::SPIreadRegister(uint32_t reg) {
     7f8:	b089      	sub	sp, #36	; 0x24
     7fa:	4604      	mov	r4, r0
  uint8_t resp = 0;
     7fc:	f88d 3017 	strb.w	r3, [sp, #23]
  if(!spiConfig.stream) {
     800:	7903      	ldrb	r3, [r0, #4]
     802:	2b00      	cmp	r3, #0
     804:	d040      	beq.n	888 <Module::SPIreadRegister(unsigned long)+0x94>
    for(int8_t i = (int8_t)this->spiConfig.widths[RADIOLIB_MODULE_SPI_WIDTH_CMD]/8 - 1; i >= 0; i--) {
     806:	f990 e011 	ldrsb.w	lr, [r0, #17]
     80a:	7c42      	ldrb	r2, [r0, #17]
     80c:	f1be 0f00 	cmp.w	lr, #0
     810:	bfb8      	it	lt
     812:	f10e 0e07 	addlt.w	lr, lr, #7
     816:	f3ce 0ec7 	ubfx	lr, lr, #3, #8
     81a:	f10e 30ff 	add.w	r0, lr, #4294967295
     81e:	b240      	sxtb	r0, r0
     820:	2800      	cmp	r0, #0
     822:	db3e      	blt.n	8a2 <Module::SPIreadRegister(unsigned long)+0xae>
    uint8_t* cmdPtr = cmd;
     824:	ad06      	add	r5, sp, #24
     826:	00c0      	lsls	r0, r0, #3
      *(cmdPtr++) = (this->spiConfig.cmds[RADIOLIB_MODULE_SPI_COMMAND_READ] >> 8*i) & 0xFF;
     828:	8927      	ldrh	r7, [r4, #8]
    for(int8_t i = (int8_t)this->spiConfig.widths[RADIOLIB_MODULE_SPI_WIDTH_CMD]/8 - 1; i >= 0; i--) {
     82a:	f10d 0617 	add.w	r6, sp, #23
    uint8_t* cmdPtr = cmd;
     82e:	46ac      	mov	ip, r5
      *(cmdPtr++) = (this->spiConfig.cmds[RADIOLIB_MODULE_SPI_COMMAND_READ] >> 8*i) & 0xFF;
     830:	fa47 f300 	asr.w	r3, r7, r0
     834:	3808      	subs	r0, #8
     836:	f80c 3b01 	strb.w	r3, [ip], #1
    for(int8_t i = (int8_t)this->spiConfig.widths[RADIOLIB_MODULE_SPI_WIDTH_CMD]/8 - 1; i >= 0; i--) {
     83a:	eba6 030c 	sub.w	r3, r6, ip
     83e:	4473      	add	r3, lr
     840:	061b      	lsls	r3, r3, #24
     842:	d5f5      	bpl.n	830 <Module::SPIreadRegister(unsigned long)+0x3c>
    for(int8_t i = (int8_t)((this->spiConfig.widths[RADIOLIB_MODULE_SPI_WIDTH_ADDR]/8) - 1); i >= 0; i--) {
     844:	7c20      	ldrb	r0, [r4, #16]
     846:	08c0      	lsrs	r0, r0, #3
     848:	1e46      	subs	r6, r0, #1
     84a:	b273      	sxtb	r3, r6
     84c:	3601      	adds	r6, #1
     84e:	d009      	beq.n	864 <Module::SPIreadRegister(unsigned long)+0x70>
      *(cmdPtr++) = (reg >> 8*i) & 0xFF;
     850:	ea4f 0ec3 	mov.w	lr, r3, lsl #3
     854:	3b01      	subs	r3, #1
     856:	b25b      	sxtb	r3, r3
     858:	fa21 fe0e 	lsr.w	lr, r1, lr
    for(int8_t i = (int8_t)((this->spiConfig.widths[RADIOLIB_MODULE_SPI_WIDTH_ADDR]/8) - 1); i >= 0; i--) {
     85c:	1c5e      	adds	r6, r3, #1
      *(cmdPtr++) = (reg >> 8*i) & 0xFF;
     85e:	f80c eb01 	strb.w	lr, [ip], #1
    for(int8_t i = (int8_t)((this->spiConfig.widths[RADIOLIB_MODULE_SPI_WIDTH_ADDR]/8) - 1); i >= 0; i--) {
     862:	d1f5      	bne.n	850 <Module::SPIreadRegister(unsigned long)+0x5c>
    SPItransferStream(cmd, this->spiConfig.widths[RADIOLIB_MODULE_SPI_WIDTH_CMD]/8 + this->spiConfig.widths[RADIOLIB_MODULE_SPI_WIDTH_ADDR]/8, false, NULL, &resp, 1, true);
     864:	2301      	movs	r3, #1
     866:	f10d 0617 	add.w	r6, sp, #23
     86a:	eb00 02d2 	add.w	r2, r0, r2, lsr #3
     86e:	4629      	mov	r1, r5
     870:	4620      	mov	r0, r4
     872:	9601      	str	r6, [sp, #4]
     874:	e9cd 3302 	strd	r3, r3, [sp, #8]
     878:	2300      	movs	r3, #0
     87a:	9300      	str	r3, [sp, #0]
     87c:	f7ff fe86 	bl	58c <Module::SPItransferStream(unsigned char const*, unsigned char, bool, unsigned char*, unsigned char*, unsigned int, bool)>
}
     880:	f89d 0017 	ldrb.w	r0, [sp, #23]
     884:	b009      	add	sp, #36	; 0x24
     886:	bdf0      	pop	{r4, r5, r6, r7, pc}
    SPItransfer(this->spiConfig.cmds[RADIOLIB_MODULE_SPI_COMMAND_READ], reg, NULL, &resp, 1);
     888:	2501      	movs	r5, #1
     88a:	f10d 0417 	add.w	r4, sp, #23
     88e:	460a      	mov	r2, r1
     890:	8901      	ldrh	r1, [r0, #8]
     892:	9501      	str	r5, [sp, #4]
     894:	9400      	str	r4, [sp, #0]
     896:	f7ff fe13 	bl	4c0 <Module::SPItransfer(unsigned short, unsigned long, unsigned char*, unsigned char*, unsigned int)>
}
     89a:	f89d 0017 	ldrb.w	r0, [sp, #23]
     89e:	b009      	add	sp, #36	; 0x24
     8a0:	bdf0      	pop	{r4, r5, r6, r7, pc}
    uint8_t* cmdPtr = cmd;
     8a2:	ad06      	add	r5, sp, #24
     8a4:	46ac      	mov	ip, r5
     8a6:	e7cd      	b.n	844 <Module::SPIreadRegister(unsigned long)+0x50>

000008a8 <Module::SPIwriteRegisterBurst(unsigned long, unsigned char*, unsigned int)>:
void Module::SPIwriteRegisterBurst(uint32_t reg, uint8_t* data, size_t numBytes) {
     8a8:	e92d 43f0 	stmdb	sp!, {r4, r5, r6, r7, r8, r9, lr}
  if(!spiConfig.stream) {
     8ac:	7904      	ldrb	r4, [r0, #4]
void Module::SPIwriteRegisterBurst(uint32_t reg, uint8_t* data, size_t numBytes) {
     8ae:	b087      	sub	sp, #28
     8b0:	4605      	mov	r5, r0
     8b2:	4616      	mov	r6, r2
  if(!spiConfig.stream) {
     8b4:	2c00      	cmp	r4, #0
     8b6:	d044      	beq.n	942 <Module::SPIwriteRegisterBurst(unsigned long, unsigned char*, unsigned int)+0x9a>
    for(int8_t i = (int8_t)this->spiConfig.widths[RADIOLIB_MODULE_SPI_WIDTH_CMD]/8 - 1; i >= 0; i--) {
     8b8:	f990 7011 	ldrsb.w	r7, [r0, #17]
     8bc:	7c42      	ldrb	r2, [r0, #17]
     8be:	2f00      	cmp	r7, #0
     8c0:	bfb8      	it	lt
     8c2:	3707      	addlt	r7, #7
     8c4:	f3c7 07c7 	ubfx	r7, r7, #3, #8
     8c8:	f107 3cff 	add.w	ip, r7, #4294967295
     8cc:	fa4f fc8c 	sxtb.w	ip, ip
     8d0:	f1bc 0f00 	cmp.w	ip, #0
     8d4:	db3f      	blt.n	956 <Module::SPIwriteRegisterBurst(unsigned long, unsigned char*, unsigned int)+0xae>
    uint8_t* cmdPtr = cmd;
     8d6:	a804      	add	r0, sp, #16
     8d8:	ea4f 0ccc 	mov.w	ip, ip, lsl #3
      *(cmdPtr++) = (this->spiConfig.cmds[RADIOLIB_MODULE_SPI_COMMAND_WRITE] >> 8*i) & 0xFF;
     8dc:	f8b5 900a 	ldrh.w	r9, [r5, #10]
    for(int8_t i = (int8_t)this->spiConfig.widths[RADIOLIB_MODULE_SPI_WIDTH_CMD]/8 - 1; i >= 0; i--) {
     8e0:	f10d 080f 	add.w	r8, sp, #15
    uint8_t* cmdPtr = cmd;
     8e4:	4686      	mov	lr, r0
      *(cmdPtr++) = (this->spiConfig.cmds[RADIOLIB_MODULE_SPI_COMMAND_WRITE] >> 8*i) & 0xFF;
     8e6:	fa49 f40c 	asr.w	r4, r9, ip
     8ea:	f1ac 0c08 	sub.w	ip, ip, #8
     8ee:	f80e 4b01 	strb.w	r4, [lr], #1
    for(int8_t i = (int8_t)this->spiConfig.widths[RADIOLIB_MODULE_SPI_WIDTH_CMD]/8 - 1; i >= 0; i--) {
     8f2:	eba8 040e 	sub.w	r4, r8, lr
     8f6:	443c      	add	r4, r7
     8f8:	0624      	lsls	r4, r4, #24
     8fa:	d5f4      	bpl.n	8e6 <Module::SPIwriteRegisterBurst(unsigned long, unsigned char*, unsigned int)+0x3e>
    for(int8_t i = (int8_t)((this->spiConfig.widths[RADIOLIB_MODULE_SPI_WIDTH_ADDR]/8) - 1); i >= 0; i--) {
     8fc:	7c2f      	ldrb	r7, [r5, #16]
     8fe:	08ff      	lsrs	r7, r7, #3
     900:	1e7c      	subs	r4, r7, #1
     902:	fa4f fc84 	sxtb.w	ip, r4
     906:	3401      	adds	r4, #1
     908:	d00c      	beq.n	924 <Module::SPIwriteRegisterBurst(unsigned long, unsigned char*, unsigned int)+0x7c>
      *(cmdPtr++) = (reg >> 8*i) & 0xFF;
     90a:	ea4f 04cc 	mov.w	r4, ip, lsl #3
     90e:	f10c 3cff 	add.w	ip, ip, #4294967295
     912:	fa4f fc8c 	sxtb.w	ip, ip
     916:	fa21 f404 	lsr.w	r4, r1, r4
    for(int8_t i = (int8_t)((this->spiConfig.widths[RADIOLIB_MODULE_SPI_WIDTH_ADDR]/8) - 1); i >= 0; i--) {
     91a:	f1bc 3fff 	cmp.w	ip, #4294967295
      *(cmdPtr++) = (reg >> 8*i) & 0xFF;
     91e:	f80e 4b01 	strb.w	r4, [lr], #1
    for(int8_t i = (int8_t)((this->spiConfig.widths[RADIOLIB_MODULE_SPI_WIDTH_ADDR]/8) - 1); i >= 0; i--) {
     922:	d1f2      	bne.n	90a <Module::SPIwriteRegisterBurst(unsigned long, unsigned char*, unsigned int)+0x62>
    SPItransferStream(cmd, this->spiConfig.widths[RADIOLIB_MODULE_SPI_WIDTH_CMD]/8 + this->spiConfig.widths[RADIOLIB_MODULE_SPI_WIDTH_ADDR]/8, true, data, NULL, numBytes, true);
     924:	9302      	str	r3, [sp, #8]
     926:	2300      	movs	r3, #0
     928:	4601      	mov	r1, r0
     92a:	eb07 02d2 	add.w	r2, r7, r2, lsr #3
     92e:	4628      	mov	r0, r5
     930:	e9cd 6300 	strd	r6, r3, [sp]
     934:	2301      	movs	r3, #1
     936:	9303      	str	r3, [sp, #12]
     938:	f7ff fe28 	bl	58c <Module::SPItransferStream(unsigned char const*, unsigned char, bool, unsigned char*, unsigned char*, unsigned int, bool)>
}
     93c:	b007      	add	sp, #28
     93e:	e8bd 83f0 	ldmia.w	sp!, {r4, r5, r6, r7, r8, r9, pc}
    SPItransfer(spiConfig.cmds[RADIOLIB_MODULE_SPI_COMMAND_WRITE], reg, data, NULL, numBytes);
     942:	9301      	str	r3, [sp, #4]
     944:	4613      	mov	r3, r2
     946:	460a      	mov	r2, r1
     948:	8941      	ldrh	r1, [r0, #10]
     94a:	9400      	str	r4, [sp, #0]
     94c:	f7ff fdb8 	bl	4c0 <Module::SPItransfer(unsigned short, unsigned long, unsigned char*, unsigned char*, unsigned int)>
}
     950:	b007      	add	sp, #28
     952:	e8bd 83f0 	ldmia.w	sp!, {r4, r5, r6, r7, r8, r9, pc}
    uint8_t* cmdPtr = cmd;
     956:	a804      	add	r0, sp, #16
     958:	4686      	mov	lr, r0
     95a:	e7cf      	b.n	8fc <Module::SPIwriteRegisterBurst(unsigned long, unsigned char*, unsigned int)+0x54>

0000095c <Module::SPIwriteRegister(unsigned long, unsigned char)>:
void Module::SPIwriteRegister(uint32_t reg, uint8_t data) {
     95c:	b5f0      	push	{r4, r5, r6, r7, lr}
  if(!spiConfig.stream) {
     95e:	7903      	ldrb	r3, [r0, #4]
void Module::SPIwriteRegister(uint32_t reg, uint8_t data) {
     960:	b089      	sub	sp, #36	; 0x24
     962:	4604      	mov	r4, r0
     964:	f88d 2017 	strb.w	r2, [sp, #23]
  if(!spiConfig.stream) {
     968:	2b00      	cmp	r3, #0
     96a:	d040      	beq.n	9ee <Module::SPIwriteRegister(unsigned long, unsigned char)+0x92>
    for(int8_t i = (int8_t)this->spiConfig.widths[RADIOLIB_MODULE_SPI_WIDTH_CMD]/8 - 1; i >= 0; i--) {
     96c:	f990 5011 	ldrsb.w	r5, [r0, #17]
     970:	7c42      	ldrb	r2, [r0, #17]
     972:	2d00      	cmp	r5, #0
     974:	bfb8      	it	lt
     976:	3507      	addlt	r5, #7
     978:	f3c5 05c7 	ubfx	r5, r5, #3, #8
     97c:	f105 3eff 	add.w	lr, r5, #4294967295
     980:	fa4f fe8e 	sxtb.w	lr, lr
     984:	f1be 0f00 	cmp.w	lr, #0
     988:	db3c      	blt.n	a04 <Module::SPIwriteRegister(unsigned long, unsigned char)+0xa8>
    uint8_t* cmdPtr = cmd;
     98a:	a806      	add	r0, sp, #24
     98c:	ea4f 0ece 	mov.w	lr, lr, lsl #3
      *(cmdPtr++) = (this->spiConfig.cmds[RADIOLIB_MODULE_SPI_COMMAND_WRITE] >> 8*i) & 0xFF;
     990:	8967      	ldrh	r7, [r4, #10]
    for(int8_t i = (int8_t)this->spiConfig.widths[RADIOLIB_MODULE_SPI_WIDTH_CMD]/8 - 1; i >= 0; i--) {
     992:	f10d 0617 	add.w	r6, sp, #23
    uint8_t* cmdPtr = cmd;
     996:	4684      	mov	ip, r0
      *(cmdPtr++) = (this->spiConfig.cmds[RADIOLIB_MODULE_SPI_COMMAND_WRITE] >> 8*i) & 0xFF;
     998:	fa47 f30e 	asr.w	r3, r7, lr
     99c:	f1ae 0e08 	sub.w	lr, lr, #8
     9a0:	f80c 3b01 	strb.w	r3, [ip], #1
    for(int8_t i = (int8_t)this->spiConfig.widths[RADIOLIB_MODULE_SPI_WIDTH_CMD]/8 - 1; i >= 0; i--) {
     9a4:	eba6 030c 	sub.w	r3, r6, ip
     9a8:	442b      	add	r3, r5
     9aa:	061b      	lsls	r3, r3, #24
     9ac:	d5f4      	bpl.n	998 <Module::SPIwriteRegister(unsigned long, unsigned char)+0x3c>
    for(int8_t i = (int8_t)((this->spiConfig.widths[RADIOLIB_MODULE_SPI_WIDTH_ADDR]/8) - 1); i >= 0; i--) {
     9ae:	7c25      	ldrb	r5, [r4, #16]
     9b0:	08ed      	lsrs	r5, r5, #3
     9b2:	1e6e      	subs	r6, r5, #1
     9b4:	b273      	sxtb	r3, r6
     9b6:	3601      	adds	r6, #1
     9b8:	d009      	beq.n	9ce <Module::SPIwriteRegister(unsigned long, unsigned char)+0x72>
      *(cmdPtr++) = (reg >> 8*i) & 0xFF;
     9ba:	ea4f 0ec3 	mov.w	lr, r3, lsl #3
     9be:	3b01      	subs	r3, #1
     9c0:	b25b      	sxtb	r3, r3
     9c2:	fa21 fe0e 	lsr.w	lr, r1, lr
    for(int8_t i = (int8_t)((this->spiConfig.widths[RADIOLIB_MODULE_SPI_WIDTH_ADDR]/8) - 1); i >= 0; i--) {
     9c6:	1c5e      	adds	r6, r3, #1
      *(cmdPtr++) = (reg >> 8*i) & 0xFF;
     9c8:	f80c eb01 	strb.w	lr, [ip], #1
    for(int8_t i = (int8_t)((this->spiConfig.widths[RADIOLIB_MODULE_SPI_WIDTH_ADDR]/8) - 1); i >= 0; i--) {
     9cc:	d1f5      	bne.n	9ba <Module::SPIwriteRegister(unsigned long, unsigned char)+0x5e>
    SPItransferStream(cmd, this->spiConfig.widths[RADIOLIB_MODULE_SPI_WIDTH_CMD]/8 + this->spiConfig.widths[RADIOLIB_MODULE_SPI_WIDTH_ADDR]/8, true, &data, NULL, 1, true);
     9ce:	eb05 02d2 	add.w	r2, r5, r2, lsr #3
     9d2:	2301      	movs	r3, #1
     9d4:	4601      	mov	r1, r0
     9d6:	2500      	movs	r5, #0
     9d8:	4620      	mov	r0, r4
     9da:	f10d 0417 	add.w	r4, sp, #23
     9de:	9501      	str	r5, [sp, #4]
     9e0:	9400      	str	r4, [sp, #0]
     9e2:	e9cd 3302 	strd	r3, r3, [sp, #8]
     9e6:	f7ff fdd1 	bl	58c <Module::SPItransferStream(unsigned char const*, unsigned char, bool, unsigned char*, unsigned char*, unsigned int, bool)>
}
     9ea:	b009      	add	sp, #36	; 0x24
     9ec:	bdf0      	pop	{r4, r5, r6, r7, pc}
    SPItransfer(spiConfig.cmds[RADIOLIB_MODULE_SPI_COMMAND_WRITE], reg, &data, NULL, 1);
     9ee:	2501      	movs	r5, #1
     9f0:	460a      	mov	r2, r1
     9f2:	8941      	ldrh	r1, [r0, #10]
     9f4:	9300      	str	r3, [sp, #0]
     9f6:	f10d 0317 	add.w	r3, sp, #23
     9fa:	9501      	str	r5, [sp, #4]
     9fc:	f7ff fd60 	bl	4c0 <Module::SPItransfer(unsigned short, unsigned long, unsigned char*, unsigned char*, unsigned int)>
}
     a00:	b009      	add	sp, #36	; 0x24
     a02:	bdf0      	pop	{r4, r5, r6, r7, pc}
    uint8_t* cmdPtr = cmd;
     a04:	a806      	add	r0, sp, #24
     a06:	4684      	mov	ip, r0
     a08:	e7d1      	b.n	9ae <Module::SPIwriteRegister(unsigned long, unsigned char)+0x52>
     a0a:	bf00      	nop

00000a0c <Module::SPIsetRegValue(unsigned long, unsigned char, unsigned char, unsigned char, unsigned char, unsigned char, bool)>:
int16_t Module::SPIsetRegValue(uint32_t reg, uint8_t value, uint8_t msb, uint8_t lsb, uint8_t checkInterval, uint8_t checkMask, bool force) {
     a0c:	e92d 4ff8 	stmdb	sp!, {r3, r4, r5, r6, r7, r8, r9, sl, fp, lr}
     a10:	f89d b028 	ldrb.w	fp, [sp, #40]	; 0x28
     a14:	4698      	mov	r8, r3
     a16:	f89d 702c 	ldrb.w	r7, [sp, #44]	; 0x2c
  if((msb > 7) || (lsb > 7) || (lsb > msb)) {
     a1a:	ea43 030b 	orr.w	r3, r3, fp
int16_t Module::SPIsetRegValue(uint32_t reg, uint8_t value, uint8_t msb, uint8_t lsb, uint8_t checkInterval, uint8_t checkMask, bool force) {
     a1e:	f89d 9030 	ldrb.w	r9, [sp, #48]	; 0x30
     a22:	f89d 5034 	ldrb.w	r5, [sp, #52]	; 0x34
  if((msb > 7) || (lsb > 7) || (lsb > msb)) {
     a26:	2b07      	cmp	r3, #7
     a28:	d846      	bhi.n	ab8 <Module::SPIsetRegValue(unsigned long, unsigned char, unsigned char, unsigned char, unsigned char, unsigned char, bool)+0xac>
     a2a:	45d8      	cmp	r8, fp
     a2c:	d344      	bcc.n	ab8 <Module::SPIsetRegValue(unsigned long, unsigned char, unsigned char, unsigned char, unsigned char, unsigned char, bool)+0xac>
  uint8_t mask = ~((0b11111111 << (msb + 1)) | (0b11111111 >> (8 - lsb)));
     a2e:	f108 0801 	add.w	r8, r8, #1
     a32:	4692      	mov	sl, r2
     a34:	4604      	mov	r4, r0
     a36:	460e      	mov	r6, r1
     a38:	f1cb 0b08 	rsb	fp, fp, #8
  uint8_t currentValue = SPIreadRegister(reg);
     a3c:	f7ff feda 	bl	7f4 <Module::SPIreadRegister(unsigned long)>
  uint8_t mask = ~((0b11111111 << (msb + 1)) | (0b11111111 >> (8 - lsb)));
     a40:	22ff      	movs	r2, #255	; 0xff
     a42:	fa5f f388 	uxtb.w	r3, r8
     a46:	fa02 f303 	lsl.w	r3, r2, r3
     a4a:	fa42 f20b 	asr.w	r2, r2, fp
     a4e:	4313      	orrs	r3, r2
  if((currentValue & mask) == (value & mask) && !force) {
     a50:	ea80 020a 	eor.w	r2, r0, sl
  uint8_t mask = ~((0b11111111 << (msb + 1)) | (0b11111111 >> (8 - lsb)));
     a54:	43db      	mvns	r3, r3
     a56:	b2db      	uxtb	r3, r3
  if((currentValue & mask) == (value & mask) && !force) {
     a58:	4213      	tst	r3, r2
     a5a:	d100      	bne.n	a5e <Module::SPIsetRegValue(unsigned long, unsigned char, unsigned char, unsigned char, unsigned char, unsigned char, bool)+0x52>
     a5c:	b34d      	cbz	r5, ab2 <Module::SPIsetRegValue(unsigned long, unsigned char, unsigned char, unsigned char, unsigned char, unsigned char, bool)+0xa6>
  uint8_t newValue = (currentValue & ~mask) | (value & mask);
     a5e:	ea20 0503 	bic.w	r5, r0, r3
     a62:	ea03 030a 	and.w	r3, r3, sl
  SPIwriteRegister(reg, newValue);
     a66:	4631      	mov	r1, r6
     a68:	4620      	mov	r0, r4
  uint8_t newValue = (currentValue & ~mask) | (value & mask);
     a6a:	431d      	orrs	r5, r3
     a6c:	b2ed      	uxtb	r5, r5
  SPIwriteRegister(reg, newValue);
     a6e:	462a      	mov	r2, r5
     a70:	f7ff ff74 	bl	95c <Module::SPIwriteRegister(unsigned long, unsigned char)>
    RadioLibTime_t start = this->hal->micros();
     a74:	6820      	ldr	r0, [r4, #0]
     a76:	6803      	ldr	r3, [r0, #0]
     a78:	6a1b      	ldr	r3, [r3, #32]
     a7a:	4798      	blx	r3
    while(this->hal->micros() - start < (checkInterval * 1000)) {
     a7c:	f44f 737a 	mov.w	r3, #1000	; 0x3e8
    RadioLibTime_t start = this->hal->micros();
     a80:	4680      	mov	r8, r0
    while(this->hal->micros() - start < (checkInterval * 1000)) {
     a82:	fb03 f707 	mul.w	r7, r3, r7
     a86:	e005      	b.n	a94 <Module::SPIsetRegValue(unsigned long, unsigned char, unsigned char, unsigned char, unsigned char, unsigned char, bool)+0x88>
      uint8_t val = SPIreadRegister(reg);
     a88:	f7ff feb4 	bl	7f4 <Module::SPIreadRegister(unsigned long)>
      if((val & checkMask) == (newValue & checkMask)) {
     a8c:	4068      	eors	r0, r5
     a8e:	ea19 0f00 	tst.w	r9, r0
     a92:	d00e      	beq.n	ab2 <Module::SPIsetRegValue(unsigned long, unsigned char, unsigned char, unsigned char, unsigned char, unsigned char, bool)+0xa6>
    while(this->hal->micros() - start < (checkInterval * 1000)) {
     a94:	6820      	ldr	r0, [r4, #0]
     a96:	6803      	ldr	r3, [r0, #0]
     a98:	6a1b      	ldr	r3, [r3, #32]
     a9a:	4798      	blx	r3
     a9c:	4603      	mov	r3, r0
      uint8_t val = SPIreadRegister(reg);
     a9e:	4631      	mov	r1, r6
     aa0:	4620      	mov	r0, r4
    while(this->hal->micros() - start < (checkInterval * 1000)) {
     aa2:	eba3 0308 	sub.w	r3, r3, r8
     aa6:	42bb      	cmp	r3, r7
     aa8:	d3ee      	bcc.n	a88 <Module::SPIsetRegValue(unsigned long, unsigned char, unsigned char, unsigned char, unsigned char, unsigned char, bool)+0x7c>
    return(RADIOLIB_ERR_SPI_WRITE_FAILED);
     aaa:	f06f 000f 	mvn.w	r0, #15
}
     aae:	e8bd 8ff8 	ldmia.w	sp!, {r3, r4, r5, r6, r7, r8, r9, sl, fp, pc}
    return(RADIOLIB_ERR_NONE);
     ab2:	2000      	movs	r0, #0
}
     ab4:	e8bd 8ff8 	ldmia.w	sp!, {r3, r4, r5, r6, r7, r8, r9, sl, fp, pc}
    return(RADIOLIB_ERR_INVALID_BIT_RANGE);
     ab8:	f06f 000a 	mvn.w	r0, #10
     abc:	e7fa      	b.n	ab4 <Module::SPIsetRegValue(unsigned long, unsigned char, unsigned char, unsigned char, unsigned char, unsigned char, bool)+0xa8>
     abe:	bf00      	nop

00000ac0 <Module::SPIreadStream(unsigned char*, unsigned char, unsigned char*, unsigned int, bool, bool)>:
int16_t Module::SPIreadStream(uint8_t* cmd, uint8_t cmdLen, uint8_t* data, size_t numBytes, bool waitForGpio, bool verify) {
     ac0:	b530      	push	{r4, r5, lr}
     ac2:	b085      	sub	sp, #20
     ac4:	4604      	mov	r4, r0
     ac6:	9d08      	ldr	r5, [sp, #32]
  int16_t state = this->SPItransferStream(cmd, cmdLen, false, NULL, data, numBytes, waitForGpio);
     ac8:	9301      	str	r3, [sp, #4]
     aca:	2300      	movs	r3, #0
     acc:	9502      	str	r5, [sp, #8]
int16_t Module::SPIreadStream(uint8_t* cmd, uint8_t cmdLen, uint8_t* data, size_t numBytes, bool waitForGpio, bool verify) {
     ace:	f89d 5024 	ldrb.w	r5, [sp, #36]	; 0x24
  int16_t state = this->SPItransferStream(cmd, cmdLen, false, NULL, data, numBytes, waitForGpio);
     ad2:	9300      	str	r3, [sp, #0]
     ad4:	9503      	str	r5, [sp, #12]
int16_t Module::SPIreadStream(uint8_t* cmd, uint8_t cmdLen, uint8_t* data, size_t numBytes, bool waitForGpio, bool verify) {
     ad6:	f89d 5028 	ldrb.w	r5, [sp, #40]	; 0x28
  int16_t state = this->SPItransferStream(cmd, cmdLen, false, NULL, data, numBytes, waitForGpio);
     ada:	f7ff fd57 	bl	58c <Module::SPItransferStream(unsigned char const*, unsigned char, bool, unsigned char*, unsigned char*, unsigned int, bool)>
  RADIOLIB_ASSERT(state);
     ade:	b938      	cbnz	r0, af0 <Module::SPIreadStream(unsigned char*, unsigned char, unsigned char*, unsigned int, bool, bool)+0x30>
  if(verify && (this->spiConfig.checkStatusCb != nullptr)) {
     ae0:	b135      	cbz	r5, af0 <Module::SPIreadStream(unsigned char*, unsigned char, unsigned char*, unsigned int, bool, bool)+0x30>
     ae2:	69a3      	ldr	r3, [r4, #24]
     ae4:	b123      	cbz	r3, af0 <Module::SPIreadStream(unsigned char*, unsigned char, unsigned char*, unsigned int, bool, bool)+0x30>
    state = this->spiConfig.checkStatusCb(this);
     ae6:	4620      	mov	r0, r4
}
     ae8:	b005      	add	sp, #20
     aea:	e8bd 4030 	ldmia.w	sp!, {r4, r5, lr}
    state = this->spiConfig.checkStatusCb(this);
     aee:	4718      	bx	r3
}
     af0:	b005      	add	sp, #20
     af2:	bd30      	pop	{r4, r5, pc}

00000af4 <Module::SPIwriteStream(unsigned char*, unsigned char, unsigned char*, unsigned int, bool, bool)>:
int16_t Module::SPIwriteStream(uint8_t* cmd, uint8_t cmdLen, uint8_t* data, size_t numBytes, bool waitForGpio, bool verify) {
     af4:	b530      	push	{r4, r5, lr}
     af6:	b085      	sub	sp, #20
     af8:	4604      	mov	r4, r0
     afa:	9d08      	ldr	r5, [sp, #32]
  int16_t state = this->SPItransferStream(cmd, cmdLen, true, data, NULL, numBytes, waitForGpio);
     afc:	9300      	str	r3, [sp, #0]
     afe:	2301      	movs	r3, #1
     b00:	9502      	str	r5, [sp, #8]
int16_t Module::SPIwriteStream(uint8_t* cmd, uint8_t cmdLen, uint8_t* data, size_t numBytes, bool waitForGpio, bool verify) {
     b02:	f89d 5024 	ldrb.w	r5, [sp, #36]	; 0x24
  int16_t state = this->SPItransferStream(cmd, cmdLen, true, data, NULL, numBytes, waitForGpio);
     b06:	9503      	str	r5, [sp, #12]
     b08:	2500      	movs	r5, #0
     b0a:	9501      	str	r5, [sp, #4]
int16_t Module::SPIwriteStream(uint8_t* cmd, uint8_t cmdLen, uint8_t* data, size_t numBytes, bool waitForGpio, bool verify) {
     b0c:	f89d 5028 	ldrb.w	r5, [sp, #40]	; 0x28
  int16_t state = this->SPItransferStream(cmd, cmdLen, true, data, NULL, numBytes, waitForGpio);
     b10:	f7ff fd3c 	bl	58c <Module::SPItransferStream(unsigned char const*, unsigned char, bool, unsigned char*, unsigned char*, unsigned int, bool)>
  RADIOLIB_ASSERT(state);
     b14:	b938      	cbnz	r0, b26 <Module::SPIwriteStream(unsigned char*, unsigned char, unsigned char*, unsigned int, bool, bool)+0x32>
  if(verify && (this->spiConfig.checkStatusCb != nullptr)) {
     b16:	b135      	cbz	r5, b26 <Module::SPIwriteStream(unsigned char*, unsigned char, unsigned char*, unsigned int, bool, bool)+0x32>
  if(verify && (this->spiConfig.checkStatusCb != nullptr)) {
     b18:	69a3      	ldr	r3, [r4, #24]
     b1a:	b123      	cbz	r3, b26 <Module::SPIwriteStream(unsigned char*, unsigned char, unsigned char*, unsigned int, bool, bool)+0x32>
    state = this->spiConfig.checkStatusCb(this);
     b1c:	4620      	mov	r0, r4
}
     b1e:	b005      	add	sp, #20
     b20:	e8bd 4030 	ldmia.w	sp!, {r4, r5, lr}
    state = this->spiConfig.checkStatusCb(this);
     b24:	4718      	bx	r3
}
     b26:	b005      	add	sp, #20
     b28:	bd30      	pop	{r4, r5, pc}
     b2a:	bf00      	nop

00000b2c <Module::SPIcheckStream()>:
int16_t Module::SPIcheckStream() {
     b2c:	b570      	push	{r4, r5, r6, lr}
  uint8_t spiStatus = 0;
     b2e:	2300      	movs	r3, #0
  for(int8_t i = (int8_t)this->spiConfig.widths[RADIOLIB_MODULE_SPI_WIDTH_CMD]/8 - 1; i >= 0; i--) {
     b30:	f990 e011 	ldrsb.w	lr, [r0, #17]
int16_t Module::SPIcheckStream() {
     b34:	b086      	sub	sp, #24
     b36:	4604      	mov	r4, r0
  for(int8_t i = (int8_t)this->spiConfig.widths[RADIOLIB_MODULE_SPI_WIDTH_CMD]/8 - 1; i >= 0; i--) {
     b38:	459e      	cmp	lr, r3
     b3a:	7c42      	ldrb	r2, [r0, #17]
  uint8_t spiStatus = 0;
     b3c:	f88d 3013 	strb.w	r3, [sp, #19]
  for(int8_t i = (int8_t)this->spiConfig.widths[RADIOLIB_MODULE_SPI_WIDTH_CMD]/8 - 1; i >= 0; i--) {
     b40:	bfb8      	it	lt
     b42:	f10e 0e07 	addlt.w	lr, lr, #7
     b46:	f3ce 0ec7 	ubfx	lr, lr, #3, #8
     b4a:	f10e 3cff 	add.w	ip, lr, #4294967295
     b4e:	fa4f fc8c 	sxtb.w	ip, ip
     b52:	f1bc 0f00 	cmp.w	ip, #0
     b56:	db27      	blt.n	ba8 <Module::SPIcheckStream()+0x7c>
  uint8_t* cmdPtr = cmdBuf;
     b58:	a905      	add	r1, sp, #20
    *(cmdPtr++) = ( this->spiConfig.cmds[RADIOLIB_MODULE_SPI_COMMAND_STATUS] >> 8*i) & 0xFF;
     b5a:	89c6      	ldrh	r6, [r0, #14]
     b5c:	ea4f 0ccc 	mov.w	ip, ip, lsl #3
  for(int8_t i = (int8_t)this->spiConfig.widths[RADIOLIB_MODULE_SPI_WIDTH_CMD]/8 - 1; i >= 0; i--) {
     b60:	f10d 0513 	add.w	r5, sp, #19
  uint8_t* cmdPtr = cmdBuf;
     b64:	4608      	mov	r0, r1
    *(cmdPtr++) = ( this->spiConfig.cmds[RADIOLIB_MODULE_SPI_COMMAND_STATUS] >> 8*i) & 0xFF;
     b66:	fa46 f30c 	asr.w	r3, r6, ip
     b6a:	f1ac 0c08 	sub.w	ip, ip, #8
     b6e:	f800 3b01 	strb.w	r3, [r0], #1
  for(int8_t i = (int8_t)this->spiConfig.widths[RADIOLIB_MODULE_SPI_WIDTH_CMD]/8 - 1; i >= 0; i--) {
     b72:	1a2b      	subs	r3, r5, r0
     b74:	4473      	add	r3, lr
     b76:	061b      	lsls	r3, r3, #24
     b78:	d5f5      	bpl.n	b66 <Module::SPIcheckStream()+0x3a>
  state = this->SPItransferStream(cmdBuf, this->spiConfig.widths[RADIOLIB_MODULE_SPI_WIDTH_CMD]/8, false, NULL, &spiStatus, 1, true);
     b7a:	2301      	movs	r3, #1
     b7c:	f10d 0013 	add.w	r0, sp, #19
     b80:	08d2      	lsrs	r2, r2, #3
     b82:	9001      	str	r0, [sp, #4]
     b84:	4620      	mov	r0, r4
     b86:	e9cd 3302 	strd	r3, r3, [sp, #8]
     b8a:	2300      	movs	r3, #0
     b8c:	9300      	str	r3, [sp, #0]
     b8e:	f7ff fcfd 	bl	58c <Module::SPItransferStream(unsigned char const*, unsigned char, bool, unsigned char*, unsigned char*, unsigned int, bool)>
  RADIOLIB_ASSERT(state);
     b92:	4605      	mov	r5, r0
     b94:	b928      	cbnz	r0, ba2 <Module::SPIcheckStream()+0x76>
  if(this->spiConfig.parseStatusCb != nullptr) {
     b96:	6963      	ldr	r3, [r4, #20]
     b98:	b11b      	cbz	r3, ba2 <Module::SPIcheckStream()+0x76>
    this->spiConfig.err = this->spiConfig.parseStatusCb(spiStatus);
     b9a:	f89d 0013 	ldrb.w	r0, [sp, #19]
     b9e:	4798      	blx	r3
     ba0:	80e0      	strh	r0, [r4, #6]
}
     ba2:	4628      	mov	r0, r5
     ba4:	b006      	add	sp, #24
     ba6:	bd70      	pop	{r4, r5, r6, pc}
     ba8:	a905      	add	r1, sp, #20
     baa:	e7e6      	b.n	b7a <Module::SPIcheckStream()+0x4e>

00000bac <Module::SPIreadStream(unsigned short, unsigned char*, unsigned int, bool, bool)>:
int16_t Module::SPIreadStream(uint16_t cmd, uint8_t* data, size_t numBytes, bool waitForGpio, bool verify) {
     bac:	e92d 47f0 	stmdb	sp!, {r4, r5, r6, r7, r8, r9, sl, lr}
  for(int8_t i = (int8_t)this->spiConfig.widths[RADIOLIB_MODULE_SPI_WIDTH_CMD]/8 - 1; i >= 0; i--) {
     bb0:	f990 5011 	ldrsb.w	r5, [r0, #17]
int16_t Module::SPIreadStream(uint16_t cmd, uint8_t* data, size_t numBytes, bool waitForGpio, bool verify) {
     bb4:	b086      	sub	sp, #24
     bb6:	4691      	mov	r9, r2
     bb8:	4607      	mov	r7, r0
  for(int8_t i = (int8_t)this->spiConfig.widths[RADIOLIB_MODULE_SPI_WIDTH_CMD]/8 - 1; i >= 0; i--) {
     bba:	2d00      	cmp	r5, #0
int16_t Module::SPIreadStream(uint16_t cmd, uint8_t* data, size_t numBytes, bool waitForGpio, bool verify) {
     bbc:	460e      	mov	r6, r1
     bbe:	f89d a038 	ldrb.w	sl, [sp, #56]	; 0x38
  for(int8_t i = (int8_t)this->spiConfig.widths[RADIOLIB_MODULE_SPI_WIDTH_CMD]/8 - 1; i >= 0; i--) {
     bc2:	bfb8      	it	lt
     bc4:	3507      	addlt	r5, #7
int16_t Module::SPIreadStream(uint16_t cmd, uint8_t* data, size_t numBytes, bool waitForGpio, bool verify) {
     bc6:	f89d 803c 	ldrb.w	r8, [sp, #60]	; 0x3c
  for(int8_t i = (int8_t)this->spiConfig.widths[RADIOLIB_MODULE_SPI_WIDTH_CMD]/8 - 1; i >= 0; i--) {
     bca:	7c42      	ldrb	r2, [r0, #17]
     bcc:	f3c5 05c7 	ubfx	r5, r5, #3, #8
     bd0:	f105 3eff 	add.w	lr, r5, #4294967295
     bd4:	fa4f fe8e 	sxtb.w	lr, lr
     bd8:	f1be 0f00 	cmp.w	lr, #0
     bdc:	db26      	blt.n	c2c <Module::SPIreadStream(unsigned short, unsigned char*, unsigned int, bool, bool)+0x80>
  uint8_t* cmdPtr = cmdBuf;
     bde:	a905      	add	r1, sp, #20
     be0:	ea4f 0ece 	mov.w	lr, lr, lsl #3
  for(int8_t i = (int8_t)this->spiConfig.widths[RADIOLIB_MODULE_SPI_WIDTH_CMD]/8 - 1; i >= 0; i--) {
     be4:	f10d 0013 	add.w	r0, sp, #19
  uint8_t* cmdPtr = cmdBuf;
     be8:	460c      	mov	r4, r1
    *(cmdPtr++) = (cmd >> 8*i) & 0xFF;
     bea:	fa46 fc0e 	asr.w	ip, r6, lr
     bee:	f1ae 0e08 	sub.w	lr, lr, #8
     bf2:	f804 cb01 	strb.w	ip, [r4], #1
  for(int8_t i = (int8_t)this->spiConfig.widths[RADIOLIB_MODULE_SPI_WIDTH_CMD]/8 - 1; i >= 0; i--) {
     bf6:	eba0 0c04 	sub.w	ip, r0, r4
     bfa:	44ac      	add	ip, r5
     bfc:	f01c 0f80 	tst.w	ip, #128	; 0x80
     c00:	d0f3      	beq.n	bea <Module::SPIreadStream(unsigned short, unsigned char*, unsigned int, bool, bool)+0x3e>
  int16_t state = this->SPItransferStream(cmd, cmdLen, false, NULL, data, numBytes, waitForGpio);
     c02:	08d2      	lsrs	r2, r2, #3
     c04:	4638      	mov	r0, r7
     c06:	f8cd 9004 	str.w	r9, [sp, #4]
     c0a:	e9cd 3a02 	strd	r3, sl, [sp, #8]
     c0e:	2300      	movs	r3, #0
     c10:	9300      	str	r3, [sp, #0]
     c12:	f7ff fcbb 	bl	58c <Module::SPItransferStream(unsigned char const*, unsigned char, bool, unsigned char*, unsigned char*, unsigned int, bool)>
  RADIOLIB_ASSERT(state);
     c16:	b930      	cbnz	r0, c26 <Module::SPIreadStream(unsigned short, unsigned char*, unsigned int, bool, bool)+0x7a>
  if(verify && (this->spiConfig.checkStatusCb != nullptr)) {
     c18:	f1b8 0f00 	cmp.w	r8, #0
     c1c:	d003      	beq.n	c26 <Module::SPIreadStream(unsigned short, unsigned char*, unsigned int, bool, bool)+0x7a>
     c1e:	69bb      	ldr	r3, [r7, #24]
     c20:	b10b      	cbz	r3, c26 <Module::SPIreadStream(unsigned short, unsigned char*, unsigned int, bool, bool)+0x7a>
    state = this->spiConfig.checkStatusCb(this);
     c22:	4638      	mov	r0, r7
     c24:	4798      	blx	r3
}
     c26:	b006      	add	sp, #24
     c28:	e8bd 87f0 	ldmia.w	sp!, {r4, r5, r6, r7, r8, r9, sl, pc}
     c2c:	a905      	add	r1, sp, #20
     c2e:	e7e8      	b.n	c02 <Module::SPIreadStream(unsigned short, unsigned char*, unsigned int, bool, bool)+0x56>

00000c30 <Module::SPIwriteStream(unsigned short, unsigned char*, unsigned int, bool, bool)>:
int16_t Module::SPIwriteStream(uint16_t cmd, uint8_t* data, size_t numBytes, bool waitForGpio, bool verify) {
     c30:	e92d 47f0 	stmdb	sp!, {r4, r5, r6, r7, r8, r9, sl, lr}
  for(int8_t i = (int8_t)this->spiConfig.widths[RADIOLIB_MODULE_SPI_WIDTH_CMD]/8 - 1; i >= 0; i--) {
     c34:	f990 5011 	ldrsb.w	r5, [r0, #17]
int16_t Module::SPIwriteStream(uint16_t cmd, uint8_t* data, size_t numBytes, bool waitForGpio, bool verify) {
     c38:	b086      	sub	sp, #24
     c3a:	4607      	mov	r7, r0
     c3c:	460e      	mov	r6, r1
  for(int8_t i = (int8_t)this->spiConfig.widths[RADIOLIB_MODULE_SPI_WIDTH_CMD]/8 - 1; i >= 0; i--) {
     c3e:	2d00      	cmp	r5, #0
int16_t Module::SPIwriteStream(uint16_t cmd, uint8_t* data, size_t numBytes, bool waitForGpio, bool verify) {
     c40:	f89d a038 	ldrb.w	sl, [sp, #56]	; 0x38
     c44:	f89d 803c 	ldrb.w	r8, [sp, #60]	; 0x3c
  for(int8_t i = (int8_t)this->spiConfig.widths[RADIOLIB_MODULE_SPI_WIDTH_CMD]/8 - 1; i >= 0; i--) {
     c48:	bfb8      	it	lt
     c4a:	3507      	addlt	r5, #7
     c4c:	f890 9011 	ldrb.w	r9, [r0, #17]
     c50:	f3c5 05c7 	ubfx	r5, r5, #3, #8
     c54:	f105 3eff 	add.w	lr, r5, #4294967295
     c58:	fa4f fe8e 	sxtb.w	lr, lr
     c5c:	f1be 0f00 	cmp.w	lr, #0
     c60:	db27      	blt.n	cb2 <Module::SPIwriteStream(unsigned short, unsigned char*, unsigned int, bool, bool)+0x82>
  uint8_t* cmdPtr = cmdBuf;
     c62:	a905      	add	r1, sp, #20
     c64:	ea4f 0ece 	mov.w	lr, lr, lsl #3
  for(int8_t i = (int8_t)this->spiConfig.widths[RADIOLIB_MODULE_SPI_WIDTH_CMD]/8 - 1; i >= 0; i--) {
     c68:	f10d 0013 	add.w	r0, sp, #19
  uint8_t* cmdPtr = cmdBuf;
     c6c:	460c      	mov	r4, r1
    *(cmdPtr++) = (cmd >> 8*i) & 0xFF;
     c6e:	fa46 fc0e 	asr.w	ip, r6, lr
     c72:	f1ae 0e08 	sub.w	lr, lr, #8
     c76:	f804 cb01 	strb.w	ip, [r4], #1
  for(int8_t i = (int8_t)this->spiConfig.widths[RADIOLIB_MODULE_SPI_WIDTH_CMD]/8 - 1; i >= 0; i--) {
     c7a:	eba0 0c04 	sub.w	ip, r0, r4
     c7e:	44ac      	add	ip, r5
     c80:	f01c 0f80 	tst.w	ip, #128	; 0x80
     c84:	d0f3      	beq.n	c6e <Module::SPIwriteStream(unsigned short, unsigned char*, unsigned int, bool, bool)+0x3e>
  int16_t state = this->SPItransferStream(cmd, cmdLen, true, data, NULL, numBytes, waitForGpio);
     c86:	2000      	movs	r0, #0
     c88:	9200      	str	r2, [sp, #0]
     c8a:	ea4f 02d9 	mov.w	r2, r9, lsr #3
     c8e:	9001      	str	r0, [sp, #4]
     c90:	4638      	mov	r0, r7
     c92:	e9cd 3a02 	strd	r3, sl, [sp, #8]
     c96:	2301      	movs	r3, #1
     c98:	f7ff fc78 	bl	58c <Module::SPItransferStream(unsigned char const*, unsigned char, bool, unsigned char*, unsigned char*, unsigned int, bool)>
  RADIOLIB_ASSERT(state);
     c9c:	b930      	cbnz	r0, cac <Module::SPIwriteStream(unsigned short, unsigned char*, unsigned int, bool, bool)+0x7c>
  if(verify && (this->spiConfig.checkStatusCb != nullptr)) {
     c9e:	f1b8 0f00 	cmp.w	r8, #0
     ca2:	d003      	beq.n	cac <Module::SPIwriteStream(unsigned short, unsigned char*, unsigned int, bool, bool)+0x7c>
  if(verify && (this->spiConfig.checkStatusCb != nullptr)) {
     ca4:	69bb      	ldr	r3, [r7, #24]
     ca6:	b10b      	cbz	r3, cac <Module::SPIwriteStream(unsigned short, unsigned char*, unsigned int, bool, bool)+0x7c>
    state = this->spiConfig.checkStatusCb(this);
     ca8:	4638      	mov	r0, r7
     caa:	4798      	blx	r3
}
     cac:	b006      	add	sp, #24
     cae:	e8bd 87f0 	ldmia.w	sp!, {r4, r5, r6, r7, r8, r9, sl, pc}
     cb2:	a905      	add	r1, sp, #20
     cb4:	e7e7      	b.n	c86 <Module::SPIwriteStream(unsigned short, unsigned char*, unsigned int, bool, bool)+0x56>
     cb6:	bf00      	nop

00000cb8 <Module::setRfSwitchTable(unsigned long const (&) [5], Module::RfSwitchMode_t const*)>:
    END_OF_MODE_TABLE,
  };
  setRfSwitchTable(pins, table);
}

void Module::setRfSwitchTable(const uint32_t (&pins)[RFSWITCH_MAX_PINS], const RfSwitchMode_t table[]) {
     cb8:	b570      	push	{r4, r5, r6, lr}
     cba:	4606      	mov	r6, r0
  memcpy(this->rfSwitchPins, pins, sizeof(this->rfSwitchPins));
     cbc:	680b      	ldr	r3, [r1, #0]
     cbe:	684d      	ldr	r5, [r1, #4]
     cc0:	688c      	ldr	r4, [r1, #8]
     cc2:	68c8      	ldr	r0, [r1, #12]
     cc4:	6375      	str	r5, [r6, #52]	; 0x34
     cc6:	f101 0510 	add.w	r5, r1, #16
     cca:	63b4      	str	r4, [r6, #56]	; 0x38
     ccc:	1f0c      	subs	r4, r1, #4
     cce:	6333      	str	r3, [r6, #48]	; 0x30
     cd0:	63f0      	str	r0, [r6, #60]	; 0x3c
     cd2:	690b      	ldr	r3, [r1, #16]
  this->rfSwitchTable = table;
     cd4:	6472      	str	r2, [r6, #68]	; 0x44
  memcpy(this->rfSwitchPins, pins, sizeof(this->rfSwitchPins));
     cd6:	6433      	str	r3, [r6, #64]	; 0x40
  for(size_t i = 0; i < RFSWITCH_MAX_PINS; i++) {
    this->hal->pinMode(pins[i], this->hal->GpioModeOutput);
     cd8:	6830      	ldr	r0, [r6, #0]
     cda:	f854 1f04 	ldr.w	r1, [r4, #4]!
     cde:	6803      	ldr	r3, [r0, #0]
     ce0:	6882      	ldr	r2, [r0, #8]
     ce2:	681b      	ldr	r3, [r3, #0]
     ce4:	4798      	blx	r3
  for(size_t i = 0; i < RFSWITCH_MAX_PINS; i++) {
     ce6:	42ac      	cmp	r4, r5
     ce8:	d1f6      	bne.n	cd8 <Module::setRfSwitchTable(unsigned long const (&) [5], Module::RfSwitchMode_t const*)+0x20>
  }
}
     cea:	bd70      	pop	{r4, r5, r6, pc}

00000cec <Module::setRfSwitchPins(unsigned long, unsigned long)>:
void Module::setRfSwitchPins(uint32_t rxEn, uint32_t txEn) {
     cec:	b510      	push	{r4, lr}
  const uint32_t pins[] = {
     cee:	f04f 33ff 	mov.w	r3, #4294967295
void Module::setRfSwitchPins(uint32_t rxEn, uint32_t txEn) {
     cf2:	b086      	sub	sp, #24
  };
     cf4:	4c0d      	ldr	r4, [pc, #52]	; (d2c <Module::setRfSwitchPins(unsigned long, unsigned long)+0x40>)
  const uint32_t pins[] = {
     cf6:	9305      	str	r3, [sp, #20]
     cf8:	e9cd 3303 	strd	r3, r3, [sp, #12]
  };
     cfc:	6823      	ldr	r3, [r4, #0]
     cfe:	07db      	lsls	r3, r3, #31
  };
     d00:	e9cd 1201 	strd	r1, r2, [sp, #4]
  };
     d04:	d40b      	bmi.n	d1e <Module::setRfSwitchPins(unsigned long, unsigned long)+0x32>
    { MODE_IDLE,  {this->hal->GpioLevelLow,  this->hal->GpioLevelLow} },
     d06:	6801      	ldr	r1, [r0, #0]
  };
     d08:	4b09      	ldr	r3, [pc, #36]	; (d30 <Module::setRfSwitchPins(unsigned long, unsigned long)+0x44>)
    { MODE_RX,    {this->hal->GpioLevelHigh, this->hal->GpioLevelLow} },
     d0a:	e9d1 2103 	ldrd	r2, r1, [r1, #12]
  };
     d0e:	61d9      	str	r1, [r3, #28]
     d10:	6399      	str	r1, [r3, #56]	; 0x38
     d12:	2101      	movs	r1, #1
     d14:	621a      	str	r2, [r3, #32]
     d16:	635a      	str	r2, [r3, #52]	; 0x34
     d18:	6021      	str	r1, [r4, #0]
     d1a:	e9c3 2201 	strd	r2, r2, [r3, #4]
  setRfSwitchTable(pins, table);
     d1e:	4a04      	ldr	r2, [pc, #16]	; (d30 <Module::setRfSwitchPins(unsigned long, unsigned long)+0x44>)
     d20:	a901      	add	r1, sp, #4
     d22:	f7ff ffc9 	bl	cb8 <Module::setRfSwitchTable(unsigned long const (&) [5], Module::RfSwitchMode_t const*)>
}
     d26:	b006      	add	sp, #24
     d28:	bd10      	pop	{r4, pc}
     d2a:	bf00      	nop
     d2c:	20001dcc 	.word	0x20001dcc
     d30:	20000d4c 	.word	0x20000d4c

00000d34 <Module::setRfSwitchState(unsigned char)>:
    ++row;
  }
  return nullptr;
}

void Module::setRfSwitchState(uint8_t mode) {
     d34:	b5f8      	push	{r3, r4, r5, r6, r7, lr}
  const RfSwitchMode_t *row = this->rfSwitchTable;
     d36:	6c44      	ldr	r4, [r0, #68]	; 0x44
  while(row && row->mode != MODE_END_OF_TABLE) {
     d38:	b13c      	cbz	r4, d4a <Module::setRfSwitchState(unsigned char)+0x16>
     d3a:	4606      	mov	r6, r0
     d3c:	e002      	b.n	d44 <Module::setRfSwitchState(unsigned char)+0x10>
    if(row->mode == mode) {
     d3e:	4291      	cmp	r1, r2
     d40:	d004      	beq.n	d4c <Module::setRfSwitchState(unsigned char)+0x18>
    ++row;
     d42:	3418      	adds	r4, #24
  while(row && row->mode != MODE_END_OF_TABLE) {
     d44:	7822      	ldrb	r2, [r4, #0]
     d46:	2a00      	cmp	r2, #0
     d48:	d1f9      	bne.n	d3e <Module::setRfSwitchState(unsigned char)+0xa>
    if(!(pin & RFSWITCH_PIN_FLAG)) {
      this->hal->digitalWrite(pin, *value);
    }
    ++value;
  }
}
     d4a:	bdf8      	pop	{r3, r4, r5, r6, r7, pc}
  const uint32_t *value = &row->values[0];
     d4c:	3404      	adds	r4, #4
  for(size_t i = 0; i < RFSWITCH_MAX_PINS; i++) {
     d4e:	f106 052c 	add.w	r5, r6, #44	; 0x2c
     d52:	f106 0740 	add.w	r7, r6, #64	; 0x40
    uint32_t pin = this->rfSwitchPins[i];
     d56:	f855 1f04 	ldr.w	r1, [r5, #4]!
    if(!(pin & RFSWITCH_PIN_FLAG)) {
     d5a:	2900      	cmp	r1, #0
     d5c:	db04      	blt.n	d68 <Module::setRfSwitchState(unsigned char)+0x34>
      this->hal->digitalWrite(pin, *value);
     d5e:	6830      	ldr	r0, [r6, #0]
     d60:	6822      	ldr	r2, [r4, #0]
     d62:	6803      	ldr	r3, [r0, #0]
     d64:	685b      	ldr	r3, [r3, #4]
     d66:	4798      	blx	r3
  for(size_t i = 0; i < RFSWITCH_MAX_PINS; i++) {
     d68:	42af      	cmp	r7, r5
    ++value;
     d6a:	f104 0404 	add.w	r4, r4, #4
  for(size_t i = 0; i < RFSWITCH_MAX_PINS; i++) {
     d6e:	d1f2      	bne.n	d56 <Module::setRfSwitchState(unsigned char)+0x22>
}
     d70:	bdf8      	pop	{r3, r4, r5, r6, r7, pc}
     d72:	bf00      	nop

00000d74 <ArduinoHal::delayMicroseconds(unsigned long)>:
// Wait for a number of microseconds.  During this time, interrupts remain
// active, but the rest of your program becomes effectively stalled.  For shorter
// delay, use delayNanoseconds().
static inline void delayMicroseconds(uint32_t usec)
{
	uint32_t begin = ARM_DWT_CYCCNT;
     d74:	4a08      	ldr	r2, [pc, #32]	; (d98 <ArduinoHal::delayMicroseconds(unsigned long)+0x24>)
	uint32_t cycles = F_CPU_ACTUAL / 1000000 * usec;
     d76:	4b09      	ldr	r3, [pc, #36]	; (d9c <ArduinoHal::delayMicroseconds(unsigned long)+0x28>)
	uint32_t begin = ARM_DWT_CYCCNT;
     d78:	6850      	ldr	r0, [r2, #4]
	uint32_t cycles = F_CPU_ACTUAL / 1000000 * usec;
     d7a:	681b      	ldr	r3, [r3, #0]
#else
  ::delay(ms * 1000 / (1000 + RADIOLIB_CLOCK_DRIFT_MS));
#endif
}

void inline ArduinoHal::delayMicroseconds(RadioLibTime_t us) {
     d7c:	b410      	push	{r4}
     d7e:	4c08      	ldr	r4, [pc, #32]	; (da0 <ArduinoHal::delayMicroseconds(unsigned long)+0x2c>)
     d80:	fba4 4303 	umull	r4, r3, r4, r3
     d84:	0c9b      	lsrs	r3, r3, #18
     d86:	fb03 f101 	mul.w	r1, r3, r1
	// TODO: check if cycles is large, do a wait with yield calls until it's smaller
	while (ARM_DWT_CYCCNT - begin < cycles) ; // wait
     d8a:	6853      	ldr	r3, [r2, #4]
     d8c:	1a1b      	subs	r3, r3, r0
     d8e:	4299      	cmp	r1, r3
     d90:	d8fb      	bhi.n	d8a <ArduinoHal::delayMicroseconds(unsigned long)+0x16>
#if !defined(RADIOLIB_CLOCK_DRIFT_MS)
  ::delayMicroseconds(us);
#else
  ::delayMicroseconds(us * 1000 / (1000 + RADIOLIB_CLOCK_DRIFT_MS));
#endif
}
     d92:	f85d 4b04 	ldr.w	r4, [sp], #4
     d96:	4770      	bx	lr
     d98:	e0001000 	.word	0xe0001000
     d9c:	20000cdc 	.word	0x20000cdc
     da0:	431bde83 	.word	0x431bde83

00000da4 <ArduinoHal::millis()>:
	return systick_millis_count;
     da4:	4b01      	ldr	r3, [pc, #4]	; (dac <ArduinoHal::millis()+0x8>)
     da6:	6818      	ldr	r0, [r3, #0]
#if !defined(RADIOLIB_CLOCK_DRIFT_MS)
  return(::millis());
#else
  return(::millis() * 1000 / (1000 + RADIOLIB_CLOCK_DRIFT_MS));
#endif
}
     da8:	4770      	bx	lr
     daa:	bf00      	nop
     dac:	2000234c 	.word	0x2000234c

00000db0 <ArduinoHal::spiTransfer(unsigned char*, unsigned int, unsigned char*)>:
void inline ArduinoHal::spiBeginTransaction() {
  spi->beginTransaction(spiSettings);
}

void ArduinoHal::spiTransfer(uint8_t* out, size_t len, uint8_t* in) {
  for(size_t i = 0; i < len; i++) {
     db0:	b1aa      	cbz	r2, dde <ArduinoHal::spiTransfer(unsigned char*, unsigned int, unsigned char*)+0x2e>
     db2:	3901      	subs	r1, #1
     db4:	f103 3cff 	add.w	ip, r3, #4294967295
void ArduinoHal::spiTransfer(uint8_t* out, size_t len, uint8_t* in) {
     db8:	b500      	push	{lr}
     dba:	eb01 0e02 	add.w	lr, r1, r2
	// programs/sketches.  See the ILI3941_t3 library for an example.
	uint8_t setCS(uint8_t pin);

private:
private:
	IMXRT_LPSPI_t & port() { return *(IMXRT_LPSPI_t *)port_addr; }
     dbe:	69c2      	ldr	r2, [r0, #28]
		port().TDR = data;
     dc0:	f811 3f01 	ldrb.w	r3, [r1, #1]!
	IMXRT_LPSPI_t & port() { return *(IMXRT_LPSPI_t *)port_addr; }
     dc4:	6812      	ldr	r2, [r2, #0]
		port().TDR = data;
     dc6:	6653      	str	r3, [r2, #100]	; 0x64
			uint32_t fifo = (port().FSR >> 16) & 0x1F;
     dc8:	6dd3      	ldr	r3, [r2, #92]	; 0x5c
			if (fifo > 0) return port().RDR;
     dca:	f413 1ff8 	tst.w	r3, #2031616	; 0x1f0000
     dce:	d0fb      	beq.n	dc8 <ArduinoHal::spiTransfer(unsigned char*, unsigned int, unsigned char*)+0x18>
     dd0:	6f53      	ldr	r3, [r2, #116]	; 0x74
  for(size_t i = 0; i < len; i++) {
     dd2:	4571      	cmp	r1, lr
     dd4:	f80c 3f01 	strb.w	r3, [ip, #1]!
     dd8:	d1f1      	bne.n	dbe <ArduinoHal::spiTransfer(unsigned char*, unsigned int, unsigned char*)+0xe>
    in[i] = spi->transfer(out[i]);
  }
}
     dda:	f85d fb04 	ldr.w	pc, [sp], #4
     dde:	4770      	bx	lr

00000de0 <ArduinoHal::spiEndTransaction()>:

void inline ArduinoHal::spiEndTransaction() {
  spi->endTransaction();
     de0:	69c2      	ldr	r2, [r0, #28]
		if (interruptMasksUsed) {
     de2:	7cd3      	ldrb	r3, [r2, #19]
     de4:	b313      	cbz	r3, e2c <ArduinoHal::spiEndTransaction()+0x4c>
			if (interruptMasksUsed & 0x01) NVIC_ISER0 = interruptSave[0];
     de6:	07d8      	lsls	r0, r3, #31
     de8:	d504      	bpl.n	df4 <ArduinoHal::spiEndTransaction()+0x14>
     dea:	6a90      	ldr	r0, [r2, #40]	; 0x28
     dec:	f04f 21e0 	mov.w	r1, #3758153728	; 0xe000e000
     df0:	f8c1 0100 	str.w	r0, [r1, #256]	; 0x100
			if (interruptMasksUsed & 0x02) NVIC_ISER1 = interruptSave[1];
     df4:	0799      	lsls	r1, r3, #30
     df6:	d504      	bpl.n	e02 <ArduinoHal::spiEndTransaction()+0x22>
     df8:	6ad0      	ldr	r0, [r2, #44]	; 0x2c
     dfa:	f04f 21e0 	mov.w	r1, #3758153728	; 0xe000e000
     dfe:	f8c1 0104 	str.w	r0, [r1, #260]	; 0x104
			if (interruptMasksUsed & 0x04) NVIC_ISER2 = interruptSave[2];
     e02:	0758      	lsls	r0, r3, #29
     e04:	d504      	bpl.n	e10 <ArduinoHal::spiEndTransaction()+0x30>
     e06:	6b10      	ldr	r0, [r2, #48]	; 0x30
     e08:	f04f 21e0 	mov.w	r1, #3758153728	; 0xe000e000
     e0c:	f8c1 0108 	str.w	r0, [r1, #264]	; 0x108
			if (interruptMasksUsed & 0x08) NVIC_ISER3 = interruptSave[3];
     e10:	0719      	lsls	r1, r3, #28
     e12:	d504      	bpl.n	e1e <ArduinoHal::spiEndTransaction()+0x3e>
     e14:	6b50      	ldr	r0, [r2, #52]	; 0x34
     e16:	f04f 21e0 	mov.w	r1, #3758153728	; 0xe000e000
     e1a:	f8c1 010c 	str.w	r0, [r1, #268]	; 0x10c
			if (interruptMasksUsed & 0x10) NVIC_ISER4 = interruptSave[4];
     e1e:	06db      	lsls	r3, r3, #27
     e20:	d504      	bpl.n	e2c <ArduinoHal::spiEndTransaction()+0x4c>
     e22:	6b92      	ldr	r2, [r2, #56]	; 0x38
     e24:	f04f 23e0 	mov.w	r3, #3758153728	; 0xe000e000
     e28:	f8c3 2110 	str.w	r2, [r3, #272]	; 0x110
}
     e2c:	4770      	bx	lr
     e2e:	bf00      	nop

00000e30 <ArduinoHal::pinToInterrupt(unsigned long)>:
  ::yield();
  #endif
}

uint32_t inline ArduinoHal::pinToInterrupt(uint32_t pin) {
  return(digitalPinToInterrupt(pin));
     e30:	2928      	cmp	r1, #40	; 0x28
}
     e32:	bf34      	ite	cc
     e34:	4608      	movcc	r0, r1
     e36:	f04f 30ff 	movcs.w	r0, #4294967295
     e3a:	4770      	bx	lr

00000e3c <ArduinoHal::spiBegin()>:
  spi->begin();
     e3c:	69c0      	ldr	r0, [r0, #28]
     e3e:	f004 bc41 	b.w	56c4 <SPIClass::begin()>
     e42:	bf00      	nop

00000e44 <ArduinoHal::spiEnd()>:
  spi->end();
     e44:	69c0      	ldr	r0, [r0, #28]
     e46:	f004 bd57 	b.w	58f8 <SPIClass::end()>
     e4a:	bf00      	nop

00000e4c <ArduinoHal::yield()>:
  ::yield();
     e4c:	f006 beb0 	b.w	7bb0 <yield>

00000e50 <ArduinoHal::noTone(unsigned long)>:
    if(pin == RADIOLIB_NC) {
     e50:	1c4b      	adds	r3, r1, #1
     e52:	d002      	beq.n	e5a <ArduinoHal::noTone(unsigned long)+0xa>
    ::noTone(pin);
     e54:	b2c8      	uxtb	r0, r1
     e56:	f005 b85f 	b.w	5f18 <noTone(unsigned char)>
}
     e5a:	4770      	bx	lr

00000e5c <ArduinoHal::tone(unsigned long, unsigned int, unsigned long)>:
void inline ArduinoHal::tone(uint32_t pin, unsigned int frequency, RadioLibTime_t duration) {
     e5c:	4608      	mov	r0, r1
     e5e:	4611      	mov	r1, r2
     e60:	461a      	mov	r2, r3
    if(pin == RADIOLIB_NC) {
     e62:	1c43      	adds	r3, r0, #1
     e64:	d003      	beq.n	e6e <ArduinoHal::tone(unsigned long, unsigned int, unsigned long)+0x12>
    ::tone(pin, frequency, duration);
     e66:	b289      	uxth	r1, r1
     e68:	b2c0      	uxtb	r0, r0
     e6a:	f004 bfa1 	b.w	5db0 <tone(unsigned char, unsigned short, unsigned long)>
}
     e6e:	4770      	bx	lr

00000e70 <ArduinoHal::pulseIn(unsigned long, unsigned long, unsigned long)>:
long inline ArduinoHal::pulseIn(uint32_t pin, uint32_t state, RadioLibTime_t timeout) {
     e70:	4608      	mov	r0, r1
     e72:	4611      	mov	r1, r2
     e74:	461a      	mov	r2, r3
  if(pin == RADIOLIB_NC) {
     e76:	1c43      	adds	r3, r0, #1
     e78:	d003      	beq.n	e82 <ArduinoHal::pulseIn(unsigned long, unsigned long, unsigned long)+0x12>
  return(::pulseIn(pin, state, timeout));
     e7a:	b2c9      	uxtb	r1, r1
     e7c:	b2c0      	uxtb	r0, r0
     e7e:	f005 bba9 	b.w	65d4 <pulseIn>
}
     e82:	2000      	movs	r0, #0
     e84:	4770      	bx	lr
     e86:	bf00      	nop

00000e88 <ArduinoHal::micros()>:
  return(::micros());
     e88:	f005 ba96 	b.w	63b8 <micros>

00000e8c <ArduinoHal::delay(unsigned long)>:
  ::delay(ms);
     e8c:	4608      	mov	r0, r1
     e8e:	f005 ba3f 	b.w	6310 <delay>
     e92:	bf00      	nop

00000e94 <ArduinoHal::detachInterrupt(unsigned long)>:
  if(interruptNum == RADIOLIB_NC) {
     e94:	1c4b      	adds	r3, r1, #1
     e96:	d002      	beq.n	e9e <ArduinoHal::detachInterrupt(unsigned long)+0xa>
  ::detachInterrupt(interruptNum);
     e98:	b2c8      	uxtb	r0, r1
     e9a:	f005 bc2b 	b.w	66f4 <detachInterrupt>
}
     e9e:	4770      	bx	lr

00000ea0 <ArduinoHal::attachInterrupt(unsigned long, void (*)(), unsigned long)>:
void inline ArduinoHal::attachInterrupt(uint32_t interruptNum, void (*interruptCb)(void), uint32_t mode) {
     ea0:	4608      	mov	r0, r1
     ea2:	4611      	mov	r1, r2
     ea4:	461a      	mov	r2, r3
  if(interruptNum == RADIOLIB_NC) {
     ea6:	1c43      	adds	r3, r0, #1
     ea8:	d002      	beq.n	eb0 <ArduinoHal::attachInterrupt(unsigned long, void (*)(), unsigned long)+0x10>
  ::attachInterrupt(interruptNum, interruptCb,  RADIOLIB_ARDUINOHAL_INTERRUPT_MODE_CAST mode);
     eaa:	b2c0      	uxtb	r0, r0
     eac:	f005 bba0 	b.w	65f0 <attachInterrupt>
}
     eb0:	4770      	bx	lr
     eb2:	bf00      	nop

00000eb4 <ArduinoHal::digitalRead(unsigned long)>:
  if(pin == RADIOLIB_NC) {
     eb4:	1c4a      	adds	r2, r1, #1
     eb6:	d004      	beq.n	ec2 <ArduinoHal::digitalRead(unsigned long)+0xe>
  return(::digitalRead(pin));
     eb8:	b2c8      	uxtb	r0, r1
uint32_t inline ArduinoHal::digitalRead(uint32_t pin) {
     eba:	b508      	push	{r3, lr}
  return(::digitalRead(pin));
     ebc:	f005 fad0 	bl	6460 <digitalRead>
}
     ec0:	bd08      	pop	{r3, pc}
    return 0;
     ec2:	2000      	movs	r0, #0
}
     ec4:	4770      	bx	lr
     ec6:	bf00      	nop

00000ec8 <ArduinoHal::digitalWrite(unsigned long, unsigned long)>:
  if(pin == RADIOLIB_NC) {
     ec8:	1c4b      	adds	r3, r1, #1
void inline ArduinoHal::digitalWrite(uint32_t pin, uint32_t value) {
     eca:	4608      	mov	r0, r1
  if(pin == RADIOLIB_NC) {
     ecc:	d003      	beq.n	ed6 <ArduinoHal::digitalWrite(unsigned long, unsigned long)+0xe>
  ::digitalWrite(pin, RADIOLIB_ARDUINOHAL_PIN_STATUS_CAST value);
     ece:	b2d1      	uxtb	r1, r2
     ed0:	b2c0      	uxtb	r0, r0
     ed2:	f005 ba9b 	b.w	640c <digitalWrite>
}
     ed6:	4770      	bx	lr

00000ed8 <ArduinoHal::pinMode(unsigned long, unsigned long)>:
  if(pin == RADIOLIB_NC) {
     ed8:	1c4b      	adds	r3, r1, #1
void inline ArduinoHal::pinMode(uint32_t pin, uint32_t mode) {
     eda:	4608      	mov	r0, r1
  if(pin == RADIOLIB_NC) {
     edc:	d003      	beq.n	ee6 <ArduinoHal::pinMode(unsigned long, unsigned long)+0xe>
  ::pinMode(pin, RADIOLIB_ARDUINOHAL_PIN_MODE_CAST mode);
     ede:	b2d1      	uxtb	r1, r2
     ee0:	b2c0      	uxtb	r0, r0
     ee2:	f005 bacf 	b.w	6484 <pinMode>
}
     ee6:	4770      	bx	lr

00000ee8 <ArduinoHal::term()>:
  if(initInterface) {
     ee8:	f890 2028 	ldrb.w	r2, [r0, #40]	; 0x28
     eec:	b13a      	cbz	r2, efe <ArduinoHal::term()+0x16>
    spiEnd();
     eee:	6802      	ldr	r2, [r0, #0]
     ef0:	4904      	ldr	r1, [pc, #16]	; (f04 <ArduinoHal::term()+0x1c>)
     ef2:	6b92      	ldr	r2, [r2, #56]	; 0x38
     ef4:	428a      	cmp	r2, r1
     ef6:	d103      	bne.n	f00 <ArduinoHal::term()+0x18>
  spi->end();
     ef8:	69c0      	ldr	r0, [r0, #28]
     efa:	f004 bcfd 	b.w	58f8 <SPIClass::end()>
}
     efe:	4770      	bx	lr
    spiEnd();
     f00:	4710      	bx	r2
     f02:	bf00      	nop
     f04:	00000e45 	.word	0x00000e45

00000f08 <ArduinoHal::init()>:
  if(initInterface) {
     f08:	f890 2028 	ldrb.w	r2, [r0, #40]	; 0x28
     f0c:	b13a      	cbz	r2, f1e <ArduinoHal::init()+0x16>
    spiBegin();
     f0e:	6802      	ldr	r2, [r0, #0]
     f10:	4904      	ldr	r1, [pc, #16]	; (f24 <ArduinoHal::init()+0x1c>)
     f12:	6a92      	ldr	r2, [r2, #40]	; 0x28
     f14:	428a      	cmp	r2, r1
     f16:	d103      	bne.n	f20 <ArduinoHal::init()+0x18>
  spi->begin();
     f18:	69c0      	ldr	r0, [r0, #28]
     f1a:	f004 bbd3 	b.w	56c4 <SPIClass::begin()>
}
     f1e:	4770      	bx	lr
    spiBegin();
     f20:	4710      	bx	r2
     f22:	bf00      	nop
     f24:	00000e3d 	.word	0x00000e3d

00000f28 <SPIClass::beginTransaction(SPISettings)>:
	void beginTransaction(SPISettings settings) {
     f28:	b430      	push	{r4, r5}
     f2a:	b082      	sub	sp, #8
     f2c:	460c      	mov	r4, r1
     f2e:	ab02      	add	r3, sp, #8
     f30:	e903 0006 	stmdb	r3, {r1, r2}
		if (interruptMasksUsed) {
     f34:	7cc3      	ldrb	r3, [r0, #19]
     f36:	2b00      	cmp	r3, #0
     f38:	d030      	beq.n	f9c <SPIClass::beginTransaction(SPISettings)+0x74>
			__disable_irq();
     f3a:	b672      	cpsid	i
			if (interruptMasksUsed & 0x01) {
     f3c:	7cc3      	ldrb	r3, [r0, #19]
     f3e:	07da      	lsls	r2, r3, #31
     f40:	d508      	bpl.n	f54 <SPIClass::beginTransaction(SPISettings)+0x2c>
				interruptSave[0] = NVIC_ICER0 & interruptMask[0];
     f42:	f04f 21e0 	mov.w	r1, #3758153728	; 0xe000e000
     f46:	6945      	ldr	r5, [r0, #20]
     f48:	f8d1 2180 	ldr.w	r2, [r1, #384]	; 0x180
     f4c:	402a      	ands	r2, r5
     f4e:	6282      	str	r2, [r0, #40]	; 0x28
				NVIC_ICER0 = interruptSave[0];
     f50:	f8c1 2180 	str.w	r2, [r1, #384]	; 0x180
			if (interruptMasksUsed & 0x02) {
     f54:	079d      	lsls	r5, r3, #30
     f56:	d508      	bpl.n	f6a <SPIClass::beginTransaction(SPISettings)+0x42>
				interruptSave[1] = NVIC_ICER1 & interruptMask[1];
     f58:	f04f 21e0 	mov.w	r1, #3758153728	; 0xe000e000
     f5c:	6985      	ldr	r5, [r0, #24]
     f5e:	f8d1 2184 	ldr.w	r2, [r1, #388]	; 0x184
     f62:	402a      	ands	r2, r5
     f64:	62c2      	str	r2, [r0, #44]	; 0x2c
				NVIC_ICER1 = interruptSave[1];
     f66:	f8c1 2184 	str.w	r2, [r1, #388]	; 0x184
			if (interruptMasksUsed & 0x04) {
     f6a:	0759      	lsls	r1, r3, #29
     f6c:	d508      	bpl.n	f80 <SPIClass::beginTransaction(SPISettings)+0x58>
				interruptSave[2] = NVIC_ICER2 & interruptMask[2];
     f6e:	f04f 21e0 	mov.w	r1, #3758153728	; 0xe000e000
     f72:	69c5      	ldr	r5, [r0, #28]
     f74:	f8d1 2188 	ldr.w	r2, [r1, #392]	; 0x188
     f78:	402a      	ands	r2, r5
     f7a:	6302      	str	r2, [r0, #48]	; 0x30
				NVIC_ICER2 = interruptSave[2];
     f7c:	f8c1 2188 	str.w	r2, [r1, #392]	; 0x188
			if (interruptMasksUsed & 0x08) {
     f80:	071a      	lsls	r2, r3, #28
     f82:	d508      	bpl.n	f96 <SPIClass::beginTransaction(SPISettings)+0x6e>
				interruptSave[3] = NVIC_ICER3 & interruptMask[3];
     f84:	f04f 21e0 	mov.w	r1, #3758153728	; 0xe000e000
     f88:	6a05      	ldr	r5, [r0, #32]
     f8a:	f8d1 218c 	ldr.w	r2, [r1, #396]	; 0x18c
     f8e:	402a      	ands	r2, r5
     f90:	6342      	str	r2, [r0, #52]	; 0x34
				NVIC_ICER3 = interruptSave[3];
     f92:	f8c1 218c 	str.w	r2, [r1, #396]	; 0x18c
			if (interruptMasksUsed & 0x10) {
     f96:	06db      	lsls	r3, r3, #27
     f98:	d42f      	bmi.n	ffa <SPIClass::beginTransaction(SPISettings)+0xd2>
			__enable_irq();
     f9a:	b662      	cpsie	i
		if (settings.clock() != _clock) {
     f9c:	6883      	ldr	r3, [r0, #8]
     f9e:	429c      	cmp	r4, r3
     fa0:	d035      	beq.n	100e <SPIClass::beginTransaction(SPISettings)+0xe6>
			uint32_t cbcmr = CCM_CBCMR;
     fa2:	4b22      	ldr	r3, [pc, #136]	; (102c <SPIClass::beginTransaction(SPISettings)+0x104>)
		    _clock = settings.clock();
     fa4:	6084      	str	r4, [r0, #8]
			uint32_t cbcmr = CCM_CBCMR;
     fa6:	699b      	ldr	r3, [r3, #24]
			uint32_t clkhz = clk_sel[(cbcmr >> 4) & 0x03] / (((cbcmr >> 26 ) & 0x07 ) + 1);  // LPSPI peripheral clock
     fa8:	4a21      	ldr	r2, [pc, #132]	; (1030 <SPIClass::beginTransaction(SPISettings)+0x108>)
     faa:	f3c3 1101 	ubfx	r1, r3, #4, #2
     fae:	f3c3 6382 	ubfx	r3, r3, #26, #3
     fb2:	f852 1021 	ldr.w	r1, [r2, r1, lsl #2]
     fb6:	3301      	adds	r3, #1
     fb8:	fbb1 f2f3 	udiv	r2, r1, r3
			d = _clock ? clkhz/_clock : clkhz;
     fbc:	b1cc      	cbz	r4, ff2 <SPIClass::beginTransaction(SPISettings)+0xca>
			if (d && clkhz/d > _clock) d++;
     fbe:	4294      	cmp	r4, r2
     fc0:	d827      	bhi.n	1012 <SPIClass::beginTransaction(SPISettings)+0xea>
			d = _clock ? clkhz/_clock : clkhz;
     fc2:	fbb2 f3f4 	udiv	r3, r2, r4
			if (d && clkhz/d > _clock) d++;
     fc6:	fbb2 f2f3 	udiv	r2, r2, r3
     fca:	4294      	cmp	r4, r2
     fcc:	d32c      	bcc.n	1028 <SPIClass::beginTransaction(SPISettings)+0x100>
			if (d > 257) d= 257;  // max div
     fce:	f5b3 7f81 	cmp.w	r3, #258	; 0x102
     fd2:	d320      	bcc.n	1016 <SPIClass::beginTransaction(SPISettings)+0xee>
     fd4:	4c17      	ldr	r4, [pc, #92]	; (1034 <SPIClass::beginTransaction(SPISettings)+0x10c>)
			_ccr = LPSPI_CCR_SCKDIV(div) | LPSPI_CCR_DBT(div/2) | LPSPI_CCR_PCSSCK(div/2);
     fd6:	60c4      	str	r4, [r0, #12]
	IMXRT_LPSPI_t & port() { return *(IMXRT_LPSPI_t *)port_addr; }
     fd8:	6803      	ldr	r3, [r0, #0]
		port().CFGR1 = LPSPI_CFGR1_MASTER | LPSPI_CFGR1_SAMPLE;
     fda:	2203      	movs	r2, #3
		port().CR = 0;
     fdc:	2000      	movs	r0, #0
		port().TCR = settings.tcr;
     fde:	9901      	ldr	r1, [sp, #4]
		port().CR = 0;
     fe0:	6118      	str	r0, [r3, #16]
		port().CFGR1 = LPSPI_CFGR1_MASTER | LPSPI_CFGR1_SAMPLE;
     fe2:	625a      	str	r2, [r3, #36]	; 0x24
		port().CR = LPSPI_CR_MEN;
     fe4:	2201      	movs	r2, #1
		port().CCR = _ccr;
     fe6:	641c      	str	r4, [r3, #64]	; 0x40
		port().TCR = settings.tcr;
     fe8:	6619      	str	r1, [r3, #96]	; 0x60
		port().CR = LPSPI_CR_MEN;
     fea:	611a      	str	r2, [r3, #16]
	}
     fec:	b002      	add	sp, #8
     fee:	bc30      	pop	{r4, r5}
     ff0:	4770      	bx	lr
			if (d && clkhz/d > _clock) d++;
     ff2:	4299      	cmp	r1, r3
     ff4:	d3ef      	bcc.n	fd6 <SPIClass::beginTransaction(SPISettings)+0xae>
     ff6:	1c53      	adds	r3, r2, #1
     ff8:	e7e9      	b.n	fce <SPIClass::beginTransaction(SPISettings)+0xa6>
				interruptSave[4] = NVIC_ICER4 & interruptMask[4];
     ffa:	f04f 22e0 	mov.w	r2, #3758153728	; 0xe000e000
     ffe:	6a41      	ldr	r1, [r0, #36]	; 0x24
    1000:	f8d2 3190 	ldr.w	r3, [r2, #400]	; 0x190
    1004:	400b      	ands	r3, r1
    1006:	6383      	str	r3, [r0, #56]	; 0x38
				NVIC_ICER4 = interruptSave[4];
    1008:	f8c2 3190 	str.w	r3, [r2, #400]	; 0x190
    100c:	e7c5      	b.n	f9a <SPIClass::beginTransaction(SPISettings)+0x72>
		port().CCR = _ccr;
    100e:	68c4      	ldr	r4, [r0, #12]
    1010:	e7e2      	b.n	fd8 <SPIClass::beginTransaction(SPISettings)+0xb0>
    1012:	2400      	movs	r4, #0
    1014:	e7df      	b.n	fd6 <SPIClass::beginTransaction(SPISettings)+0xae>
			if (d > 2) {
    1016:	2b02      	cmp	r3, #2
    1018:	d9fb      	bls.n	1012 <SPIClass::beginTransaction(SPISettings)+0xea>
				div = d-2;
    101a:	3b02      	subs	r3, #2
			_ccr = LPSPI_CCR_SCKDIV(div) | LPSPI_CCR_DBT(div/2) | LPSPI_CCR_PCSSCK(div/2);
    101c:	085a      	lsrs	r2, r3, #1
    101e:	0214      	lsls	r4, r2, #8
    1020:	ea44 4402 	orr.w	r4, r4, r2, lsl #16
    1024:	431c      	orrs	r4, r3
    1026:	e7d6      	b.n	fd6 <SPIClass::beginTransaction(SPISettings)+0xae>
			d = _clock ? clkhz/_clock : clkhz;
    1028:	461a      	mov	r2, r3
    102a:	e7e4      	b.n	ff6 <SPIClass::beginTransaction(SPISettings)+0xce>
    102c:	400fc000 	.word	0x400fc000
    1030:	20000794 	.word	0x20000794
    1034:	007f7fff 	.word	0x007f7fff

00001038 <ArduinoHal::spiBeginTransaction()>:
void inline ArduinoHal::spiBeginTransaction() {
    1038:	b508      	push	{r3, lr}
  spi->beginTransaction(spiSettings);
    103a:	f100 0320 	add.w	r3, r0, #32
    103e:	69c0      	ldr	r0, [r0, #28]
    1040:	e893 0006 	ldmia.w	r3, {r1, r2}
    1044:	f7ff ff70 	bl	f28 <SPIClass::beginTransaction(SPISettings)>
}
    1048:	bd08      	pop	{r3, pc}
    104a:	bf00      	nop

0000104c <ArduinoHal::ArduinoHal()>:
ArduinoHal::ArduinoHal(): RadioLibHal(INPUT, OUTPUT, LOW, HIGH, RISING, FALLING), spi(&RADIOLIB_DEFAULT_SPI), initInterface(true) {}
    104c:	b530      	push	{r4, r5, lr}
    104e:	2300      	movs	r3, #0
    1050:	b085      	sub	sp, #20
    1052:	2501      	movs	r5, #1
    1054:	2203      	movs	r2, #3
    1056:	2102      	movs	r1, #2
    1058:	4604      	mov	r4, r0
    105a:	9500      	str	r5, [sp, #0]
    105c:	e9cd 2101 	strd	r2, r1, [sp, #4]
    1060:	462a      	mov	r2, r5
    1062:	4619      	mov	r1, r3
    1064:	f7ff f9d6 	bl	414 <RadioLibHal::RadioLibHal(unsigned long, unsigned long, unsigned long, unsigned long, unsigned long, unsigned long)>
    1068:	4b06      	ldr	r3, [pc, #24]	; (1084 <ArduinoHal::ArduinoHal()+0x38>)
    106a:	4907      	ldr	r1, [pc, #28]	; (1088 <ArduinoHal::ArduinoHal()+0x3c>)
    106c:	4620      	mov	r0, r4
	SPISettings(uint32_t clockIn, uint8_t bitOrderIn, uint8_t dataModeIn) : _clock(clockIn) {
    106e:	4a07      	ldr	r2, [pc, #28]	; (108c <ArduinoHal::ArduinoHal()+0x40>)
    1070:	61e3      	str	r3, [r4, #28]
			tcr = LPSPI_TCR_FRAMESZ(7);    // TCR has polarity and bit order too
    1072:	2307      	movs	r3, #7
    1074:	6021      	str	r1, [r4, #0]
    1076:	f884 5028 	strb.w	r5, [r4, #40]	; 0x28
	SPISettings(uint32_t clockIn, uint8_t bitOrderIn, uint8_t dataModeIn) : _clock(clockIn) {
    107a:	6222      	str	r2, [r4, #32]
			tcr = LPSPI_TCR_FRAMESZ(7);    // TCR has polarity and bit order too
    107c:	6263      	str	r3, [r4, #36]	; 0x24
    107e:	b005      	add	sp, #20
    1080:	bd30      	pop	{r4, r5, pc}
    1082:	bf00      	nop
    1084:	20000ce0 	.word	0x20000ce0
    1088:	20000434 	.word	0x20000434
    108c:	001e8480 	.word	0x001e8480

00001090 <SX1262::checkOutputPower(signed char, signed char*)>:
  // restore OCP configuration
  return(writeRegister(RADIOLIB_SX126X_REG_OCP_CONFIGURATION, &ocp, 1));
}

int16_t SX1262::checkOutputPower(int8_t power, int8_t* clipped) {
  if(clipped) {
    1090:	b14a      	cbz	r2, 10a6 <SX1262::checkOutputPower(signed char, signed char*)+0x16>
    *clipped = RADIOLIB_MAX(-9, RADIOLIB_MIN(22, power));
    1092:	2916      	cmp	r1, #22
    1094:	460b      	mov	r3, r1
    1096:	f06f 0008 	mvn.w	r0, #8
    109a:	bfa8      	it	ge
    109c:	2316      	movge	r3, #22
    109e:	4283      	cmp	r3, r0
    10a0:	bfb8      	it	lt
    10a2:	4603      	movlt	r3, r0
    10a4:	7013      	strb	r3, [r2, #0]
  }
  RADIOLIB_CHECK_RANGE(power, -9, 22, RADIOLIB_ERR_INVALID_OUTPUT_POWER);
    10a6:	3109      	adds	r1, #9
    10a8:	b2c9      	uxtb	r1, r1
    10aa:	2920      	cmp	r1, #32
  return(RADIOLIB_ERR_NONE);
}
    10ac:	bf2c      	ite	cs
    10ae:	f06f 000c 	mvncs.w	r0, #12
    10b2:	2000      	movcc	r0, #0
    10b4:	4770      	bx	lr
    10b6:	bf00      	nop

000010b8 <SX1262::setOutputPower(signed char)>:
  int16_t state = checkOutputPower(power, NULL);
    10b8:	6803      	ldr	r3, [r0, #0]
    10ba:	4a1f      	ldr	r2, [pc, #124]	; (1138 <SX1262::setOutputPower(signed char)+0x80>)
    10bc:	6cdb      	ldr	r3, [r3, #76]	; 0x4c
    10be:	4293      	cmp	r3, r2
int16_t SX1262::setOutputPower(int8_t power) {
    10c0:	b570      	push	{r4, r5, r6, lr}
    10c2:	4604      	mov	r4, r0
    10c4:	b084      	sub	sp, #16
    10c6:	460d      	mov	r5, r1
    10c8:	d12c      	bne.n	1124 <SX1262::setOutputPower(signed char)+0x6c>
  RADIOLIB_CHECK_RANGE(power, -9, 22, RADIOLIB_ERR_INVALID_OUTPUT_POWER);
    10ca:	f101 0309 	add.w	r3, r1, #9
    10ce:	b2db      	uxtb	r3, r3
    10d0:	2b1f      	cmp	r3, #31
    10d2:	d82d      	bhi.n	1130 <SX1262::setOutputPower(signed char)+0x78>
  uint8_t ocp = 0;
    10d4:	2200      	movs	r2, #0
  state = readRegister(RADIOLIB_SX126X_REG_OCP_CONFIGURATION, &ocp, 1);
    10d6:	2301      	movs	r3, #1
    10d8:	f640 01e7 	movw	r1, #2279	; 0x8e7
    10dc:	4620      	mov	r0, r4
  uint8_t ocp = 0;
    10de:	f88d 200f 	strb.w	r2, [sp, #15]
  state = readRegister(RADIOLIB_SX126X_REG_OCP_CONFIGURATION, &ocp, 1);
    10e2:	f10d 020f 	add.w	r2, sp, #15
    10e6:	f002 f803 	bl	30f0 <SX126x::readRegister(unsigned short, unsigned char*, unsigned char)>
  RADIOLIB_ASSERT(state);
    10ea:	b108      	cbz	r0, 10f0 <SX1262::setOutputPower(signed char)+0x38>
}
    10ec:	b004      	add	sp, #16
    10ee:	bd70      	pop	{r4, r5, r6, pc}
  state = SX126x::setPaConfig(0x04, RADIOLIB_SX126X_PA_CONFIG_SX1262);
    10f0:	2601      	movs	r6, #1
    10f2:	4602      	mov	r2, r0
    10f4:	2307      	movs	r3, #7
    10f6:	2104      	movs	r1, #4
    10f8:	4620      	mov	r0, r4
    10fa:	9600      	str	r6, [sp, #0]
    10fc:	f001 ffd6 	bl	30ac <SX126x::setPaConfig(unsigned char, unsigned char, unsigned char, unsigned char)>
  RADIOLIB_ASSERT(state);
    1100:	2800      	cmp	r0, #0
    1102:	d1f3      	bne.n	10ec <SX1262::setOutputPower(signed char)+0x34>
  state = SX126x::setTxParams(power, RADIOLIB_SX126X_PA_RAMP_200U);
    1104:	2204      	movs	r2, #4
    1106:	b2e9      	uxtb	r1, r5
    1108:	4620      	mov	r0, r4
    110a:	f002 f889 	bl	3220 <SX126x::setTxParams(unsigned char, unsigned char)>
  RADIOLIB_ASSERT(state);
    110e:	2800      	cmp	r0, #0
    1110:	d1ec      	bne.n	10ec <SX1262::setOutputPower(signed char)+0x34>
  return(writeRegister(RADIOLIB_SX126X_REG_OCP_CONFIGURATION, &ocp, 1));
    1112:	4633      	mov	r3, r6
    1114:	f10d 020f 	add.w	r2, sp, #15
    1118:	f640 01e7 	movw	r1, #2279	; 0x8e7
    111c:	4620      	mov	r0, r4
    111e:	f001 ffdf 	bl	30e0 <SX126x::writeRegister(unsigned short, unsigned char*, unsigned char)>
    1122:	e7e3      	b.n	10ec <SX1262::setOutputPower(signed char)+0x34>
  int16_t state = checkOutputPower(power, NULL);
    1124:	2200      	movs	r2, #0
    1126:	4798      	blx	r3
  RADIOLIB_ASSERT(state);
    1128:	2800      	cmp	r0, #0
    112a:	d0d3      	beq.n	10d4 <SX1262::setOutputPower(signed char)+0x1c>
}
    112c:	b004      	add	sp, #16
    112e:	bd70      	pop	{r4, r5, r6, pc}
  RADIOLIB_CHECK_RANGE(power, -9, 22, RADIOLIB_ERR_INVALID_OUTPUT_POWER);
    1130:	f06f 000c 	mvn.w	r0, #12
    1134:	e7da      	b.n	10ec <SX1262::setOutputPower(signed char)+0x34>
    1136:	bf00      	nop
    1138:	00001091 	.word	0x00001091

0000113c <SX1262::setFrequency(float)>:
  RADIOLIB_CHECK_RANGE(freq, 150.0, 960.0, RADIOLIB_ERR_INVALID_FREQUENCY);
    113c:	eddf 7a1b 	vldr	s15, [pc, #108]	; 11ac <SX1262::setFrequency(float)+0x70>
    1140:	eeb4 0ae7 	vcmpe.f32	s0, s15
    1144:	eef1 fa10 	vmrs	APSR_nzcv, fpscr
    1148:	db29      	blt.n	119e <SX1262::setFrequency(float)+0x62>
    114a:	eddf 7a19 	vldr	s15, [pc, #100]	; 11b0 <SX1262::setFrequency(float)+0x74>
    114e:	eeb4 0ae7 	vcmpe.f32	s0, s15
int16_t SX1262::setFrequency(float freq) {
    1152:	b510      	push	{r4, lr}
  RADIOLIB_CHECK_RANGE(freq, 150.0, 960.0, RADIOLIB_ERR_INVALID_FREQUENCY);
    1154:	eef1 fa10 	vmrs	APSR_nzcv, fpscr
int16_t SX1262::setFrequency(float freq) {
    1158:	ed2d 8b02 	vpush	{d8}
    115c:	eeb0 8a40 	vmov.f32	s16, s0
  RADIOLIB_CHECK_RANGE(freq, 150.0, 960.0, RADIOLIB_ERR_INVALID_FREQUENCY);
    1160:	d820      	bhi.n	11a4 <SX1262::setFrequency(float)+0x68>
  if(!skipCalibration && (fabsf(freq - this->freqMHz) >= RADIOLIB_SX126X_CAL_IMG_FREQ_TRIG_MHZ)) {
    1162:	edd0 7a55 	vldr	s15, [r0, #340]	; 0x154
    1166:	eeb3 7a04 	vmov.f32	s14, #52	; 0x41a00000  20.0
    116a:	4604      	mov	r4, r0
    116c:	ee70 7a67 	vsub.f32	s15, s0, s15
    1170:	eef0 7ae7 	vabs.f32	s15, s15
    1174:	eef4 7ac7 	vcmpe.f32	s15, s14
    1178:	eef1 fa10 	vmrs	APSR_nzcv, fpscr
    117c:	da08      	bge.n	1190 <SX1262::setFrequency(float)+0x54>
  return(SX126x::setFrequencyRaw(freq));
    117e:	eeb0 0a48 	vmov.f32	s0, s16
    1182:	4620      	mov	r0, r4
}
    1184:	ecbd 8b02 	vpop	{d8}
    1188:	e8bd 4010 	ldmia.w	sp!, {r4, lr}
  return(SX126x::setFrequencyRaw(freq));
    118c:	f002 ba58 	b.w	3640 <SX126x::setFrequencyRaw(float)>
    int16_t state = this->calibrateImage(freq);
    1190:	f001 fff4 	bl	317c <SX126x::calibrateImage(float)>
    RADIOLIB_ASSERT(state);
    1194:	2800      	cmp	r0, #0
    1196:	d0f2      	beq.n	117e <SX1262::setFrequency(float)+0x42>
}
    1198:	ecbd 8b02 	vpop	{d8}
    119c:	bd10      	pop	{r4, pc}
  RADIOLIB_CHECK_RANGE(freq, 150.0, 960.0, RADIOLIB_ERR_INVALID_FREQUENCY);
    119e:	f06f 000b 	mvn.w	r0, #11
}
    11a2:	4770      	bx	lr
  RADIOLIB_CHECK_RANGE(freq, 150.0, 960.0, RADIOLIB_ERR_INVALID_FREQUENCY);
    11a4:	f06f 000b 	mvn.w	r0, #11
    11a8:	e7f6      	b.n	1198 <SX1262::setFrequency(float)+0x5c>
    11aa:	bf00      	nop
    11ac:	43160000 	.word	0x43160000
    11b0:	44700000 	.word	0x44700000

000011b4 <SX1262::SX1262(Module*)>:
SX1262::SX1262(Module* mod) : SX126x(mod) {
    11b4:	b510      	push	{r4, lr}
    11b6:	4604      	mov	r4, r0
    11b8:	f001 f9c2 	bl	2540 <SX126x::SX126x(Module*)>
    11bc:	4a03      	ldr	r2, [pc, #12]	; (11cc <SX1262::SX1262(Module*)+0x18>)
  chipType = RADIOLIB_SX1262_CHIP_TYPE;
    11be:	4b04      	ldr	r3, [pc, #16]	; (11d0 <SX1262::SX1262(Module*)+0x1c>)
}
    11c0:	4620      	mov	r0, r4
SX1262::SX1262(Module* mod) : SX126x(mod) {
    11c2:	6022      	str	r2, [r4, #0]
  chipType = RADIOLIB_SX1262_CHIP_TYPE;
    11c4:	f8c4 314c 	str.w	r3, [r4, #332]	; 0x14c
}
    11c8:	bd10      	pop	{r4, pc}
    11ca:	bf00      	nop
    11cc:	200005e4 	.word	0x200005e4
    11d0:	200003b4 	.word	0x200003b4

000011d4 <SX1262::begin(float, float, unsigned char, unsigned char, unsigned char, signed char, unsigned short, float, bool)>:
int16_t SX1262::begin(float freq, float bw, uint8_t sf, uint8_t cr, uint8_t syncWord, int8_t power, uint16_t preambleLength, float tcxoVoltage, bool useRegulatorLDO) {
    11d4:	b570      	push	{r4, r5, r6, lr}
    11d6:	ed2d 8b02 	vpush	{d8}
    11da:	b082      	sub	sp, #8
    11dc:	4614      	mov	r4, r2
  int16_t state = SX126x::begin(cr, syncWord, preambleLength, tcxoVoltage, useRegulatorLDO);
    11de:	461a      	mov	r2, r3
int16_t SX1262::begin(float freq, float bw, uint8_t sf, uint8_t cr, uint8_t syncWord, int8_t power, uint16_t preambleLength, float tcxoVoltage, bool useRegulatorLDO) {
    11e0:	eeb0 8a40 	vmov.f32	s16, s0
    11e4:	f89d 3028 	ldrb.w	r3, [sp, #40]	; 0x28
    11e8:	460e      	mov	r6, r1
  int16_t state = SX126x::begin(cr, syncWord, preambleLength, tcxoVoltage, useRegulatorLDO);
    11ea:	eeb0 0a41 	vmov.f32	s0, s2
    11ee:	4621      	mov	r1, r4
    11f0:	9300      	str	r3, [sp, #0]
int16_t SX1262::begin(float freq, float bw, uint8_t sf, uint8_t cr, uint8_t syncWord, int8_t power, uint16_t preambleLength, float tcxoVoltage, bool useRegulatorLDO) {
    11f2:	eef0 8a60 	vmov.f32	s17, s1
  int16_t state = SX126x::begin(cr, syncWord, preambleLength, tcxoVoltage, useRegulatorLDO);
    11f6:	f8bd 3024 	ldrh.w	r3, [sp, #36]	; 0x24
int16_t SX1262::begin(float freq, float bw, uint8_t sf, uint8_t cr, uint8_t syncWord, int8_t power, uint16_t preambleLength, float tcxoVoltage, bool useRegulatorLDO) {
    11fa:	4604      	mov	r4, r0
    11fc:	f99d 5020 	ldrsb.w	r5, [sp, #32]
  int16_t state = SX126x::begin(cr, syncWord, preambleLength, tcxoVoltage, useRegulatorLDO);
    1200:	f003 f930 	bl	4464 <SX126x::begin(unsigned char, unsigned char, unsigned short, float, bool)>
  RADIOLIB_ASSERT(state);
    1204:	b118      	cbz	r0, 120e <SX1262::begin(float, float, unsigned char, unsigned char, unsigned char, signed char, unsigned short, float, bool)+0x3a>
}
    1206:	b002      	add	sp, #8
    1208:	ecbd 8b02 	vpop	{d8}
    120c:	bd70      	pop	{r4, r5, r6, pc}
  state = setSpreadingFactor(sf);
    120e:	4631      	mov	r1, r6
    1210:	4620      	mov	r0, r4
    1212:	f002 f927 	bl	3464 <SX126x::setSpreadingFactor(unsigned char)>
  RADIOLIB_ASSERT(state);
    1216:	2800      	cmp	r0, #0
    1218:	d1f5      	bne.n	1206 <SX1262::begin(float, float, unsigned char, unsigned char, unsigned char, signed char, unsigned short, float, bool)+0x32>
  state = setBandwidth(bw);
    121a:	eeb0 0a68 	vmov.f32	s0, s17
    121e:	4620      	mov	r0, r4
    1220:	f002 f88e 	bl	3340 <SX126x::setBandwidth(float)>
  RADIOLIB_ASSERT(state);
    1224:	2800      	cmp	r0, #0
    1226:	d1ee      	bne.n	1206 <SX1262::begin(float, float, unsigned char, unsigned char, unsigned char, signed char, unsigned short, float, bool)+0x32>
  state = setFrequency(freq);
    1228:	6823      	ldr	r3, [r4, #0]
    122a:	4a23      	ldr	r2, [pc, #140]	; (12b8 <SX1262::begin(float, float, unsigned char, unsigned char, unsigned char, signed char, unsigned short, float, bool)+0xe4>)
    122c:	6b1b      	ldr	r3, [r3, #48]	; 0x30
    122e:	4293      	cmp	r3, r2
    1230:	d139      	bne.n	12a6 <SX1262::begin(float, float, unsigned char, unsigned char, unsigned char, signed char, unsigned short, float, bool)+0xd2>
  RADIOLIB_CHECK_RANGE(freq, 150.0, 960.0, RADIOLIB_ERR_INVALID_FREQUENCY);
    1232:	eddf 7a22 	vldr	s15, [pc, #136]	; 12bc <SX1262::begin(float, float, unsigned char, unsigned char, unsigned char, signed char, unsigned short, float, bool)+0xe8>
    1236:	eeb4 8ae7 	vcmpe.f32	s16, s15
    123a:	eef1 fa10 	vmrs	APSR_nzcv, fpscr
    123e:	db37      	blt.n	12b0 <SX1262::begin(float, float, unsigned char, unsigned char, unsigned char, signed char, unsigned short, float, bool)+0xdc>
    1240:	eddf 7a1f 	vldr	s15, [pc, #124]	; 12c0 <SX1262::begin(float, float, unsigned char, unsigned char, unsigned char, signed char, unsigned short, float, bool)+0xec>
    1244:	eeb4 8ae7 	vcmpe.f32	s16, s15
    1248:	eef1 fa10 	vmrs	APSR_nzcv, fpscr
    124c:	d830      	bhi.n	12b0 <SX1262::begin(float, float, unsigned char, unsigned char, unsigned char, signed char, unsigned short, float, bool)+0xdc>
  if(!skipCalibration && (fabsf(freq - this->freqMHz) >= RADIOLIB_SX126X_CAL_IMG_FREQ_TRIG_MHZ)) {
    124e:	edd4 7a55 	vldr	s15, [r4, #340]	; 0x154
    1252:	eeb3 7a04 	vmov.f32	s14, #52	; 0x41a00000  20.0
    1256:	ee78 7a67 	vsub.f32	s15, s16, s15
    125a:	eef0 7ae7 	vabs.f32	s15, s15
    125e:	eef4 7ac7 	vcmpe.f32	s15, s14
    1262:	eef1 fa10 	vmrs	APSR_nzcv, fpscr
    1266:	da16      	bge.n	1296 <SX1262::begin(float, float, unsigned char, unsigned char, unsigned char, signed char, unsigned short, float, bool)+0xc2>
  return(SX126x::setFrequencyRaw(freq));
    1268:	eeb0 0a48 	vmov.f32	s0, s16
    126c:	4620      	mov	r0, r4
    126e:	f002 f9e7 	bl	3640 <SX126x::setFrequencyRaw(float)>
  RADIOLIB_ASSERT(state);
    1272:	2800      	cmp	r0, #0
    1274:	d1c7      	bne.n	1206 <SX1262::begin(float, float, unsigned char, unsigned char, unsigned char, signed char, unsigned short, float, bool)+0x32>
  state = SX126x::fixPaClamping();
    1276:	2101      	movs	r1, #1
    1278:	4620      	mov	r0, r4
    127a:	f002 fa5f 	bl	373c <SX126x::fixPaClamping(bool)>
  RADIOLIB_ASSERT(state);
    127e:	2800      	cmp	r0, #0
    1280:	d1c1      	bne.n	1206 <SX1262::begin(float, float, unsigned char, unsigned char, unsigned char, signed char, unsigned short, float, bool)+0x32>
  state = setOutputPower(power);
    1282:	6823      	ldr	r3, [r4, #0]
    1284:	4629      	mov	r1, r5
    1286:	4620      	mov	r0, r4
    1288:	6c9b      	ldr	r3, [r3, #72]	; 0x48
}
    128a:	b002      	add	sp, #8
    128c:	ecbd 8b02 	vpop	{d8}
    1290:	e8bd 4070 	ldmia.w	sp!, {r4, r5, r6, lr}
  state = setOutputPower(power);
    1294:	4718      	bx	r3
    int16_t state = this->calibrateImage(freq);
    1296:	eeb0 0a48 	vmov.f32	s0, s16
    129a:	4620      	mov	r0, r4
    129c:	f001 ff6e 	bl	317c <SX126x::calibrateImage(float)>
    RADIOLIB_ASSERT(state);
    12a0:	2800      	cmp	r0, #0
    12a2:	d0e1      	beq.n	1268 <SX1262::begin(float, float, unsigned char, unsigned char, unsigned char, signed char, unsigned short, float, bool)+0x94>
    12a4:	e7af      	b.n	1206 <SX1262::begin(float, float, unsigned char, unsigned char, unsigned char, signed char, unsigned short, float, bool)+0x32>
  state = setFrequency(freq);
    12a6:	eeb0 0a48 	vmov.f32	s0, s16
    12aa:	4620      	mov	r0, r4
    12ac:	4798      	blx	r3
    12ae:	e7e0      	b.n	1272 <SX1262::begin(float, float, unsigned char, unsigned char, unsigned char, signed char, unsigned short, float, bool)+0x9e>
  RADIOLIB_CHECK_RANGE(freq, 150.0, 960.0, RADIOLIB_ERR_INVALID_FREQUENCY);
    12b0:	f06f 000b 	mvn.w	r0, #11
    12b4:	e7a7      	b.n	1206 <SX1262::begin(float, float, unsigned char, unsigned char, unsigned char, signed char, unsigned short, float, bool)+0x32>
    12b6:	bf00      	nop
    12b8:	0000113d 	.word	0x0000113d
    12bc:	43160000 	.word	0x43160000
    12c0:	44700000 	.word	0x44700000

000012c4 <SX1262::beginFSK(float, float, float, float, signed char, unsigned short, float, bool)>:
int16_t SX1262::beginFSK(float freq, float br, float freqDev, float rxBw, int8_t power, uint16_t preambleLength, float tcxoVoltage, bool useRegulatorLDO) {
    12c4:	eef0 7a60 	vmov.f32	s15, s1
  int16_t state = SX126x::beginFSK(br, freqDev, rxBw, preambleLength, tcxoVoltage, useRegulatorLDO);
    12c8:	eef0 0a41 	vmov.f32	s1, s2
    12cc:	eeb0 1a61 	vmov.f32	s2, s3
    12d0:	eef0 1a42 	vmov.f32	s3, s4
int16_t SX1262::beginFSK(float freq, float br, float freqDev, float rxBw, int8_t power, uint16_t preambleLength, float tcxoVoltage, bool useRegulatorLDO) {
    12d4:	b570      	push	{r4, r5, r6, lr}
    12d6:	4614      	mov	r4, r2
    12d8:	460d      	mov	r5, r1
  int16_t state = SX126x::beginFSK(br, freqDev, rxBw, preambleLength, tcxoVoltage, useRegulatorLDO);
    12da:	461a      	mov	r2, r3
    12dc:	4621      	mov	r1, r4
int16_t SX1262::beginFSK(float freq, float br, float freqDev, float rxBw, int8_t power, uint16_t preambleLength, float tcxoVoltage, bool useRegulatorLDO) {
    12de:	4604      	mov	r4, r0
    12e0:	ed2d 8b02 	vpush	{d8}
    12e4:	eeb0 8a40 	vmov.f32	s16, s0
  int16_t state = SX126x::beginFSK(br, freqDev, rxBw, preambleLength, tcxoVoltage, useRegulatorLDO);
    12e8:	eeb0 0a67 	vmov.f32	s0, s15
    12ec:	f003 f960 	bl	45b0 <SX126x::beginFSK(float, float, float, unsigned short, float, bool)>
  RADIOLIB_ASSERT(state);
    12f0:	2800      	cmp	r0, #0
    12f2:	d13a      	bne.n	136a <SX1262::beginFSK(float, float, float, float, signed char, unsigned short, float, bool)+0xa6>
  state = setFrequency(freq);
    12f4:	6823      	ldr	r3, [r4, #0]
    12f6:	4a22      	ldr	r2, [pc, #136]	; (1380 <SX1262::beginFSK(float, float, float, float, signed char, unsigned short, float, bool)+0xbc>)
    12f8:	6b1b      	ldr	r3, [r3, #48]	; 0x30
    12fa:	4293      	cmp	r3, r2
    12fc:	d138      	bne.n	1370 <SX1262::beginFSK(float, float, float, float, signed char, unsigned short, float, bool)+0xac>
  RADIOLIB_CHECK_RANGE(freq, 150.0, 960.0, RADIOLIB_ERR_INVALID_FREQUENCY);
    12fe:	eddf 7a21 	vldr	s15, [pc, #132]	; 1384 <SX1262::beginFSK(float, float, float, float, signed char, unsigned short, float, bool)+0xc0>
    1302:	eeb4 8ae7 	vcmpe.f32	s16, s15
    1306:	eef1 fa10 	vmrs	APSR_nzcv, fpscr
    130a:	db36      	blt.n	137a <SX1262::beginFSK(float, float, float, float, signed char, unsigned short, float, bool)+0xb6>
    130c:	eddf 7a1e 	vldr	s15, [pc, #120]	; 1388 <SX1262::beginFSK(float, float, float, float, signed char, unsigned short, float, bool)+0xc4>
    1310:	eeb4 8ae7 	vcmpe.f32	s16, s15
    1314:	eef1 fa10 	vmrs	APSR_nzcv, fpscr
    1318:	d82f      	bhi.n	137a <SX1262::beginFSK(float, float, float, float, signed char, unsigned short, float, bool)+0xb6>
  if(!skipCalibration && (fabsf(freq - this->freqMHz) >= RADIOLIB_SX126X_CAL_IMG_FREQ_TRIG_MHZ)) {
    131a:	edd4 7a55 	vldr	s15, [r4, #340]	; 0x154
    131e:	eeb3 7a04 	vmov.f32	s14, #52	; 0x41a00000  20.0
    1322:	ee78 7a67 	vsub.f32	s15, s16, s15
    1326:	eef0 7ae7 	vabs.f32	s15, s15
    132a:	eef4 7ac7 	vcmpe.f32	s15, s14
    132e:	eef1 fa10 	vmrs	APSR_nzcv, fpscr
    1332:	da13      	bge.n	135c <SX1262::beginFSK(float, float, float, float, signed char, unsigned short, float, bool)+0x98>
  return(SX126x::setFrequencyRaw(freq));
    1334:	eeb0 0a48 	vmov.f32	s0, s16
    1338:	4620      	mov	r0, r4
    133a:	f002 f981 	bl	3640 <SX126x::setFrequencyRaw(float)>
  RADIOLIB_ASSERT(state);
    133e:	b9a0      	cbnz	r0, 136a <SX1262::beginFSK(float, float, float, float, signed char, unsigned short, float, bool)+0xa6>
  state = SX126x::fixPaClamping();
    1340:	2101      	movs	r1, #1
    1342:	4620      	mov	r0, r4
    1344:	f002 f9fa 	bl	373c <SX126x::fixPaClamping(bool)>
  RADIOLIB_ASSERT(state);
    1348:	b978      	cbnz	r0, 136a <SX1262::beginFSK(float, float, float, float, signed char, unsigned short, float, bool)+0xa6>
  state = setOutputPower(power);
    134a:	6823      	ldr	r3, [r4, #0]
    134c:	4629      	mov	r1, r5
    134e:	4620      	mov	r0, r4
    1350:	6c9b      	ldr	r3, [r3, #72]	; 0x48
}
    1352:	ecbd 8b02 	vpop	{d8}
    1356:	e8bd 4070 	ldmia.w	sp!, {r4, r5, r6, lr}
  state = setOutputPower(power);
    135a:	4718      	bx	r3
    int16_t state = this->calibrateImage(freq);
    135c:	eeb0 0a48 	vmov.f32	s0, s16
    1360:	4620      	mov	r0, r4
    1362:	f001 ff0b 	bl	317c <SX126x::calibrateImage(float)>
    RADIOLIB_ASSERT(state);
    1366:	2800      	cmp	r0, #0
    1368:	d0e4      	beq.n	1334 <SX1262::beginFSK(float, float, float, float, signed char, unsigned short, float, bool)+0x70>
}
    136a:	ecbd 8b02 	vpop	{d8}
    136e:	bd70      	pop	{r4, r5, r6, pc}
  state = setFrequency(freq);
    1370:	eeb0 0a48 	vmov.f32	s0, s16
    1374:	4620      	mov	r0, r4
    1376:	4798      	blx	r3
    1378:	e7e1      	b.n	133e <SX1262::beginFSK(float, float, float, float, signed char, unsigned short, float, bool)+0x7a>
  RADIOLIB_CHECK_RANGE(freq, 150.0, 960.0, RADIOLIB_ERR_INVALID_FREQUENCY);
    137a:	f06f 000b 	mvn.w	r0, #11
    137e:	e7f4      	b.n	136a <SX1262::beginFSK(float, float, float, float, signed char, unsigned short, float, bool)+0xa6>
    1380:	0000113d 	.word	0x0000113d
    1384:	43160000 	.word	0x43160000
    1388:	44700000 	.word	0x44700000

0000138c <SX1262::beginLRFHSS(float, unsigned char, unsigned char, bool, signed char, float, bool)>:
int16_t SX1262::beginLRFHSS(float freq, uint8_t bw, uint8_t cr, bool narrowGrid, int8_t power, float tcxoVoltage, bool useRegulatorLDO) {
    138c:	b530      	push	{r4, r5, lr}
    138e:	ed2d 8b02 	vpush	{d8}
    1392:	b083      	sub	sp, #12
    1394:	eeb0 8a40 	vmov.f32	s16, s0
  int16_t state = SX126x::beginLRFHSS(bw, cr, narrowGrid, tcxoVoltage, useRegulatorLDO);
    1398:	eeb0 0a60 	vmov.f32	s0, s1
int16_t SX1262::beginLRFHSS(float freq, uint8_t bw, uint8_t cr, bool narrowGrid, int8_t power, float tcxoVoltage, bool useRegulatorLDO) {
    139c:	4604      	mov	r4, r0
    139e:	f89d 5024 	ldrb.w	r5, [sp, #36]	; 0x24
  int16_t state = SX126x::beginLRFHSS(bw, cr, narrowGrid, tcxoVoltage, useRegulatorLDO);
    13a2:	9500      	str	r5, [sp, #0]
int16_t SX1262::beginLRFHSS(float freq, uint8_t bw, uint8_t cr, bool narrowGrid, int8_t power, float tcxoVoltage, bool useRegulatorLDO) {
    13a4:	f99d 5020 	ldrsb.w	r5, [sp, #32]
  int16_t state = SX126x::beginLRFHSS(bw, cr, narrowGrid, tcxoVoltage, useRegulatorLDO);
    13a8:	f003 f998 	bl	46dc <SX126x::beginLRFHSS(unsigned char, unsigned char, bool, float, bool)>
  RADIOLIB_ASSERT(state);
    13ac:	2800      	cmp	r0, #0
    13ae:	d13b      	bne.n	1428 <SX1262::beginLRFHSS(float, unsigned char, unsigned char, bool, signed char, float, bool)+0x9c>
  state = setFrequency(freq);
    13b0:	6823      	ldr	r3, [r4, #0]
    13b2:	4a23      	ldr	r2, [pc, #140]	; (1440 <SX1262::beginLRFHSS(float, unsigned char, unsigned char, bool, signed char, float, bool)+0xb4>)
    13b4:	6b1b      	ldr	r3, [r3, #48]	; 0x30
    13b6:	4293      	cmp	r3, r2
    13b8:	d13a      	bne.n	1430 <SX1262::beginLRFHSS(float, unsigned char, unsigned char, bool, signed char, float, bool)+0xa4>
  RADIOLIB_CHECK_RANGE(freq, 150.0, 960.0, RADIOLIB_ERR_INVALID_FREQUENCY);
    13ba:	eddf 7a22 	vldr	s15, [pc, #136]	; 1444 <SX1262::beginLRFHSS(float, unsigned char, unsigned char, bool, signed char, float, bool)+0xb8>
    13be:	eeb4 8ae7 	vcmpe.f32	s16, s15
    13c2:	eef1 fa10 	vmrs	APSR_nzcv, fpscr
    13c6:	db38      	blt.n	143a <SX1262::beginLRFHSS(float, unsigned char, unsigned char, bool, signed char, float, bool)+0xae>
    13c8:	eddf 7a1f 	vldr	s15, [pc, #124]	; 1448 <SX1262::beginLRFHSS(float, unsigned char, unsigned char, bool, signed char, float, bool)+0xbc>
    13cc:	eeb4 8ae7 	vcmpe.f32	s16, s15
    13d0:	eef1 fa10 	vmrs	APSR_nzcv, fpscr
    13d4:	d831      	bhi.n	143a <SX1262::beginLRFHSS(float, unsigned char, unsigned char, bool, signed char, float, bool)+0xae>
  if(!skipCalibration && (fabsf(freq - this->freqMHz) >= RADIOLIB_SX126X_CAL_IMG_FREQ_TRIG_MHZ)) {
    13d6:	edd4 7a55 	vldr	s15, [r4, #340]	; 0x154
    13da:	eeb3 7a04 	vmov.f32	s14, #52	; 0x41a00000  20.0
    13de:	ee78 7a67 	vsub.f32	s15, s16, s15
    13e2:	eef0 7ae7 	vabs.f32	s15, s15
    13e6:	eef4 7ac7 	vcmpe.f32	s15, s14
    13ea:	eef1 fa10 	vmrs	APSR_nzcv, fpscr
    13ee:	da14      	bge.n	141a <SX1262::beginLRFHSS(float, unsigned char, unsigned char, bool, signed char, float, bool)+0x8e>
  return(SX126x::setFrequencyRaw(freq));
    13f0:	eeb0 0a48 	vmov.f32	s0, s16
    13f4:	4620      	mov	r0, r4
    13f6:	f002 f923 	bl	3640 <SX126x::setFrequencyRaw(float)>
  RADIOLIB_ASSERT(state);
    13fa:	b9a8      	cbnz	r0, 1428 <SX1262::beginLRFHSS(float, unsigned char, unsigned char, bool, signed char, float, bool)+0x9c>
  state = SX126x::fixPaClamping();
    13fc:	2101      	movs	r1, #1
    13fe:	4620      	mov	r0, r4
    1400:	f002 f99c 	bl	373c <SX126x::fixPaClamping(bool)>
  RADIOLIB_ASSERT(state);
    1404:	b980      	cbnz	r0, 1428 <SX1262::beginLRFHSS(float, unsigned char, unsigned char, bool, signed char, float, bool)+0x9c>
  state = setOutputPower(power);
    1406:	6823      	ldr	r3, [r4, #0]
    1408:	4629      	mov	r1, r5
    140a:	4620      	mov	r0, r4
    140c:	6c9b      	ldr	r3, [r3, #72]	; 0x48
}
    140e:	b003      	add	sp, #12
    1410:	ecbd 8b02 	vpop	{d8}
    1414:	e8bd 4030 	ldmia.w	sp!, {r4, r5, lr}
  state = setOutputPower(power);
    1418:	4718      	bx	r3
    int16_t state = this->calibrateImage(freq);
    141a:	eeb0 0a48 	vmov.f32	s0, s16
    141e:	4620      	mov	r0, r4
    1420:	f001 feac 	bl	317c <SX126x::calibrateImage(float)>
    RADIOLIB_ASSERT(state);
    1424:	2800      	cmp	r0, #0
    1426:	d0e3      	beq.n	13f0 <SX1262::beginLRFHSS(float, unsigned char, unsigned char, bool, signed char, float, bool)+0x64>
}
    1428:	b003      	add	sp, #12
    142a:	ecbd 8b02 	vpop	{d8}
    142e:	bd30      	pop	{r4, r5, pc}
  state = setFrequency(freq);
    1430:	eeb0 0a48 	vmov.f32	s0, s16
    1434:	4620      	mov	r0, r4
    1436:	4798      	blx	r3
    1438:	e7df      	b.n	13fa <SX1262::beginLRFHSS(float, unsigned char, unsigned char, bool, signed char, float, bool)+0x6e>
  RADIOLIB_CHECK_RANGE(freq, 150.0, 960.0, RADIOLIB_ERR_INVALID_FREQUENCY);
    143a:	f06f 000b 	mvn.w	r0, #11
    143e:	e7f3      	b.n	1428 <SX1262::beginLRFHSS(float, unsigned char, unsigned char, bool, signed char, float, bool)+0x9c>
    1440:	0000113d 	.word	0x0000113d
    1444:	43160000 	.word	0x43160000
    1448:	44700000 	.word	0x44700000

0000144c <SX1262::setModem(ModemType_t)>:

int16_t SX1262::setModem(ModemType_t modem) {
  switch(modem) {
    144c:	2901      	cmp	r1, #1
int16_t SX1262::setModem(ModemType_t modem) {
    144e:	b510      	push	{r4, lr}
    1450:	b084      	sub	sp, #16
  switch(modem) {
    1452:	d006      	beq.n	1462 <SX1262::setModem(ModemType_t)+0x16>
    1454:	2902      	cmp	r1, #2
    1456:	d029      	beq.n	14ac <SX1262::setModem(ModemType_t)+0x60>
    1458:	b1b1      	cbz	r1, 1488 <SX1262::setModem(ModemType_t)+0x3c>
    145a:	f06f 0013 	mvn.w	r0, #19
      return(this->beginLRFHSS());
    } break;
    default:
      return(RADIOLIB_ERR_WRONG_MODEM);
  }
}
    145e:	b004      	add	sp, #16
    1460:	bd10      	pop	{r4, pc}
      return(this->begin());
    1462:	2200      	movs	r2, #0
    1464:	2408      	movs	r4, #8
    1466:	210a      	movs	r1, #10
    1468:	ed9f 1a18 	vldr	s2, [pc, #96]	; 14cc <SX1262::setModem(ModemType_t)+0x80>
    146c:	9202      	str	r2, [sp, #8]
    146e:	2312      	movs	r3, #18
    1470:	eddf 0a17 	vldr	s1, [pc, #92]	; 14d0 <SX1262::setModem(ModemType_t)+0x84>
    1474:	2207      	movs	r2, #7
    1476:	ed9f 0a17 	vldr	s0, [pc, #92]	; 14d4 <SX1262::setModem(ModemType_t)+0x88>
    147a:	e9cd 1400 	strd	r1, r4, [sp]
    147e:	2109      	movs	r1, #9
    1480:	f7ff fea8 	bl	11d4 <SX1262::begin(float, float, unsigned char, unsigned char, unsigned char, signed char, unsigned short, float, bool)>
}
    1484:	b004      	add	sp, #16
    1486:	bd10      	pop	{r4, pc}
      return(this->beginFSK());
    1488:	eeb1 1a04 	vmov.f32	s2, #20	; 0x40a00000  5.0
    148c:	460b      	mov	r3, r1
    148e:	ed9f 2a0f 	vldr	s4, [pc, #60]	; 14cc <SX1262::setModem(ModemType_t)+0x80>
    1492:	2210      	movs	r2, #16
    1494:	210a      	movs	r1, #10
    1496:	eddf 1a10 	vldr	s3, [pc, #64]	; 14d8 <SX1262::setModem(ModemType_t)+0x8c>
    149a:	eddf 0a10 	vldr	s1, [pc, #64]	; 14dc <SX1262::setModem(ModemType_t)+0x90>
    149e:	ed9f 0a0d 	vldr	s0, [pc, #52]	; 14d4 <SX1262::setModem(ModemType_t)+0x88>
}
    14a2:	b004      	add	sp, #16
    14a4:	e8bd 4010 	ldmia.w	sp!, {r4, lr}
      return(this->beginFSK());
    14a8:	f7ff bf0c 	b.w	12c4 <SX1262::beginFSK(float, float, float, float, signed char, unsigned short, float, bool)>
      return(this->beginLRFHSS());
    14ac:	2301      	movs	r3, #1
    14ae:	2100      	movs	r1, #0
    14b0:	240a      	movs	r4, #10
    14b2:	eddf 0a06 	vldr	s1, [pc, #24]	; 14cc <SX1262::setModem(ModemType_t)+0x80>
    14b6:	9101      	str	r1, [sp, #4]
    14b8:	461a      	mov	r2, r3
    14ba:	ed9f 0a06 	vldr	s0, [pc, #24]	; 14d4 <SX1262::setModem(ModemType_t)+0x88>
    14be:	2106      	movs	r1, #6
    14c0:	9400      	str	r4, [sp, #0]
    14c2:	f7ff ff63 	bl	138c <SX1262::beginLRFHSS(float, unsigned char, unsigned char, bool, signed char, float, bool)>
}
    14c6:	b004      	add	sp, #16
    14c8:	bd10      	pop	{r4, pc}
    14ca:	bf00      	nop
    14cc:	3fcccccd 	.word	0x3fcccccd
    14d0:	42fa0000 	.word	0x42fa0000
    14d4:	43d90000 	.word	0x43d90000
    14d8:	431c3333 	.word	0x431c3333
    14dc:	4099999a 	.word	0x4099999a

000014e0 <SX126x::scanChannel()>:
int16_t SX126x::scanChannel() {
    14e0:	b500      	push	{lr}
  ChannelScanConfig_t cfg = {
    14e2:	4b08      	ldr	r3, [pc, #32]	; (1504 <SX126x::scanChannel()+0x24>)
int16_t SX126x::scanChannel() {
    14e4:	b085      	sub	sp, #20
    14e6:	4686      	mov	lr, r0
  ChannelScanConfig_t cfg = {
    14e8:	46ec      	mov	ip, sp
    14ea:	cb0f      	ldmia	r3, {r0, r1, r2, r3}
    14ec:	e88c 000f 	stmia.w	ip, {r0, r1, r2, r3}
  return(this->scanChannel(cfg));
    14f0:	f8de 3000 	ldr.w	r3, [lr]
    14f4:	4661      	mov	r1, ip
    14f6:	4670      	mov	r0, lr
    14f8:	f8d3 3090 	ldr.w	r3, [r3, #144]	; 0x90
    14fc:	4798      	blx	r3
}
    14fe:	b005      	add	sp, #20
    1500:	f85d fb04 	ldr.w	pc, [sp], #4
    1504:	200002b0 	.word	0x200002b0

00001508 <SX126x::startChannelScan()>:
int16_t SX126x::startChannelScan() {
    1508:	b500      	push	{lr}
  ChannelScanConfig_t cfg = {
    150a:	4b08      	ldr	r3, [pc, #32]	; (152c <SX126x::startChannelScan()+0x24>)
int16_t SX126x::startChannelScan() {
    150c:	b085      	sub	sp, #20
    150e:	4686      	mov	lr, r0
  ChannelScanConfig_t cfg = {
    1510:	46ec      	mov	ip, sp
    1512:	cb0f      	ldmia	r3, {r0, r1, r2, r3}
    1514:	e88c 000f 	stmia.w	ip, {r0, r1, r2, r3}
  return(this->startChannelScan(cfg));
    1518:	f8de 3000 	ldr.w	r3, [lr]
    151c:	4661      	mov	r1, ip
    151e:	4670      	mov	r0, lr
    1520:	f8d3 3084 	ldr.w	r3, [r3, #132]	; 0x84
    1524:	4798      	blx	r3
}
    1526:	b005      	add	sp, #20
    1528:	f85d fb04 	ldr.w	pc, [sp], #4
    152c:	200002b0 	.word	0x200002b0

00001530 <SX126x::calculateRxTimeout(unsigned long)>:
}

RadioLibTime_t SX126x::calculateRxTimeout(RadioLibTime_t timeoutUs) {
  // the timeout value is given in units of 15.625 microseconds
  // the calling function should provide some extra width, as this number of units is truncated to integer
  RadioLibTime_t timeout = timeoutUs / 15.625;
    1530:	ee07 1a90 	vmov	s15, r1
    1534:	ed9f 5b06 	vldr	d5, [pc, #24]	; 1550 <SX126x::calculateRxTimeout(unsigned long)+0x20>
    1538:	eeb8 7b67 	vcvt.f64.u32	d7, s15
    153c:	ee87 6b05 	vdiv.f64	d6, d7, d5
  return(timeout);
}
    1540:	eefc 7bc6 	vcvt.u32.f64	s15, d6
    1544:	ee17 0a90 	vmov	r0, s15
    1548:	4770      	bx	lr
    154a:	bf00      	nop
    154c:	f3af 8000 	nop.w
    1550:	00000000 	.word	0x00000000
    1554:	402f4000 	.word	0x402f4000

00001558 <SX126x::getMod()>:
  return(writeRegister(RADIOLIB_SX126X_REG_IQ_CONFIG, &iqConfigCurrent, 1));
}

Module* SX126x::getMod() {
  return(this->mod);
}
    1558:	f8d0 015c 	ldr.w	r0, [r0, #348]	; 0x15c
    155c:	4770      	bx	lr
    155e:	bf00      	nop

00001560 <SX126x::SPIparseStatus(unsigned char)>:

  return(state);
}

int16_t SX126x::SPIparseStatus(uint8_t in) {
  if((in & 0b00001110) == RADIOLIB_SX126X_STATUS_CMD_TIMEOUT) {
    1560:	f000 030e 	and.w	r3, r0, #14
    1564:	2b06      	cmp	r3, #6
    1566:	d00b      	beq.n	1580 <SX126x::SPIparseStatus(unsigned char)+0x20>
    return(RADIOLIB_ERR_SPI_CMD_TIMEOUT);
  } else if((in & 0b00001110) == RADIOLIB_SX126X_STATUS_CMD_INVALID) {
    1568:	2b08      	cmp	r3, #8
    156a:	d00c      	beq.n	1586 <SX126x::SPIparseStatus(unsigned char)+0x26>
    return(RADIOLIB_ERR_SPI_CMD_INVALID);
  } else if((in & 0b00001110) == RADIOLIB_SX126X_STATUS_CMD_FAILED) {
    156c:	2b0a      	cmp	r3, #10
    156e:	d00c      	beq.n	158a <SX126x::SPIparseStatus(unsigned char)+0x2a>
    return(RADIOLIB_ERR_SPI_CMD_FAILED);
  } else if((in == 0x00) || (in == 0xFF)) {
    1570:	3801      	subs	r0, #1
    1572:	b2c0      	uxtb	r0, r0
    return(RADIOLIB_ERR_CHIP_NOT_FOUND);
    1574:	28fe      	cmp	r0, #254	; 0xfe
    1576:	bf34      	ite	cc
    1578:	2000      	movcc	r0, #0
    157a:	f06f 0001 	mvncs.w	r0, #1
    157e:	4770      	bx	lr
    return(RADIOLIB_ERR_SPI_CMD_TIMEOUT);
    1580:	f46f 7030 	mvn.w	r0, #704	; 0x2c0
    1584:	4770      	bx	lr
    return(RADIOLIB_ERR_SPI_CMD_INVALID);
    1586:	4802      	ldr	r0, [pc, #8]	; (1590 <SX126x::SPIparseStatus(unsigned char)+0x30>)
    1588:	4770      	bx	lr
    return(RADIOLIB_ERR_SPI_CMD_FAILED);
    158a:	4802      	ldr	r0, [pc, #8]	; (1594 <SX126x::SPIparseStatus(unsigned char)+0x34>)
  }
  return(RADIOLIB_ERR_NONE);
}
    158c:	4770      	bx	lr
    158e:	bf00      	nop
    1590:	fffffd3e 	.word	0xfffffd3e
    1594:	fffffd3d 	.word	0xfffffd3d

00001598 <SX126x::receiveDirect()>:
  this->mod->setRfSwitchState(Module::MODE_RX);
    1598:	2102      	movs	r1, #2
    159a:	f8d0 015c 	ldr.w	r0, [r0, #348]	; 0x15c
int16_t SX126x::receiveDirect() {
    159e:	b508      	push	{r3, lr}
  this->mod->setRfSwitchState(Module::MODE_RX);
    15a0:	f7ff fbc8 	bl	d34 <Module::setRfSwitchState(unsigned char)>
}
    15a4:	f04f 30ff 	mov.w	r0, #4294967295
    15a8:	bd08      	pop	{r3, pc}
    15aa:	bf00      	nop

000015ac <SX126x::clearIrqStatus(unsigned short)>:
int16_t SX126x::clearIrqStatus(uint16_t clearIrqParams) {
    15ac:	b510      	push	{r4, lr}
  return(this->mod->SPIwriteStream(RADIOLIB_SX126X_CMD_CLEAR_IRQ_STATUS, data, 2));
    15ae:	2302      	movs	r3, #2
int16_t SX126x::clearIrqStatus(uint16_t clearIrqParams) {
    15b0:	b084      	sub	sp, #16
  uint8_t data[] = { (uint8_t)((clearIrqParams >> 8) & 0xFF), (uint8_t)(clearIrqParams & 0xFF) };
    15b2:	ba49      	rev16	r1, r1
  return(this->mod->SPIwriteStream(RADIOLIB_SX126X_CMD_CLEAR_IRQ_STATUS, data, 2));
    15b4:	2401      	movs	r4, #1
    15b6:	aa03      	add	r2, sp, #12
    15b8:	f8d0 015c 	ldr.w	r0, [r0, #348]	; 0x15c
  uint8_t data[] = { (uint8_t)((clearIrqParams >> 8) & 0xFF), (uint8_t)(clearIrqParams & 0xFF) };
    15bc:	f8ad 100c 	strh.w	r1, [sp, #12]
  return(this->mod->SPIwriteStream(RADIOLIB_SX126X_CMD_CLEAR_IRQ_STATUS, data, 2));
    15c0:	4619      	mov	r1, r3
    15c2:	e9cd 4400 	strd	r4, r4, [sp]
    15c6:	f7ff fb33 	bl	c30 <Module::SPIwriteStream(unsigned short, unsigned char*, unsigned int, bool, bool)>
}
    15ca:	b004      	add	sp, #16
    15cc:	bd10      	pop	{r4, pc}
    15ce:	bf00      	nop

000015d0 <SX126x::getIrqFlags()>:
uint32_t SX126x::getIrqFlags() {
    15d0:	b500      	push	{lr}
  this->mod->SPIreadStream(RADIOLIB_SX126X_CMD_GET_IRQ_STATUS, data, 2);
    15d2:	2101      	movs	r1, #1
uint32_t SX126x::getIrqFlags() {
    15d4:	b085      	sub	sp, #20
  uint8_t data[] = { 0x00, 0x00 };
    15d6:	f04f 0c00 	mov.w	ip, #0
  this->mod->SPIreadStream(RADIOLIB_SX126X_CMD_GET_IRQ_STATUS, data, 2);
    15da:	2302      	movs	r3, #2
    15dc:	f8d0 015c 	ldr.w	r0, [r0, #348]	; 0x15c
    15e0:	aa03      	add	r2, sp, #12
  uint8_t data[] = { 0x00, 0x00 };
    15e2:	f8ad c00c 	strh.w	ip, [sp, #12]
  this->mod->SPIreadStream(RADIOLIB_SX126X_CMD_GET_IRQ_STATUS, data, 2);
    15e6:	e9cd 1100 	strd	r1, r1, [sp]
    15ea:	2112      	movs	r1, #18
    15ec:	f7ff fade 	bl	bac <Module::SPIreadStream(unsigned short, unsigned char*, unsigned int, bool, bool)>
  return(((uint32_t)(data[0]) << 8) | data[1]);
    15f0:	f8bd 000c 	ldrh.w	r0, [sp, #12]
    15f4:	ba40      	rev16	r0, r0
}
    15f6:	b280      	uxth	r0, r0
    15f8:	b005      	add	sp, #20
    15fa:	f85d fb04 	ldr.w	pc, [sp], #4
    15fe:	bf00      	nop

00001600 <SX126x::readBit(unsigned long)>:
  updateDirectBuffer((uint8_t)this->mod->hal->digitalRead(pin));
    1600:	f8d0 315c 	ldr.w	r3, [r0, #348]	; 0x15c
void SX126x::readBit(uint32_t pin) {
    1604:	b510      	push	{r4, lr}
    1606:	4604      	mov	r4, r0
  updateDirectBuffer((uint8_t)this->mod->hal->digitalRead(pin));
    1608:	6818      	ldr	r0, [r3, #0]
    160a:	6803      	ldr	r3, [r0, #0]
    160c:	689b      	ldr	r3, [r3, #8]
    160e:	4798      	blx	r3
    1610:	4601      	mov	r1, r0
    1612:	4620      	mov	r0, r4
    1614:	b2c9      	uxtb	r1, r1
}
    1616:	e8bd 4010 	ldmia.w	sp!, {r4, lr}
  updateDirectBuffer((uint8_t)this->mod->hal->digitalRead(pin));
    161a:	f003 be49 	b.w	52b0 <PhysicalLayer::updateDirectBuffer(unsigned char)>
    161e:	bf00      	nop

00001620 <SX126x::scanChannel(ChannelScanConfig_t const&)>:
  int state = startChannelScan(config);
    1620:	6803      	ldr	r3, [r0, #0]
int16_t SX126x::scanChannel(const ChannelScanConfig_t &config) {
    1622:	b510      	push	{r4, lr}
  int state = startChannelScan(config);
    1624:	f8d3 3084 	ldr.w	r3, [r3, #132]	; 0x84
int16_t SX126x::scanChannel(const ChannelScanConfig_t &config) {
    1628:	4604      	mov	r4, r0
  int state = startChannelScan(config);
    162a:	4798      	blx	r3
  RADIOLIB_ASSERT(state);
    162c:	b130      	cbz	r0, 163c <SX126x::scanChannel(ChannelScanConfig_t const&)+0x1c>
    162e:	e015      	b.n	165c <SX126x::scanChannel(ChannelScanConfig_t const&)+0x3c>
    this->mod->hal->yield();
    1630:	f8d4 315c 	ldr.w	r3, [r4, #348]	; 0x15c
    1634:	6818      	ldr	r0, [r3, #0]
    1636:	6803      	ldr	r3, [r0, #0]
    1638:	6cdb      	ldr	r3, [r3, #76]	; 0x4c
    163a:	4798      	blx	r3
  while(!this->mod->hal->digitalRead(this->mod->getIrq())) {
    163c:	f8d4 315c 	ldr.w	r3, [r4, #348]	; 0x15c
    1640:	6818      	ldr	r0, [r3, #0]
    1642:	6a59      	ldr	r1, [r3, #36]	; 0x24
    1644:	6803      	ldr	r3, [r0, #0]
    1646:	689b      	ldr	r3, [r3, #8]
    1648:	4798      	blx	r3
    164a:	2800      	cmp	r0, #0
    164c:	d0f0      	beq.n	1630 <SX126x::scanChannel(ChannelScanConfig_t const&)+0x10>
  return(getChannelScanResult());
    164e:	6823      	ldr	r3, [r4, #0]
    1650:	4620      	mov	r0, r4
    1652:	f8d3 3088 	ldr.w	r3, [r3, #136]	; 0x88
}
    1656:	e8bd 4010 	ldmia.w	sp!, {r4, lr}
  return(getChannelScanResult());
    165a:	4718      	bx	r3
}
    165c:	bd10      	pop	{r4, pc}
    165e:	bf00      	nop

00001660 <SX126x::standby()>:
int16_t SX126x::standby() {
    1660:	b530      	push	{r4, r5, lr}
    1662:	4604      	mov	r4, r0
    1664:	b085      	sub	sp, #20
  this->mod->setRfSwitchState(Module::MODE_IDLE);
    1666:	2101      	movs	r1, #1
    1668:	f8d0 015c 	ldr.w	r0, [r0, #348]	; 0x15c
  return(SX126x::standby(this->standbyXOSC ? RADIOLIB_SX126X_STANDBY_XOSC : RADIOLIB_SX126X_STANDBY_RC));
    166c:	f894 514a 	ldrb.w	r5, [r4, #330]	; 0x14a
  this->mod->setRfSwitchState(Module::MODE_IDLE);
    1670:	f7ff fb60 	bl	d34 <Module::setRfSwitchState(unsigned char)>
    (void)this->mod->SPIwriteStream((uint16_t)RADIOLIB_SX126X_CMD_NOP, NULL, 0, false, false);
    1674:	2300      	movs	r3, #0
    1676:	e9cd 3300 	strd	r3, r3, [sp]
    167a:	461a      	mov	r2, r3
    167c:	4619      	mov	r1, r3
    167e:	f8d4 015c 	ldr.w	r0, [r4, #348]	; 0x15c
    1682:	f7ff fad5 	bl	c30 <Module::SPIwriteStream(unsigned short, unsigned char*, unsigned int, bool, bool)>
  return(this->mod->SPIwriteStream(RADIOLIB_SX126X_CMD_SET_STANDBY, data, 1));
    1686:	2301      	movs	r3, #1
    1688:	aa03      	add	r2, sp, #12
    168a:	2180      	movs	r1, #128	; 0x80
    168c:	f8d4 015c 	ldr.w	r0, [r4, #348]	; 0x15c
  uint8_t data[] = { mode };
    1690:	f88d 500c 	strb.w	r5, [sp, #12]
  return(this->mod->SPIwriteStream(RADIOLIB_SX126X_CMD_SET_STANDBY, data, 1));
    1694:	e9cd 3300 	strd	r3, r3, [sp]
    1698:	f7ff faca 	bl	c30 <Module::SPIwriteStream(unsigned short, unsigned char*, unsigned int, bool, bool)>
}
    169c:	b005      	add	sp, #20
    169e:	bd30      	pop	{r4, r5, pc}

000016a0 <SX126x::getRSSI()>:
  uint8_t data[3] = {0, 0, 0};
    16a0:	4a10      	ldr	r2, [pc, #64]	; (16e4 <SX126x::getRSSI()+0x44>)
  this->mod->SPIreadStream(RADIOLIB_SX126X_CMD_GET_PACKET_STATUS, data, 3);
    16a2:	2303      	movs	r3, #3
    16a4:	f8d0 015c 	ldr.w	r0, [r0, #348]	; 0x15c
  uint8_t data[3] = {0, 0, 0};
    16a8:	6911      	ldr	r1, [r2, #16]
float SX126x::getRSSI() {
    16aa:	b510      	push	{r4, lr}
  this->mod->SPIreadStream(RADIOLIB_SX126X_CMD_GET_PACKET_STATUS, data, 3);
    16ac:	2401      	movs	r4, #1
float SX126x::getRSSI() {
    16ae:	b084      	sub	sp, #16
  uint8_t data[3] = {0, 0, 0};
    16b0:	ea4f 4c11 	mov.w	ip, r1, lsr #16
    16b4:	f8ad 100c 	strh.w	r1, [sp, #12]
  this->mod->SPIreadStream(RADIOLIB_SX126X_CMD_GET_PACKET_STATUS, data, 3);
    16b8:	aa03      	add	r2, sp, #12
    16ba:	2114      	movs	r1, #20
    16bc:	9401      	str	r4, [sp, #4]
    16be:	9400      	str	r4, [sp, #0]
  uint8_t data[3] = {0, 0, 0};
    16c0:	f88d c00e 	strb.w	ip, [sp, #14]
  this->mod->SPIreadStream(RADIOLIB_SX126X_CMD_GET_PACKET_STATUS, data, 3);
    16c4:	f7ff fa72 	bl	bac <Module::SPIreadStream(unsigned short, unsigned char*, unsigned int, bool, bool)>
    return(-1.0 * rssiPkt/2.0);
    16c8:	f89d 300e 	ldrb.w	r3, [sp, #14]
    16cc:	eeb6 7b00 	vmov.f64	d7, #96	; 0x3f000000  0.5
    16d0:	ee00 3a10 	vmov	s0, r3
    16d4:	eeb8 0bc0 	vcvt.f64.s32	d0, s0
    16d8:	ee20 0b47 	vnmul.f64	d0, d0, d7
}
    16dc:	eeb7 0bc0 	vcvt.f32.f64	s0, d0
    16e0:	b004      	add	sp, #16
    16e2:	bd10      	pop	{r4, pc}
    16e4:	200002b0 	.word	0x200002b0

000016e8 <SX126x::transmitDirect(unsigned long)>:
int16_t SX126x::transmitDirect(uint32_t frf) {
    16e8:	b530      	push	{r4, r5, lr}
    16ea:	460d      	mov	r5, r1
    16ec:	b087      	sub	sp, #28
    16ee:	4604      	mov	r4, r0
  this->mod->setRfSwitchState(this->txMode);
    16f0:	f890 1158 	ldrb.w	r1, [r0, #344]	; 0x158
    16f4:	f8d0 015c 	ldr.w	r0, [r0, #348]	; 0x15c
    16f8:	f7ff fb1c 	bl	d34 <Module::setRfSwitchState(unsigned char)>
  if(frf != 0) {
    16fc:	b96d      	cbnz	r5, 171a <SX126x::transmitDirect(unsigned long)+0x32>
    16fe:	aa05      	add	r2, sp, #20
  return(this->mod->SPIwriteStream(RADIOLIB_SX126X_CMD_SET_TX_CONTINUOUS_WAVE, data, 1));
    1700:	2301      	movs	r3, #1
  uint8_t data[] = { RADIOLIB_SX126X_CMD_NOP };
    1702:	2500      	movs	r5, #0
  return(this->mod->SPIwriteStream(RADIOLIB_SX126X_CMD_SET_TX_CONTINUOUS_WAVE, data, 1));
    1704:	21d1      	movs	r1, #209	; 0xd1
    1706:	f8d4 015c 	ldr.w	r0, [r4, #348]	; 0x15c
  uint8_t data[] = { RADIOLIB_SX126X_CMD_NOP };
    170a:	f88d 5014 	strb.w	r5, [sp, #20]
  return(this->mod->SPIwriteStream(RADIOLIB_SX126X_CMD_SET_TX_CONTINUOUS_WAVE, data, 1));
    170e:	e9cd 3300 	strd	r3, r3, [sp]
    1712:	f7ff fa8d 	bl	c30 <Module::SPIwriteStream(unsigned short, unsigned char*, unsigned int, bool, bool)>
}
    1716:	b007      	add	sp, #28
    1718:	bd30      	pop	{r4, r5, pc}
  return(this->mod->SPIwriteStream(RADIOLIB_SX126X_CMD_SET_RF_FREQUENCY, data, 4));
    171a:	2101      	movs	r1, #1
    171c:	aa05      	add	r2, sp, #20
    171e:	ba2d      	rev	r5, r5
    1720:	2304      	movs	r3, #4
    1722:	9203      	str	r2, [sp, #12]
  uint8_t data[] = { (uint8_t)((frf >> 24) & 0xFF), (uint8_t)((frf >> 16) & 0xFF), (uint8_t)((frf >> 8) & 0xFF), (uint8_t)(frf & 0xFF) };
    1724:	9505      	str	r5, [sp, #20]
  return(this->mod->SPIwriteStream(RADIOLIB_SX126X_CMD_SET_RF_FREQUENCY, data, 4));
    1726:	e9cd 1100 	strd	r1, r1, [sp]
    172a:	2186      	movs	r1, #134	; 0x86
    172c:	f8d4 015c 	ldr.w	r0, [r4, #348]	; 0x15c
    1730:	f7ff fa7e 	bl	c30 <Module::SPIwriteStream(unsigned short, unsigned char*, unsigned int, bool, bool)>
  RADIOLIB_ASSERT(state);
    1734:	9a03      	ldr	r2, [sp, #12]
    1736:	2800      	cmp	r0, #0
    1738:	d0e2      	beq.n	1700 <SX126x::transmitDirect(unsigned long)+0x18>
}
    173a:	b007      	add	sp, #28
    173c:	bd30      	pop	{r4, r5, pc}
    173e:	bf00      	nop

00001740 <SX126x::randomByte()>:
uint8_t SX126x::randomByte() {
    1740:	e92d 41f0 	stmdb	sp!, {r4, r5, r6, r7, r8, lr}
  this->mod->SPIsetRegValue(RADIOLIB_SX126X_REG_ANA_LNA, RADIOLIB_SX126X_LNA_RNG_ENABLED, 0, 0);
    1744:	2400      	movs	r4, #0
uint8_t SX126x::randomByte() {
    1746:	b086      	sub	sp, #24
  this->mod->SPIsetRegValue(RADIOLIB_SX126X_REG_ANA_LNA, RADIOLIB_SX126X_LNA_RNG_ENABLED, 0, 0);
    1748:	27ff      	movs	r7, #255	; 0xff
    174a:	2602      	movs	r6, #2
uint8_t SX126x::randomByte() {
    174c:	4605      	mov	r5, r0
  this->mod->SPIsetRegValue(RADIOLIB_SX126X_REG_ANA_LNA, RADIOLIB_SX126X_LNA_RNG_ENABLED, 0, 0);
    174e:	4623      	mov	r3, r4
    1750:	4622      	mov	r2, r4
    1752:	f640 01e2 	movw	r1, #2274	; 0x8e2
    1756:	e9cd 7402 	strd	r7, r4, [sp, #8]
    175a:	e9cd 4600 	strd	r4, r6, [sp]
    175e:	f8d0 015c 	ldr.w	r0, [r0, #348]	; 0x15c
    1762:	f7ff f953 	bl	a0c <Module::SPIsetRegValue(unsigned long, unsigned char, unsigned char, unsigned char, unsigned char, unsigned char, bool)>
  this->mod->SPIsetRegValue(RADIOLIB_SX126X_REG_ANA_MIXER, RADIOLIB_SX126X_MIXER_RNG_ENABLED, 0, 0);
    1766:	9601      	str	r6, [sp, #4]
    1768:	4623      	mov	r3, r4
    176a:	4622      	mov	r2, r4
    176c:	f640 01e5 	movw	r1, #2277	; 0x8e5
    1770:	9400      	str	r4, [sp, #0]
  uint8_t randByte = 0x00;
    1772:	4626      	mov	r6, r4
  this->mod->SPIsetRegValue(RADIOLIB_SX126X_REG_ANA_MIXER, RADIOLIB_SX126X_MIXER_RNG_ENABLED, 0, 0);
    1774:	e9cd 7402 	strd	r7, r4, [sp, #8]
    1778:	f8d5 015c 	ldr.w	r0, [r5, #348]	; 0x15c
    uint8_t val = 0x00;
    177c:	4627      	mov	r7, r4
  this->mod->SPIsetRegValue(RADIOLIB_SX126X_REG_ANA_MIXER, RADIOLIB_SX126X_MIXER_RNG_ENABLED, 0, 0);
    177e:	f7ff f945 	bl	a0c <Module::SPIsetRegValue(unsigned long, unsigned char, unsigned char, unsigned char, unsigned char, unsigned char, bool)>
  uint8_t data[] = { (uint8_t)((timeout >> 16) & 0xFF), (uint8_t)((timeout >> 8) & 0xFF), (uint8_t)(timeout & 0xFF) };
    1782:	f64f 72ff 	movw	r2, #65535	; 0xffff
  return(this->mod->SPIwriteStream(RADIOLIB_SX126X_CMD_SET_RX, data, 3, true, false));
    1786:	2301      	movs	r3, #1
    1788:	2182      	movs	r1, #130	; 0x82
  uint8_t data[] = { (uint8_t)((timeout >> 16) & 0xFF), (uint8_t)((timeout >> 8) & 0xFF), (uint8_t)(timeout & 0xFF) };
    178a:	f8ad 2014 	strh.w	r2, [sp, #20]
    178e:	f88d 2016 	strb.w	r2, [sp, #22]
  return(this->mod->SPIwriteStream(RADIOLIB_SX126X_CMD_SET_RX, data, 3, true, false));
    1792:	aa05      	add	r2, sp, #20
    1794:	e9cd 3400 	strd	r3, r4, [sp]
    1798:	2303      	movs	r3, #3
    179a:	f8d5 015c 	ldr.w	r0, [r5, #348]	; 0x15c
    179e:	f7ff fa47 	bl	c30 <Module::SPIwriteStream(unsigned short, unsigned char*, unsigned int, bool, bool)>
  this->mod->hal->delay(10);
    17a2:	f8d5 315c 	ldr.w	r3, [r5, #348]	; 0x15c
    17a6:	210a      	movs	r1, #10
    17a8:	6818      	ldr	r0, [r3, #0]
    17aa:	6803      	ldr	r3, [r0, #0]
    17ac:	695b      	ldr	r3, [r3, #20]
    17ae:	4798      	blx	r3
  this->mod->SPIreadRegisterBurst(addr, numBytes, data);
    17b0:	f640 0119 	movw	r1, #2073	; 0x819
    17b4:	ab05      	add	r3, sp, #20
    17b6:	2201      	movs	r2, #1
    17b8:	f8d5 015c 	ldr.w	r0, [r5, #348]	; 0x15c
    uint8_t val = 0x00;
    17bc:	f88d 7014 	strb.w	r7, [sp, #20]
  this->mod->SPIreadRegisterBurst(addr, numBytes, data);
    17c0:	f7fe ffc0 	bl	744 <Module::SPIreadRegisterBurst(unsigned long, unsigned int, unsigned char*)>
  int16_t state = this->mod->SPIcheckStream();
    17c4:	f8d5 015c 	ldr.w	r0, [r5, #348]	; 0x15c
    17c8:	f7ff f9b0 	bl	b2c <Module::SPIcheckStream()>
    randByte |= ((val & 0x01) << i);
    17cc:	f89d 1014 	ldrb.w	r1, [sp, #20]
    17d0:	f001 0101 	and.w	r1, r1, #1
    17d4:	40a1      	lsls	r1, r4
  for(uint8_t i = 0; i < 8; i++) {
    17d6:	3401      	adds	r4, #1
    randByte |= ((val & 0x01) << i);
    17d8:	4331      	orrs	r1, r6
  for(uint8_t i = 0; i < 8; i++) {
    17da:	2c08      	cmp	r4, #8
    randByte |= ((val & 0x01) << i);
    17dc:	b2ce      	uxtb	r6, r1
  for(uint8_t i = 0; i < 8; i++) {
    17de:	d1e7      	bne.n	17b0 <SX126x::randomByte()+0x70>
  standby();
    17e0:	682b      	ldr	r3, [r5, #0]
  this->mod->SPIsetRegValue(RADIOLIB_SX126X_REG_ANA_LNA, RADIOLIB_SX126X_LNA_RNG_DISABLED, 0, 0);
    17e2:	f04f 08ff 	mov.w	r8, #255	; 0xff
    17e6:	2402      	movs	r4, #2
  standby();
    17e8:	4628      	mov	r0, r5
    17ea:	689b      	ldr	r3, [r3, #8]
    17ec:	4798      	blx	r3
  this->mod->SPIsetRegValue(RADIOLIB_SX126X_REG_ANA_LNA, RADIOLIB_SX126X_LNA_RNG_DISABLED, 0, 0);
    17ee:	2300      	movs	r3, #0
    17f0:	2201      	movs	r2, #1
    17f2:	f640 01e2 	movw	r1, #2274	; 0x8e2
    17f6:	e9cd 8702 	strd	r8, r7, [sp, #8]
    17fa:	e9cd 7400 	strd	r7, r4, [sp]
    17fe:	f8d5 015c 	ldr.w	r0, [r5, #348]	; 0x15c
    1802:	f7ff f903 	bl	a0c <Module::SPIsetRegValue(unsigned long, unsigned char, unsigned char, unsigned char, unsigned char, unsigned char, bool)>
  this->mod->SPIsetRegValue(RADIOLIB_SX126X_REG_ANA_MIXER, RADIOLIB_SX126X_MIXER_RNG_DISABLED, 0, 0);
    1806:	f8d5 015c 	ldr.w	r0, [r5, #348]	; 0x15c
    180a:	2300      	movs	r3, #0
    180c:	2201      	movs	r2, #1
    180e:	f640 01e5 	movw	r1, #2277	; 0x8e5
    1812:	e9cd 8702 	strd	r8, r7, [sp, #8]
    1816:	e9cd 7400 	strd	r7, r4, [sp]
    181a:	f7ff f8f7 	bl	a0c <Module::SPIsetRegValue(unsigned long, unsigned char, unsigned char, unsigned char, unsigned char, unsigned char, bool)>
}
    181e:	4630      	mov	r0, r6
    1820:	b006      	add	sp, #24
    1822:	e8bd 81f0 	ldmia.w	sp!, {r4, r5, r6, r7, r8, pc}
    1826:	bf00      	nop

00001828 <SX126x::clearIrqFlags(unsigned long)>:
  return(this->clearIrqStatus(irq));
    1828:	6803      	ldr	r3, [r0, #0]
    182a:	4a0e      	ldr	r2, [pc, #56]	; (1864 <SX126x::clearIrqFlags(unsigned long)+0x3c>)
    182c:	f8d3 30c8 	ldr.w	r3, [r3, #200]	; 0xc8
    1830:	4293      	cmp	r3, r2
int16_t SX126x::clearIrqFlags(uint32_t irq) {
    1832:	b510      	push	{r4, lr}
    1834:	b084      	sub	sp, #16
    1836:	d10e      	bne.n	1856 <SX126x::clearIrqFlags(unsigned long)+0x2e>
  return(this->mod->SPIwriteStream(RADIOLIB_SX126X_CMD_CLEAR_IRQ_STATUS, data, 2));
    1838:	2302      	movs	r3, #2
  uint8_t data[] = { (uint8_t)((clearIrqParams >> 8) & 0xFF), (uint8_t)(clearIrqParams & 0xFF) };
    183a:	ba49      	rev16	r1, r1
  return(this->mod->SPIwriteStream(RADIOLIB_SX126X_CMD_CLEAR_IRQ_STATUS, data, 2));
    183c:	2401      	movs	r4, #1
    183e:	aa03      	add	r2, sp, #12
  uint8_t data[] = { (uint8_t)((clearIrqParams >> 8) & 0xFF), (uint8_t)(clearIrqParams & 0xFF) };
    1840:	f8ad 100c 	strh.w	r1, [sp, #12]
  return(this->mod->SPIwriteStream(RADIOLIB_SX126X_CMD_CLEAR_IRQ_STATUS, data, 2));
    1844:	4619      	mov	r1, r3
    1846:	f8d0 015c 	ldr.w	r0, [r0, #348]	; 0x15c
    184a:	e9cd 4400 	strd	r4, r4, [sp]
    184e:	f7ff f9ef 	bl	c30 <Module::SPIwriteStream(unsigned short, unsigned char*, unsigned int, bool, bool)>
}
    1852:	b004      	add	sp, #16
    1854:	bd10      	pop	{r4, pc}
    1856:	b28c      	uxth	r4, r1
  return(this->clearIrqStatus(irq));
    1858:	4621      	mov	r1, r4
}
    185a:	b004      	add	sp, #16
    185c:	e8bd 4010 	ldmia.w	sp!, {r4, lr}
  return(this->clearIrqStatus(irq));
    1860:	4718      	bx	r3
    1862:	bf00      	nop
    1864:	000015ad 	.word	0x000015ad

00001868 <SX126x::finishTransmit()>:
  int16_t state = clearIrqStatus();
    1868:	6803      	ldr	r3, [r0, #0]
    186a:	4a12      	ldr	r2, [pc, #72]	; (18b4 <SX126x::finishTransmit()+0x4c>)
    186c:	f8d3 30c8 	ldr.w	r3, [r3, #200]	; 0xc8
    1870:	4293      	cmp	r3, r2
int16_t SX126x::finishTransmit() {
    1872:	b510      	push	{r4, lr}
    1874:	4604      	mov	r4, r0
    1876:	b084      	sub	sp, #16
    1878:	d117      	bne.n	18aa <SX126x::finishTransmit()+0x42>
  return(this->mod->SPIwriteStream(RADIOLIB_SX126X_CMD_CLEAR_IRQ_STATUS, data, 2));
    187a:	2101      	movs	r1, #1
  uint8_t data[] = { (uint8_t)((clearIrqParams >> 8) & 0xFF), (uint8_t)(clearIrqParams & 0xFF) };
    187c:	f64f 7043 	movw	r0, #65347	; 0xff43
  return(this->mod->SPIwriteStream(RADIOLIB_SX126X_CMD_CLEAR_IRQ_STATUS, data, 2));
    1880:	2302      	movs	r3, #2
    1882:	aa03      	add	r2, sp, #12
  uint8_t data[] = { (uint8_t)((clearIrqParams >> 8) & 0xFF), (uint8_t)(clearIrqParams & 0xFF) };
    1884:	f8ad 000c 	strh.w	r0, [sp, #12]
  return(this->mod->SPIwriteStream(RADIOLIB_SX126X_CMD_CLEAR_IRQ_STATUS, data, 2));
    1888:	e9cd 1100 	strd	r1, r1, [sp]
    188c:	4619      	mov	r1, r3
    188e:	f8d4 015c 	ldr.w	r0, [r4, #348]	; 0x15c
    1892:	f7ff f9cd 	bl	c30 <Module::SPIwriteStream(unsigned short, unsigned char*, unsigned int, bool, bool)>
  RADIOLIB_ASSERT(state);
    1896:	b930      	cbnz	r0, 18a6 <SX126x::finishTransmit()+0x3e>
  return(standby());
    1898:	6823      	ldr	r3, [r4, #0]
    189a:	4620      	mov	r0, r4
    189c:	689b      	ldr	r3, [r3, #8]
}
    189e:	b004      	add	sp, #16
    18a0:	e8bd 4010 	ldmia.w	sp!, {r4, lr}
  return(standby());
    18a4:	4718      	bx	r3
}
    18a6:	b004      	add	sp, #16
    18a8:	bd10      	pop	{r4, pc}
  int16_t state = clearIrqStatus();
    18aa:	f244 31ff 	movw	r1, #17407	; 0x43ff
    18ae:	4798      	blx	r3
    18b0:	e7f1      	b.n	1896 <SX126x::finishTransmit()+0x2e>
    18b2:	bf00      	nop
    18b4:	000015ad 	.word	0x000015ad

000018b8 <SX126x::setIrqFlags(unsigned long)>:
int16_t SX126x::setIrqFlags(uint32_t irq) {
    18b8:	b510      	push	{r4, lr}
  return(this->mod->SPIwriteStream(RADIOLIB_SX126X_CMD_SET_DIO_IRQ_PARAMS, data, 8));
    18ba:	2308      	movs	r3, #8
int16_t SX126x::setIrqFlags(uint32_t irq) {
    18bc:	b084      	sub	sp, #16
                     (uint8_t)((dio3Mask >> 8) & 0xFF), (uint8_t)(dio3Mask & 0xFF)};
    18be:	ba49      	rev16	r1, r1
  return(this->mod->SPIwriteStream(RADIOLIB_SX126X_CMD_SET_DIO_IRQ_PARAMS, data, 8));
    18c0:	2201      	movs	r2, #1
    18c2:	f8d0 015c 	ldr.w	r0, [r0, #348]	; 0x15c
                     (uint8_t)((dio3Mask >> 8) & 0xFF), (uint8_t)(dio3Mask & 0xFF)};
    18c6:	2400      	movs	r4, #0
    18c8:	f8ad 1008 	strh.w	r1, [sp, #8]
    18cc:	f8ad 100a 	strh.w	r1, [sp, #10]
  return(this->mod->SPIwriteStream(RADIOLIB_SX126X_CMD_SET_DIO_IRQ_PARAMS, data, 8));
    18d0:	4619      	mov	r1, r3
                     (uint8_t)((dio3Mask >> 8) & 0xFF), (uint8_t)(dio3Mask & 0xFF)};
    18d2:	9403      	str	r4, [sp, #12]
  return(this->mod->SPIwriteStream(RADIOLIB_SX126X_CMD_SET_DIO_IRQ_PARAMS, data, 8));
    18d4:	e9cd 2200 	strd	r2, r2, [sp]
    18d8:	eb0d 0203 	add.w	r2, sp, r3
    18dc:	f7ff f9a8 	bl	c30 <Module::SPIwriteStream(unsigned short, unsigned char*, unsigned int, bool, bool)>
}
    18e0:	b004      	add	sp, #16
    18e2:	bd10      	pop	{r4, pc}

000018e4 <SX126x::getModem(ModemType_t*)>:
  RADIOLIB_ASSERT_PTR(modem);
    18e4:	b1f9      	cbz	r1, 1926 <SX126x::getModem(ModemType_t*)+0x42>
  this->mod->SPIreadStream(RADIOLIB_SX126X_CMD_GET_PACKET_TYPE, &data, 1);
    18e6:	2301      	movs	r3, #1
    18e8:	f8d0 015c 	ldr.w	r0, [r0, #348]	; 0x15c
int16_t SX126x::getModem(ModemType_t* modem) {
    18ec:	b510      	push	{r4, lr}
    18ee:	460c      	mov	r4, r1
    18f0:	b084      	sub	sp, #16
  uint8_t data = 0xFF;
    18f2:	21ff      	movs	r1, #255	; 0xff
  this->mod->SPIreadStream(RADIOLIB_SX126X_CMD_GET_PACKET_TYPE, &data, 1);
    18f4:	f10d 020f 	add.w	r2, sp, #15
  uint8_t data = 0xFF;
    18f8:	f88d 100f 	strb.w	r1, [sp, #15]
  this->mod->SPIreadStream(RADIOLIB_SX126X_CMD_GET_PACKET_TYPE, &data, 1);
    18fc:	2111      	movs	r1, #17
    18fe:	e9cd 3300 	strd	r3, r3, [sp]
    1902:	f7ff f953 	bl	bac <Module::SPIreadStream(unsigned short, unsigned char*, unsigned int, bool, bool)>
  return(data);
    1906:	f89d 300f 	ldrb.w	r3, [sp, #15]
  switch(packetType) {
    190a:	2b01      	cmp	r3, #1
    190c:	d007      	beq.n	191e <SX126x::getModem(ModemType_t*)+0x3a>
    190e:	2b03      	cmp	r3, #3
    1910:	d004      	beq.n	191c <SX126x::getModem(ModemType_t*)+0x38>
    1912:	b123      	cbz	r3, 191e <SX126x::getModem(ModemType_t*)+0x3a>
    1914:	f06f 0013 	mvn.w	r0, #19
}
    1918:	b004      	add	sp, #16
    191a:	bd10      	pop	{r4, pc}
      *modem = ModemType_t::RADIOLIB_MODEM_LRFHSS;
    191c:	2302      	movs	r3, #2
      return(RADIOLIB_ERR_NONE);
    191e:	2000      	movs	r0, #0
      *modem = ModemType_t::RADIOLIB_MODEM_LRFHSS;
    1920:	7023      	strb	r3, [r4, #0]
}
    1922:	b004      	add	sp, #16
    1924:	bd10      	pop	{r4, pc}
  RADIOLIB_ASSERT_PTR(modem);
    1926:	f06f 0002 	mvn.w	r0, #2
}
    192a:	4770      	bx	lr

0000192c <SX126x::getPacketLength(bool)>:
size_t SX126x::getPacketLength(bool update) {
    192c:	b510      	push	{r4, lr}
  this->mod->SPIreadStream(RADIOLIB_SX126X_CMD_GET_PACKET_TYPE, &data, 1);
    192e:	2301      	movs	r3, #1
size_t SX126x::getPacketLength(bool update) {
    1930:	b084      	sub	sp, #16
  uint8_t data = 0xFF;
    1932:	22ff      	movs	r2, #255	; 0xff
size_t SX126x::getPacketLength(bool update) {
    1934:	4604      	mov	r4, r0
  this->mod->SPIreadStream(RADIOLIB_SX126X_CMD_GET_PACKET_TYPE, &data, 1);
    1936:	2111      	movs	r1, #17
  uint8_t data = 0xFF;
    1938:	f88d 200c 	strb.w	r2, [sp, #12]
  this->mod->SPIreadStream(RADIOLIB_SX126X_CMD_GET_PACKET_TYPE, &data, 1);
    193c:	aa03      	add	r2, sp, #12
    193e:	e9cd 3300 	strd	r3, r3, [sp]
    1942:	f8d0 015c 	ldr.w	r0, [r0, #348]	; 0x15c
    1946:	f7ff f931 	bl	bac <Module::SPIreadStream(unsigned short, unsigned char*, unsigned int, bool, bool)>
  return(data);
    194a:	f89d 300c 	ldrb.w	r3, [sp, #12]
  if((getPacketType() == RADIOLIB_SX126X_PACKET_TYPE_LORA) && (this->headerType == RADIOLIB_SX126X_LORA_HEADER_IMPLICIT)) {
    194e:	2b01      	cmp	r3, #1
    1950:	d103      	bne.n	195a <SX126x::getPacketLength(bool)+0x2e>
    1952:	f894 3164 	ldrb.w	r3, [r4, #356]	; 0x164
    1956:	2b01      	cmp	r3, #1
    1958:	d011      	beq.n	197e <SX126x::getPacketLength(bool)+0x52>
  this->mod->SPIreadStream(RADIOLIB_SX126X_CMD_GET_RX_BUFFER_STATUS, rxBufStatus, 2);
    195a:	2101      	movs	r1, #1
  uint8_t rxBufStatus[2] = {0, 0};
    195c:	f04f 0c00 	mov.w	ip, #0
  this->mod->SPIreadStream(RADIOLIB_SX126X_CMD_GET_RX_BUFFER_STATUS, rxBufStatus, 2);
    1960:	f8d4 015c 	ldr.w	r0, [r4, #348]	; 0x15c
    1964:	2302      	movs	r3, #2
    1966:	aa03      	add	r2, sp, #12
  uint8_t rxBufStatus[2] = {0, 0};
    1968:	f8ad c00c 	strh.w	ip, [sp, #12]
  this->mod->SPIreadStream(RADIOLIB_SX126X_CMD_GET_RX_BUFFER_STATUS, rxBufStatus, 2);
    196c:	e9cd 1100 	strd	r1, r1, [sp]
    1970:	2113      	movs	r1, #19
    1972:	f7ff f91b 	bl	bac <Module::SPIreadStream(unsigned short, unsigned char*, unsigned int, bool, bool)>
  return((size_t)rxBufStatus[0]);
    1976:	f89d 000c 	ldrb.w	r0, [sp, #12]
}
    197a:	b004      	add	sp, #16
    197c:	bd10      	pop	{r4, pc}
    return(this->implicitLen);
    197e:	f8d4 0194 	ldr.w	r0, [r4, #404]	; 0x194
}
    1982:	b004      	add	sp, #16
    1984:	bd10      	pop	{r4, pc}
    1986:	bf00      	nop

00001988 <SX126x::checkDataRate(DataRate_t)>:
int16_t SX126x::checkDataRate(DataRate_t dr) {
    1988:	b500      	push	{lr}
    198a:	ed2d 8b02 	vpush	{d8}
    198e:	b089      	sub	sp, #36	; 0x24
  this->mod->SPIreadStream(RADIOLIB_SX126X_CMD_GET_PACKET_TYPE, &data, 1);
    1990:	f8d0 015c 	ldr.w	r0, [r0, #348]	; 0x15c
int16_t SX126x::checkDataRate(DataRate_t dr) {
    1994:	f10d 0c0c 	add.w	ip, sp, #12
    1998:	e88c 000e 	stmia.w	ip, {r1, r2, r3}
  this->mod->SPIreadStream(RADIOLIB_SX126X_CMD_GET_PACKET_TYPE, &data, 1);
    199c:	2301      	movs	r3, #1
  uint8_t data = 0xFF;
    199e:	f04f 0cff 	mov.w	ip, #255	; 0xff
  this->mod->SPIreadStream(RADIOLIB_SX126X_CMD_GET_PACKET_TYPE, &data, 1);
    19a2:	f10d 021f 	add.w	r2, sp, #31
    19a6:	2111      	movs	r1, #17
    19a8:	ed9d 8a04 	vldr	s16, [sp, #16]
  uint8_t data = 0xFF;
    19ac:	f88d c01f 	strb.w	ip, [sp, #31]
  this->mod->SPIreadStream(RADIOLIB_SX126X_CMD_GET_PACKET_TYPE, &data, 1);
    19b0:	e9cd 3300 	strd	r3, r3, [sp]
    19b4:	f7ff f8fa 	bl	bac <Module::SPIreadStream(unsigned short, unsigned char*, unsigned int, bool, bool)>
  return(data);
    19b8:	f89d 301f 	ldrb.w	r3, [sp, #31]
  if(modem == RADIOLIB_SX126X_PACKET_TYPE_GFSK) {
    19bc:	bb3b      	cbnz	r3, 1a0e <SX126x::checkDataRate(DataRate_t)+0x86>
    RADIOLIB_CHECK_RANGE(dr.fsk.bitRate, 0.6, 300.0, RADIOLIB_ERR_INVALID_BIT_RATE);
    19be:	eddd 7a03 	vldr	s15, [sp, #12]
    19c2:	ed9f 6b2b 	vldr	d6, [pc, #172]	; 1a70 <SX126x::checkDataRate(DataRate_t)+0xe8>
    19c6:	eeb7 5ae7 	vcvt.f64.f32	d5, s15
    19ca:	eeb4 5bc6 	vcmpe.f64	d5, d6
    19ce:	eef1 fa10 	vmrs	APSR_nzcv, fpscr
    19d2:	db3c      	blt.n	1a4e <SX126x::checkDataRate(DataRate_t)+0xc6>
    19d4:	ed9f 7a28 	vldr	s14, [pc, #160]	; 1a78 <SX126x::checkDataRate(DataRate_t)+0xf0>
    19d8:	eef4 7ac7 	vcmpe.f32	s15, s14
    19dc:	eef1 fa10 	vmrs	APSR_nzcv, fpscr
    19e0:	d835      	bhi.n	1a4e <SX126x::checkDataRate(DataRate_t)+0xc6>
    RADIOLIB_CHECK_RANGE(dr.fsk.freqDev, 0.6, 200.0, RADIOLIB_ERR_INVALID_FREQUENCY_DEVIATION);
    19e2:	eeb7 7ac8 	vcvt.f64.f32	d7, s16
    19e6:	eeb4 7bc6 	vcmpe.f64	d7, d6
    19ea:	eef1 fa10 	vmrs	APSR_nzcv, fpscr
    19ee:	db37      	blt.n	1a60 <SX126x::checkDataRate(DataRate_t)+0xd8>
    19f0:	eddf 7a22 	vldr	s15, [pc, #136]	; 1a7c <SX126x::checkDataRate(DataRate_t)+0xf4>
    19f4:	eeb4 8ae7 	vcmpe.f32	s16, s15
    19f8:	eef1 fa10 	vmrs	APSR_nzcv, fpscr
    19fc:	bf94      	ite	ls
    19fe:	2000      	movls	r0, #0
    1a00:	f06f 0065 	mvnhi.w	r0, #101	; 0x65
}
    1a04:	b009      	add	sp, #36	; 0x24
    1a06:	ecbd 8b02 	vpop	{d8}
    1a0a:	f85d fb04 	ldr.w	pc, [sp], #4
  } else if(modem == RADIOLIB_SX126X_PACKET_TYPE_LORA) {
    1a0e:	2b01      	cmp	r3, #1
    1a10:	d120      	bne.n	1a54 <SX126x::checkDataRate(DataRate_t)+0xcc>
    RADIOLIB_CHECK_RANGE(dr.lora.spreadingFactor, 5, 12, RADIOLIB_ERR_INVALID_SPREADING_FACTOR);
    1a12:	f89d 300c 	ldrb.w	r3, [sp, #12]
    1a16:	3b05      	subs	r3, #5
    1a18:	2b07      	cmp	r3, #7
    1a1a:	d824      	bhi.n	1a66 <SX126x::checkDataRate(DataRate_t)+0xde>
    RADIOLIB_CHECK_RANGE(dr.lora.bandwidth, 0.0, 510.0, RADIOLIB_ERR_INVALID_BANDWIDTH);
    1a1c:	eeb5 8ac0 	vcmpe.f32	s16, #0.0
    1a20:	eef1 fa10 	vmrs	APSR_nzcv, fpscr
    1a24:	db19      	blt.n	1a5a <SX126x::checkDataRate(DataRate_t)+0xd2>
    1a26:	eddf 7a16 	vldr	s15, [pc, #88]	; 1a80 <SX126x::checkDataRate(DataRate_t)+0xf8>
    1a2a:	eeb4 8ae7 	vcmpe.f32	s16, s15
    1a2e:	eef1 fa10 	vmrs	APSR_nzcv, fpscr
    1a32:	d812      	bhi.n	1a5a <SX126x::checkDataRate(DataRate_t)+0xd2>
    RADIOLIB_CHECK_RANGE(dr.lora.codingRate, 5, 8, RADIOLIB_ERR_INVALID_CODING_RATE);
    1a34:	f89d 3014 	ldrb.w	r3, [sp, #20]
    1a38:	3b05      	subs	r3, #5
    1a3a:	2b03      	cmp	r3, #3
    1a3c:	bf94      	ite	ls
    1a3e:	2000      	movls	r0, #0
    1a40:	f06f 0009 	mvnhi.w	r0, #9
}
    1a44:	b009      	add	sp, #36	; 0x24
    1a46:	ecbd 8b02 	vpop	{d8}
    1a4a:	f85d fb04 	ldr.w	pc, [sp], #4
    RADIOLIB_CHECK_RANGE(dr.fsk.bitRate, 0.6, 300.0, RADIOLIB_ERR_INVALID_BIT_RATE);
    1a4e:	f06f 0064 	mvn.w	r0, #100	; 0x64
    1a52:	e7d7      	b.n	1a04 <SX126x::checkDataRate(DataRate_t)+0x7c>
  return(state);
    1a54:	f04f 30ff 	mov.w	r0, #4294967295
    1a58:	e7d4      	b.n	1a04 <SX126x::checkDataRate(DataRate_t)+0x7c>
    RADIOLIB_CHECK_RANGE(dr.lora.bandwidth, 0.0, 510.0, RADIOLIB_ERR_INVALID_BANDWIDTH);
    1a5a:	f06f 0007 	mvn.w	r0, #7
    1a5e:	e7d1      	b.n	1a04 <SX126x::checkDataRate(DataRate_t)+0x7c>
    RADIOLIB_CHECK_RANGE(dr.fsk.freqDev, 0.6, 200.0, RADIOLIB_ERR_INVALID_FREQUENCY_DEVIATION);
    1a60:	f06f 0065 	mvn.w	r0, #101	; 0x65
    1a64:	e7ce      	b.n	1a04 <SX126x::checkDataRate(DataRate_t)+0x7c>
    RADIOLIB_CHECK_RANGE(dr.lora.spreadingFactor, 5, 12, RADIOLIB_ERR_INVALID_SPREADING_FACTOR);
    1a66:	f06f 0008 	mvn.w	r0, #8
    1a6a:	e7cb      	b.n	1a04 <SX126x::checkDataRate(DataRate_t)+0x7c>
    1a6c:	f3af 8000 	nop.w
    1a70:	33333333 	.word	0x33333333
    1a74:	3fe33333 	.word	0x3fe33333
    1a78:	43960000 	.word	0x43960000
    1a7c:	43480000 	.word	0x43480000
    1a80:	43ff0000 	.word	0x43ff0000

00001a84 <SX126x::getSNR()>:
float SX126x::getSNR() {
    1a84:	b510      	push	{r4, lr}
  this->mod->SPIreadStream(RADIOLIB_SX126X_CMD_GET_PACKET_TYPE, &data, 1);
    1a86:	2301      	movs	r3, #1
float SX126x::getSNR() {
    1a88:	b084      	sub	sp, #16
  uint8_t data = 0xFF;
    1a8a:	22ff      	movs	r2, #255	; 0xff
float SX126x::getSNR() {
    1a8c:	4604      	mov	r4, r0
  this->mod->SPIreadStream(RADIOLIB_SX126X_CMD_GET_PACKET_TYPE, &data, 1);
    1a8e:	2111      	movs	r1, #17
  uint8_t data = 0xFF;
    1a90:	f88d 200c 	strb.w	r2, [sp, #12]
  this->mod->SPIreadStream(RADIOLIB_SX126X_CMD_GET_PACKET_TYPE, &data, 1);
    1a94:	aa03      	add	r2, sp, #12
    1a96:	e9cd 3300 	strd	r3, r3, [sp]
    1a9a:	f8d0 015c 	ldr.w	r0, [r0, #348]	; 0x15c
    1a9e:	f7ff f885 	bl	bac <Module::SPIreadStream(unsigned short, unsigned char*, unsigned int, bool, bool)>
  return(data);
    1aa2:	f89d 300c 	ldrb.w	r3, [sp, #12]
  if(getPacketType() != RADIOLIB_SX126X_PACKET_TYPE_LORA) {
    1aa6:	2b01      	cmp	r3, #1
    1aa8:	d003      	beq.n	1ab2 <SX126x::getSNR()+0x2e>
    return(RADIOLIB_ERR_WRONG_MODEM);
    1aaa:	eebb 0a04 	vmov.f32	s0, #180	; 0xc1a00000 -20.0
}
    1aae:	b004      	add	sp, #16
    1ab0:	bd10      	pop	{r4, pc}
  uint8_t data[3] = {0, 0, 0};
    1ab2:	4913      	ldr	r1, [pc, #76]	; (1b00 <SX126x::getSNR()+0x7c>)
  this->mod->SPIreadStream(RADIOLIB_SX126X_CMD_GET_PACKET_STATUS, data, 3);
    1ab4:	aa03      	add	r2, sp, #12
    1ab6:	f8d4 015c 	ldr.w	r0, [r4, #348]	; 0x15c
  uint8_t data[3] = {0, 0, 0};
    1aba:	690c      	ldr	r4, [r1, #16]
  this->mod->SPIreadStream(RADIOLIB_SX126X_CMD_GET_PACKET_STATUS, data, 3);
    1abc:	2114      	movs	r1, #20
    1abe:	9301      	str	r3, [sp, #4]
  uint8_t data[3] = {0, 0, 0};
    1ac0:	ea4f 4c14 	mov.w	ip, r4, lsr #16
  this->mod->SPIreadStream(RADIOLIB_SX126X_CMD_GET_PACKET_STATUS, data, 3);
    1ac4:	9300      	str	r3, [sp, #0]
    1ac6:	2303      	movs	r3, #3
  uint8_t data[3] = {0, 0, 0};
    1ac8:	f8ad 400c 	strh.w	r4, [sp, #12]
    1acc:	f88d c00e 	strb.w	ip, [sp, #14]
  this->mod->SPIreadStream(RADIOLIB_SX126X_CMD_GET_PACKET_STATUS, data, 3);
    1ad0:	f7ff f86c 	bl	bac <Module::SPIreadStream(unsigned short, unsigned char*, unsigned int, bool, bool)>
  return((((uint32_t)data[0]) << 16) | (((uint32_t)data[1]) << 8) | (uint32_t)data[2]);
    1ad4:	f89d 200d 	ldrb.w	r2, [sp, #13]
    1ad8:	f89d 300c 	ldrb.w	r3, [sp, #12]
    1adc:	0212      	lsls	r2, r2, #8
    1ade:	ea42 4203 	orr.w	r2, r2, r3, lsl #16
  uint8_t snrPkt = (packetStatus >> 8) & 0xFF;
    1ae2:	0a13      	lsrs	r3, r2, #8
  if(snrPkt < 128) {
    1ae4:	0412      	lsls	r2, r2, #16
    return(snrPkt/4.0);
    1ae6:	bf54      	ite	pl
    1ae8:	b2db      	uxtbpl	r3, r3
    return((snrPkt - 256)/4.0);
    1aea:	f063 03ff 	ornmi	r3, r3, #255	; 0xff
    1aee:	ee00 3a10 	vmov	s0, r3
    1af2:	eeba 0bcf 	vcvt.f64.s32	d0, d0, #2
    1af6:	eeb7 0bc0 	vcvt.f32.f64	s0, d0
}
    1afa:	b004      	add	sp, #16
    1afc:	bd10      	pop	{r4, pc}
    1afe:	bf00      	nop
    1b00:	200002b0 	.word	0x200002b0

00001b04 <SX126x::getChannelScanResult()>:
int16_t SX126x::getChannelScanResult() {
    1b04:	b510      	push	{r4, lr}
  this->mod->SPIreadStream(RADIOLIB_SX126X_CMD_GET_PACKET_TYPE, &data, 1);
    1b06:	2301      	movs	r3, #1
int16_t SX126x::getChannelScanResult() {
    1b08:	b084      	sub	sp, #16
  uint8_t data = 0xFF;
    1b0a:	22ff      	movs	r2, #255	; 0xff
  this->mod->SPIreadStream(RADIOLIB_SX126X_CMD_GET_PACKET_TYPE, &data, 1);
    1b0c:	2111      	movs	r1, #17
int16_t SX126x::getChannelScanResult() {
    1b0e:	4604      	mov	r4, r0
  uint8_t data = 0xFF;
    1b10:	f88d 200c 	strb.w	r2, [sp, #12]
  this->mod->SPIreadStream(RADIOLIB_SX126X_CMD_GET_PACKET_TYPE, &data, 1);
    1b14:	aa03      	add	r2, sp, #12
    1b16:	e9cd 3300 	strd	r3, r3, [sp]
    1b1a:	f8d0 015c 	ldr.w	r0, [r0, #348]	; 0x15c
    1b1e:	f7ff f845 	bl	bac <Module::SPIreadStream(unsigned short, unsigned char*, unsigned int, bool, bool)>
  return(data);
    1b22:	f89d 100c 	ldrb.w	r1, [sp, #12]
  if(getPacketType() != RADIOLIB_SX126X_PACKET_TYPE_LORA) {
    1b26:	2901      	cmp	r1, #1
    1b28:	d120      	bne.n	1b6c <SX126x::getChannelScanResult()+0x68>
  uint16_t cadResult = getIrqFlags();
    1b2a:	6823      	ldr	r3, [r4, #0]
    1b2c:	4a15      	ldr	r2, [pc, #84]	; (1b84 <SX126x::getChannelScanResult()+0x80>)
    1b2e:	6f5b      	ldr	r3, [r3, #116]	; 0x74
    1b30:	4293      	cmp	r3, r2
    1b32:	d11f      	bne.n	1b74 <SX126x::getChannelScanResult()+0x70>
  uint8_t data[] = { 0x00, 0x00 };
    1b34:	f04f 0c00 	mov.w	ip, #0
  this->mod->SPIreadStream(RADIOLIB_SX126X_CMD_GET_IRQ_STATUS, data, 2);
    1b38:	2302      	movs	r3, #2
    1b3a:	f8d4 015c 	ldr.w	r0, [r4, #348]	; 0x15c
    1b3e:	aa03      	add	r2, sp, #12
  uint8_t data[] = { 0x00, 0x00 };
    1b40:	f8ad c00c 	strh.w	ip, [sp, #12]
  this->mod->SPIreadStream(RADIOLIB_SX126X_CMD_GET_IRQ_STATUS, data, 2);
    1b44:	e9cd 1100 	strd	r1, r1, [sp]
    1b48:	2112      	movs	r1, #18
    1b4a:	f7ff f82f 	bl	bac <Module::SPIreadStream(unsigned short, unsigned char*, unsigned int, bool, bool)>
  return(((uint32_t)(data[0]) << 8) | data[1]);
    1b4e:	f8bd 000c 	ldrh.w	r0, [sp, #12]
    1b52:	ba40      	rev16	r0, r0
    1b54:	b280      	uxth	r0, r0
  if(cadResult & RADIOLIB_SX126X_IRQ_CAD_DETECTED) {
    1b56:	05c3      	lsls	r3, r0, #23
    1b58:	d411      	bmi.n	1b7e <SX126x::getChannelScanResult()+0x7a>
    return(RADIOLIB_CHANNEL_FREE);
    1b5a:	f010 0f80 	tst.w	r0, #128	; 0x80
    1b5e:	bf0c      	ite	eq
    1b60:	f04f 30ff 	moveq.w	r0, #4294967295
    1b64:	f06f 000e 	mvnne.w	r0, #14
}
    1b68:	b004      	add	sp, #16
    1b6a:	bd10      	pop	{r4, pc}
    return(RADIOLIB_ERR_WRONG_MODEM);
    1b6c:	f06f 0013 	mvn.w	r0, #19
}
    1b70:	b004      	add	sp, #16
    1b72:	bd10      	pop	{r4, pc}
  uint16_t cadResult = getIrqFlags();
    1b74:	4620      	mov	r0, r4
    1b76:	4798      	blx	r3
    1b78:	b280      	uxth	r0, r0
  if(cadResult & RADIOLIB_SX126X_IRQ_CAD_DETECTED) {
    1b7a:	05c3      	lsls	r3, r0, #23
    1b7c:	d5ed      	bpl.n	1b5a <SX126x::getChannelScanResult()+0x56>
    return(RADIOLIB_LORA_DETECTED);
    1b7e:	4802      	ldr	r0, [pc, #8]	; (1b88 <SX126x::getChannelScanResult()+0x84>)
}
    1b80:	b004      	add	sp, #16
    1b82:	bd10      	pop	{r4, pc}
    1b84:	000015d1 	.word	0x000015d1
    1b88:	fffffd42 	.word	0xfffffd42
    1b8c:	00000000 	.word	0x00000000

00001b90 <SX126x::setFrequencyDeviation(float)>:
int16_t SX126x::setFrequencyDeviation(float freqDev) {
    1b90:	b530      	push	{r4, r5, lr}
  this->mod->SPIreadStream(RADIOLIB_SX126X_CMD_GET_PACKET_TYPE, &data, 1);
    1b92:	2301      	movs	r3, #1
  uint8_t data = 0xFF;
    1b94:	22ff      	movs	r2, #255	; 0xff
int16_t SX126x::setFrequencyDeviation(float freqDev) {
    1b96:	4604      	mov	r4, r0
  this->mod->SPIreadStream(RADIOLIB_SX126X_CMD_GET_PACKET_TYPE, &data, 1);
    1b98:	2111      	movs	r1, #17
int16_t SX126x::setFrequencyDeviation(float freqDev) {
    1b9a:	ed2d 8b02 	vpush	{d8}
    1b9e:	b085      	sub	sp, #20
    1ba0:	eeb0 8a40 	vmov.f32	s16, s0
  this->mod->SPIreadStream(RADIOLIB_SX126X_CMD_GET_PACKET_TYPE, &data, 1);
    1ba4:	e9cd 3300 	strd	r3, r3, [sp]
  uint8_t data = 0xFF;
    1ba8:	f88d 2008 	strb.w	r2, [sp, #8]
  this->mod->SPIreadStream(RADIOLIB_SX126X_CMD_GET_PACKET_TYPE, &data, 1);
    1bac:	aa02      	add	r2, sp, #8
    1bae:	f8d0 015c 	ldr.w	r0, [r0, #348]	; 0x15c
    1bb2:	f7fe fffb 	bl	bac <Module::SPIreadStream(unsigned short, unsigned char*, unsigned int, bool, bool)>
  return(data);
    1bb6:	f89d 2008 	ldrb.w	r2, [sp, #8]
  if(getPacketType() != RADIOLIB_SX126X_PACKET_TYPE_GFSK) {
    1bba:	2a00      	cmp	r2, #0
    1bbc:	d159      	bne.n	1c72 <SX126x::setFrequencyDeviation(float)+0xe2>
  if(freqDev < 0.0) {
    1bbe:	eeb5 8ac0 	vcmpe.f32	s16, #0.0
    1bc2:	eef1 fa10 	vmrs	APSR_nzcv, fpscr
    1bc6:	d44c      	bmi.n	1c62 <SX126x::setFrequencyDeviation(float)+0xd2>
  RADIOLIB_CHECK_RANGE(newFreqDev, 0.6, 200.0, RADIOLIB_ERR_INVALID_FREQUENCY_DEVIATION);
    1bc8:	eeb7 7ac8 	vcvt.f64.f32	d7, s16
    1bcc:	ed9f 6b2a 	vldr	d6, [pc, #168]	; 1c78 <SX126x::setFrequencyDeviation(float)+0xe8>
    1bd0:	eeb4 7bc6 	vcmpe.f64	d7, d6
    1bd4:	eef1 fa10 	vmrs	APSR_nzcv, fpscr
    1bd8:	db48      	blt.n	1c6c <SX126x::setFrequencyDeviation(float)+0xdc>
    1bda:	eddf 6a2f 	vldr	s13, [pc, #188]	; 1c98 <SX126x::setFrequencyDeviation(float)+0x108>
    1bde:	eeb4 8ae6 	vcmpe.f32	s16, s13
    1be2:	eef1 fa10 	vmrs	APSR_nzcv, fpscr
    1be6:	d841      	bhi.n	1c6c <SX126x::setFrequencyDeviation(float)+0xdc>
  uint32_t freqDevRaw = (uint32_t)(((newFreqDev * 1000.0) * (float)((uint32_t)(1) << 25)) / (RADIOLIB_SX126X_CRYSTAL_FREQ * 1000000.0));
    1be8:	ed9f 4b25 	vldr	d4, [pc, #148]	; 1c80 <SX126x::setFrequencyDeviation(float)+0xf0>
    1bec:	ed9f 6b26 	vldr	d6, [pc, #152]	; 1c88 <SX126x::setFrequencyDeviation(float)+0xf8>
    1bf0:	ed9f 5b27 	vldr	d5, [pc, #156]	; 1c90 <SX126x::setFrequencyDeviation(float)+0x100>
    1bf4:	ee27 7b04 	vmul.f64	d7, d7, d4
    1bf8:	ee27 6b06 	vmul.f64	d6, d7, d6
    1bfc:	ee86 7b05 	vdiv.f64	d7, d6, d5
    1c00:	eefc 7bc7 	vcvt.u32.f64	s15, d7
    1c04:	ee17 3a90 	vmov	r3, s15
                     (uint8_t)((freqDev >> 16) & 0xFF), (uint8_t)((freqDev >> 8) & 0xFF), (uint8_t)(freqDev & 0xFF)};
    1c08:	f3c3 4207 	ubfx	r2, r3, #16, #8
    1c0c:	f3c3 2507 	ubfx	r5, r3, #8, #8
    1c10:	b2d9      	uxtb	r1, r3
  return(this->mod->SPIwriteStream(RADIOLIB_SX126X_CMD_SET_MODULATION_PARAMS, data, 8));
    1c12:	2001      	movs	r0, #1
  this->frequencyDev = freqDevRaw;
    1c14:	f8c4 3174 	str.w	r3, [r4, #372]	; 0x174
                     (uint8_t)((freqDev >> 16) & 0xFF), (uint8_t)((freqDev >> 8) & 0xFF), (uint8_t)(freqDev & 0xFF)};
    1c18:	f88d 500e 	strb.w	r5, [sp, #14]
  return(this->mod->SPIwriteStream(RADIOLIB_SX126X_CMD_SET_MODULATION_PARAMS, data, 8));
    1c1c:	2308      	movs	r3, #8
                     (uint8_t)((freqDev >> 16) & 0xFF), (uint8_t)((freqDev >> 8) & 0xFF), (uint8_t)(freqDev & 0xFF)};
    1c1e:	f88d 200d 	strb.w	r2, [sp, #13]
  return(this->mod->SPIwriteStream(RADIOLIB_SX126X_CMD_SET_MODULATION_PARAMS, data, 8));
    1c22:	aa02      	add	r2, sp, #8
                     (uint8_t)((freqDev >> 16) & 0xFF), (uint8_t)((freqDev >> 8) & 0xFF), (uint8_t)(freqDev & 0xFF)};
    1c24:	f88d 100f 	strb.w	r1, [sp, #15]
  return(this->mod->SPIwriteStream(RADIOLIB_SX126X_CMD_SET_MODULATION_PARAMS, data, 8));
    1c28:	218b      	movs	r1, #139	; 0x8b
    1c2a:	e9cd 0000 	strd	r0, r0, [sp]
  return(setModulationParamsFSK(this->bitRate, this->pulseShape, this->rxBandwidth, this->frequencyDev));
    1c2e:	f894 017a 	ldrb.w	r0, [r4, #378]	; 0x17a
    1c32:	f8d4 5170 	ldr.w	r5, [r4, #368]	; 0x170
                     (uint8_t)((freqDev >> 16) & 0xFF), (uint8_t)((freqDev >> 8) & 0xFF), (uint8_t)(freqDev & 0xFF)};
    1c36:	f88d 000b 	strb.w	r0, [sp, #11]
  return(setModulationParamsFSK(this->bitRate, this->pulseShape, this->rxBandwidth, this->frequencyDev));
    1c3a:	f894 0179 	ldrb.w	r0, [r4, #377]	; 0x179
                     (uint8_t)((freqDev >> 16) & 0xFF), (uint8_t)((freqDev >> 8) & 0xFF), (uint8_t)(freqDev & 0xFF)};
    1c3e:	f88d 500a 	strb.w	r5, [sp, #10]
    1c42:	f88d 000c 	strb.w	r0, [sp, #12]
  return(this->mod->SPIwriteStream(RADIOLIB_SX126X_CMD_SET_MODULATION_PARAMS, data, 8));
    1c46:	f8d4 015c 	ldr.w	r0, [r4, #348]	; 0x15c
  uint8_t data[8] = {(uint8_t)((br >> 16) & 0xFF), (uint8_t)((br >> 8) & 0xFF), (uint8_t)(br & 0xFF),
    1c4a:	0c2c      	lsrs	r4, r5, #16
    1c4c:	40dd      	lsrs	r5, r3
                     (uint8_t)((freqDev >> 16) & 0xFF), (uint8_t)((freqDev >> 8) & 0xFF), (uint8_t)(freqDev & 0xFF)};
    1c4e:	f88d 4008 	strb.w	r4, [sp, #8]
    1c52:	f88d 5009 	strb.w	r5, [sp, #9]
  return(this->mod->SPIwriteStream(RADIOLIB_SX126X_CMD_SET_MODULATION_PARAMS, data, 8));
    1c56:	f7fe ffeb 	bl	c30 <Module::SPIwriteStream(unsigned short, unsigned char*, unsigned int, bool, bool)>
}
    1c5a:	b005      	add	sp, #20
    1c5c:	ecbd 8b02 	vpop	{d8}
    1c60:	bd30      	pop	{r4, r5, pc}
    1c62:	2175      	movs	r1, #117	; 0x75
    1c64:	2502      	movs	r5, #2
    1c66:	f240 2375 	movw	r3, #629	; 0x275
    1c6a:	e7d2      	b.n	1c12 <SX126x::setFrequencyDeviation(float)+0x82>
  RADIOLIB_CHECK_RANGE(newFreqDev, 0.6, 200.0, RADIOLIB_ERR_INVALID_FREQUENCY_DEVIATION);
    1c6c:	f06f 0065 	mvn.w	r0, #101	; 0x65
    1c70:	e7f3      	b.n	1c5a <SX126x::setFrequencyDeviation(float)+0xca>
    return(RADIOLIB_ERR_WRONG_MODEM);
    1c72:	f06f 0013 	mvn.w	r0, #19
    1c76:	e7f0      	b.n	1c5a <SX126x::setFrequencyDeviation(float)+0xca>
    1c78:	33333333 	.word	0x33333333
    1c7c:	3fe33333 	.word	0x3fe33333
    1c80:	00000000 	.word	0x00000000
    1c84:	408f4000 	.word	0x408f4000
    1c88:	00000000 	.word	0x00000000
    1c8c:	41800000 	.word	0x41800000
    1c90:	00000000 	.word	0x00000000
    1c94:	417e8480 	.word	0x417e8480
    1c98:	43480000 	.word	0x43480000
    1c9c:	00000000 	.word	0x00000000

00001ca0 <SX126x::setBitRate(float)>:
int16_t SX126x::setBitRate(float br) {
    1ca0:	b530      	push	{r4, r5, lr}
  this->mod->SPIreadStream(RADIOLIB_SX126X_CMD_GET_PACKET_TYPE, &data, 1);
    1ca2:	2301      	movs	r3, #1
  uint8_t data = 0xFF;
    1ca4:	22ff      	movs	r2, #255	; 0xff
int16_t SX126x::setBitRate(float br) {
    1ca6:	4604      	mov	r4, r0
  this->mod->SPIreadStream(RADIOLIB_SX126X_CMD_GET_PACKET_TYPE, &data, 1);
    1ca8:	2111      	movs	r1, #17
int16_t SX126x::setBitRate(float br) {
    1caa:	ed2d 8b02 	vpush	{d8}
    1cae:	b085      	sub	sp, #20
    1cb0:	eeb0 8a40 	vmov.f32	s16, s0
  this->mod->SPIreadStream(RADIOLIB_SX126X_CMD_GET_PACKET_TYPE, &data, 1);
    1cb4:	e9cd 3300 	strd	r3, r3, [sp]
  uint8_t data = 0xFF;
    1cb8:	f88d 2008 	strb.w	r2, [sp, #8]
  this->mod->SPIreadStream(RADIOLIB_SX126X_CMD_GET_PACKET_TYPE, &data, 1);
    1cbc:	aa02      	add	r2, sp, #8
    1cbe:	f8d0 015c 	ldr.w	r0, [r0, #348]	; 0x15c
    1cc2:	f7fe ff73 	bl	bac <Module::SPIreadStream(unsigned short, unsigned char*, unsigned int, bool, bool)>
  return(data);
    1cc6:	f89d 3008 	ldrb.w	r3, [sp, #8]
  if((modem != RADIOLIB_SX126X_PACKET_TYPE_GFSK) && (modem != RADIOLIB_SX126X_PACKET_TYPE_LR_FHSS)) {
    1cca:	b3c3      	cbz	r3, 1d3e <SX126x::setBitRate(float)+0x9e>
    1ccc:	2b03      	cmp	r3, #3
    1cce:	d14b      	bne.n	1d68 <SX126x::setBitRate(float)+0xc8>
    RADIOLIB_CHECK_RANGE(br, 0.6, 300.0, RADIOLIB_ERR_INVALID_BIT_RATE);
    1cd0:	eeb7 7ac8 	vcvt.f64.f32	d7, s16
  return(setModulationParamsFSK(this->bitRate, this->pulseShape, this->rxBandwidth, this->frequencyDev));
    1cd4:	f894 317a 	ldrb.w	r3, [r4, #378]	; 0x17a
  return(this->mod->SPIwriteStream(RADIOLIB_SX126X_CMD_SET_MODULATION_PARAMS, data, 8));
    1cd8:	2001      	movs	r0, #1
  return(setModulationParamsFSK(this->bitRate, this->pulseShape, this->rxBandwidth, this->frequencyDev));
    1cda:	f894 2179 	ldrb.w	r2, [r4, #377]	; 0x179
                     (uint8_t)((freqDev >> 16) & 0xFF), (uint8_t)((freqDev >> 8) & 0xFF), (uint8_t)(freqDev & 0xFF)};
    1cde:	f88d 300b 	strb.w	r3, [sp, #11]
    1ce2:	f8b4 3174 	ldrh.w	r3, [r4, #372]	; 0x174
    1ce6:	f8b4 1176 	ldrh.w	r1, [r4, #374]	; 0x176
    1cea:	ba5b      	rev16	r3, r3
    1cec:	f88d 200c 	strb.w	r2, [sp, #12]
    1cf0:	f88d 100d 	strb.w	r1, [sp, #13]
  return(this->mod->SPIwriteStream(RADIOLIB_SX126X_CMD_SET_MODULATION_PARAMS, data, 8));
    1cf4:	aa02      	add	r2, sp, #8
                     (uint8_t)((freqDev >> 16) & 0xFF), (uint8_t)((freqDev >> 8) & 0xFF), (uint8_t)(freqDev & 0xFF)};
    1cf6:	f8ad 300e 	strh.w	r3, [sp, #14]
  return(this->mod->SPIwriteStream(RADIOLIB_SX126X_CMD_SET_MODULATION_PARAMS, data, 8));
    1cfa:	2308      	movs	r3, #8
    1cfc:	218b      	movs	r1, #139	; 0x8b
  uint32_t brRaw = (uint32_t)((RADIOLIB_SX126X_CRYSTAL_FREQ * 1000000.0 * 32.0) / (br * 1000.0));
    1cfe:	ed9f 6b1c 	vldr	d6, [pc, #112]	; 1d70 <SX126x::setBitRate(float)+0xd0>
    1d02:	ed9f 5b1d 	vldr	d5, [pc, #116]	; 1d78 <SX126x::setBitRate(float)+0xd8>
  return(this->mod->SPIwriteStream(RADIOLIB_SX126X_CMD_SET_MODULATION_PARAMS, data, 8));
    1d06:	e9cd 0000 	strd	r0, r0, [sp]
  uint32_t brRaw = (uint32_t)((RADIOLIB_SX126X_CRYSTAL_FREQ * 1000000.0 * 32.0) / (br * 1000.0));
    1d0a:	ee27 6b06 	vmul.f64	d6, d7, d6
  return(this->mod->SPIwriteStream(RADIOLIB_SX126X_CMD_SET_MODULATION_PARAMS, data, 8));
    1d0e:	f8d4 015c 	ldr.w	r0, [r4, #348]	; 0x15c
  uint32_t brRaw = (uint32_t)((RADIOLIB_SX126X_CRYSTAL_FREQ * 1000000.0 * 32.0) / (br * 1000.0));
    1d12:	ee85 7b06 	vdiv.f64	d7, d5, d6
    1d16:	eefc 7bc7 	vcvt.u32.f64	s15, d7
    1d1a:	ee17 5a90 	vmov	r5, s15
  this->bitRate = brRaw;
    1d1e:	edc4 7a5c 	vstr	s15, [r4, #368]	; 0x170
                     (uint8_t)((freqDev >> 16) & 0xFF), (uint8_t)((freqDev >> 8) & 0xFF), (uint8_t)(freqDev & 0xFF)};
    1d22:	f88d 500a 	strb.w	r5, [sp, #10]
  uint8_t data[8] = {(uint8_t)((br >> 16) & 0xFF), (uint8_t)((br >> 8) & 0xFF), (uint8_t)(br & 0xFF),
    1d26:	0c2c      	lsrs	r4, r5, #16
    1d28:	40dd      	lsrs	r5, r3
                     (uint8_t)((freqDev >> 16) & 0xFF), (uint8_t)((freqDev >> 8) & 0xFF), (uint8_t)(freqDev & 0xFF)};
    1d2a:	f88d 4008 	strb.w	r4, [sp, #8]
    1d2e:	f88d 5009 	strb.w	r5, [sp, #9]
  return(this->mod->SPIwriteStream(RADIOLIB_SX126X_CMD_SET_MODULATION_PARAMS, data, 8));
    1d32:	f7fe ff7d 	bl	c30 <Module::SPIwriteStream(unsigned short, unsigned char*, unsigned int, bool, bool)>
}
    1d36:	b005      	add	sp, #20
    1d38:	ecbd 8b02 	vpop	{d8}
    1d3c:	bd30      	pop	{r4, r5, pc}
  if(modem != RADIOLIB_SX126X_PACKET_TYPE_LR_FHSS) {
    1d3e:	2b03      	cmp	r3, #3
    1d40:	d0c6      	beq.n	1cd0 <SX126x::setBitRate(float)+0x30>
    RADIOLIB_CHECK_RANGE(br, 0.6, 300.0, RADIOLIB_ERR_INVALID_BIT_RATE);
    1d42:	eeb7 7ac8 	vcvt.f64.f32	d7, s16
    1d46:	ed9f 6b0e 	vldr	d6, [pc, #56]	; 1d80 <SX126x::setBitRate(float)+0xe0>
    1d4a:	eeb4 7bc6 	vcmpe.f64	d7, d6
    1d4e:	eef1 fa10 	vmrs	APSR_nzcv, fpscr
    1d52:	db06      	blt.n	1d62 <SX126x::setBitRate(float)+0xc2>
    1d54:	eddf 6a0c 	vldr	s13, [pc, #48]	; 1d88 <SX126x::setBitRate(float)+0xe8>
    1d58:	eeb4 8ae6 	vcmpe.f32	s16, s13
    1d5c:	eef1 fa10 	vmrs	APSR_nzcv, fpscr
    1d60:	d9b8      	bls.n	1cd4 <SX126x::setBitRate(float)+0x34>
    1d62:	f06f 0064 	mvn.w	r0, #100	; 0x64
    1d66:	e7e6      	b.n	1d36 <SX126x::setBitRate(float)+0x96>
    return(RADIOLIB_ERR_WRONG_MODEM);
    1d68:	f06f 0013 	mvn.w	r0, #19
    1d6c:	e7e3      	b.n	1d36 <SX126x::setBitRate(float)+0x96>
    1d6e:	bf00      	nop
    1d70:	00000000 	.word	0x00000000
    1d74:	408f4000 	.word	0x408f4000
    1d78:	00000000 	.word	0x00000000
    1d7c:	41ce8480 	.word	0x41ce8480
    1d80:	33333333 	.word	0x33333333
    1d84:	3fe33333 	.word	0x3fe33333
    1d88:	43960000 	.word	0x43960000

00001d8c <SX126x::setDataShaping(unsigned char)>:
int16_t SX126x::setDataShaping(uint8_t sh) {
    1d8c:	b530      	push	{r4, r5, lr}
  this->mod->SPIreadStream(RADIOLIB_SX126X_CMD_GET_PACKET_TYPE, &data, 1);
    1d8e:	2301      	movs	r3, #1
int16_t SX126x::setDataShaping(uint8_t sh) {
    1d90:	b085      	sub	sp, #20
  uint8_t data = 0xFF;
    1d92:	22ff      	movs	r2, #255	; 0xff
int16_t SX126x::setDataShaping(uint8_t sh) {
    1d94:	4604      	mov	r4, r0
    1d96:	460d      	mov	r5, r1
  this->mod->SPIreadStream(RADIOLIB_SX126X_CMD_GET_PACKET_TYPE, &data, 1);
    1d98:	2111      	movs	r1, #17
  uint8_t data = 0xFF;
    1d9a:	f88d 2008 	strb.w	r2, [sp, #8]
  this->mod->SPIreadStream(RADIOLIB_SX126X_CMD_GET_PACKET_TYPE, &data, 1);
    1d9e:	aa02      	add	r2, sp, #8
    1da0:	e9cd 3300 	strd	r3, r3, [sp]
    1da4:	f8d0 015c 	ldr.w	r0, [r0, #348]	; 0x15c
    1da8:	f7fe ff00 	bl	bac <Module::SPIreadStream(unsigned short, unsigned char*, unsigned int, bool, bool)>
  return(data);
    1dac:	f89d 3008 	ldrb.w	r3, [sp, #8]
  if((modem != RADIOLIB_SX126X_PACKET_TYPE_GFSK) && (modem != RADIOLIB_SX126X_PACKET_TYPE_LR_FHSS)) {
    1db0:	b10b      	cbz	r3, 1db6 <SX126x::setDataShaping(unsigned char)+0x2a>
    1db2:	2b03      	cmp	r3, #3
    1db4:	d135      	bne.n	1e22 <SX126x::setDataShaping(unsigned char)+0x96>
  switch(sh) {
    1db6:	2d04      	cmp	r5, #4
    1db8:	d836      	bhi.n	1e28 <SX126x::setDataShaping(unsigned char)+0x9c>
    1dba:	e8df f005 	tbb	[pc, r5]
    1dbe:	0304      	.short	0x0304
    1dc0:	2e2c      	.short	0x2e2c
    1dc2:	30          	.byte	0x30
    1dc3:	00          	.byte	0x00
    1dc4:	2508      	movs	r5, #8
  return(setModulationParamsFSK(this->bitRate, this->pulseShape, this->rxBandwidth, this->frequencyDev));
    1dc6:	f894 3179 	ldrb.w	r3, [r4, #377]	; 0x179
  return(this->mod->SPIwriteStream(RADIOLIB_SX126X_CMD_SET_MODULATION_PARAMS, data, 8));
    1dca:	2001      	movs	r0, #1
  return(setModulationParamsFSK(this->bitRate, this->pulseShape, this->rxBandwidth, this->frequencyDev));
    1dcc:	f8d4 1170 	ldr.w	r1, [r4, #368]	; 0x170
  return(this->mod->SPIwriteStream(RADIOLIB_SX126X_CMD_SET_MODULATION_PARAMS, data, 8));
    1dd0:	aa02      	add	r2, sp, #8
      this->pulseShape = RADIOLIB_SX126X_GFSK_FILTER_NONE;
    1dd2:	f884 517a 	strb.w	r5, [r4, #378]	; 0x17a
                     (uint8_t)((freqDev >> 16) & 0xFF), (uint8_t)((freqDev >> 8) & 0xFF), (uint8_t)(freqDev & 0xFF)};
    1dd6:	f88d 300c 	strb.w	r3, [sp, #12]
    1dda:	f88d 500b 	strb.w	r5, [sp, #11]
    1dde:	f8b4 3176 	ldrh.w	r3, [r4, #374]	; 0x176
    1de2:	f88d 100a 	strb.w	r1, [sp, #10]
    1de6:	f88d 300d 	strb.w	r3, [sp, #13]
  return(this->mod->SPIwriteStream(RADIOLIB_SX126X_CMD_SET_MODULATION_PARAMS, data, 8));
    1dea:	2308      	movs	r3, #8
    1dec:	e9cd 0000 	strd	r0, r0, [sp]
    1df0:	f8b4 5174 	ldrh.w	r5, [r4, #372]	; 0x174
    1df4:	f8d4 015c 	ldr.w	r0, [r4, #348]	; 0x15c
    1df8:	ba6c      	rev16	r4, r5
  uint8_t data[8] = {(uint8_t)((br >> 16) & 0xFF), (uint8_t)((br >> 8) & 0xFF), (uint8_t)(br & 0xFF),
    1dfa:	0c0d      	lsrs	r5, r1, #16
                     (uint8_t)((freqDev >> 16) & 0xFF), (uint8_t)((freqDev >> 8) & 0xFF), (uint8_t)(freqDev & 0xFF)};
    1dfc:	f8ad 400e 	strh.w	r4, [sp, #14]
  uint8_t data[8] = {(uint8_t)((br >> 16) & 0xFF), (uint8_t)((br >> 8) & 0xFF), (uint8_t)(br & 0xFF),
    1e00:	fa21 f403 	lsr.w	r4, r1, r3
  return(this->mod->SPIwriteStream(RADIOLIB_SX126X_CMD_SET_MODULATION_PARAMS, data, 8));
    1e04:	218b      	movs	r1, #139	; 0x8b
                     (uint8_t)((freqDev >> 16) & 0xFF), (uint8_t)((freqDev >> 8) & 0xFF), (uint8_t)(freqDev & 0xFF)};
    1e06:	f88d 5008 	strb.w	r5, [sp, #8]
    1e0a:	f88d 4009 	strb.w	r4, [sp, #9]
  return(this->mod->SPIwriteStream(RADIOLIB_SX126X_CMD_SET_MODULATION_PARAMS, data, 8));
    1e0e:	f7fe ff0f 	bl	c30 <Module::SPIwriteStream(unsigned short, unsigned char*, unsigned int, bool, bool)>
}
    1e12:	b005      	add	sp, #20
    1e14:	bd30      	pop	{r4, r5, pc}
      break;
    1e16:	2509      	movs	r5, #9
    1e18:	e7d5      	b.n	1dc6 <SX126x::setDataShaping(unsigned char)+0x3a>
      break;
    1e1a:	250a      	movs	r5, #10
    1e1c:	e7d3      	b.n	1dc6 <SX126x::setDataShaping(unsigned char)+0x3a>
      break;
    1e1e:	250b      	movs	r5, #11
    1e20:	e7d1      	b.n	1dc6 <SX126x::setDataShaping(unsigned char)+0x3a>
    return(RADIOLIB_ERR_WRONG_MODEM);
    1e22:	f06f 0013 	mvn.w	r0, #19
    1e26:	e7f4      	b.n	1e12 <SX126x::setDataShaping(unsigned char)+0x86>
  switch(sh) {
    1e28:	f06f 0069 	mvn.w	r0, #105	; 0x69
    1e2c:	e7f1      	b.n	1e12 <SX126x::setDataShaping(unsigned char)+0x86>
    1e2e:	bf00      	nop

00001e30 <SX126x::config(unsigned char) [clone .part.0]>:
int16_t SX126x::config(uint8_t modem) {
    1e30:	b570      	push	{r4, r5, r6, lr}
  state = this->mod->SPIwriteStream(RADIOLIB_SX126X_CMD_SET_PACKET_TYPE, data, 1);
    1e32:	2401      	movs	r4, #1
int16_t SX126x::config(uint8_t modem) {
    1e34:	b088      	sub	sp, #32
    1e36:	4605      	mov	r5, r0
  data[0] = modem;
    1e38:	f88d 1010 	strb.w	r1, [sp, #16]
  state = this->mod->SPIwriteStream(RADIOLIB_SX126X_CMD_SET_PACKET_TYPE, data, 1);
    1e3c:	4623      	mov	r3, r4
    1e3e:	aa04      	add	r2, sp, #16
    1e40:	218a      	movs	r1, #138	; 0x8a
    1e42:	e9cd 4400 	strd	r4, r4, [sp]
    1e46:	f8d0 015c 	ldr.w	r0, [r0, #348]	; 0x15c
    1e4a:	f7fe fef1 	bl	c30 <Module::SPIwriteStream(unsigned short, unsigned char*, unsigned int, bool, bool)>
  RADIOLIB_ASSERT(state);
    1e4e:	b988      	cbnz	r0, 1e74 <SX126x::config(unsigned char) [clone .part.0]+0x44>
  data[0] = this->standbyXOSC ? RADIOLIB_SX126X_RX_TX_FALLBACK_MODE_STDBY_XOSC : RADIOLIB_SX126X_RX_TX_FALLBACK_MODE_STDBY_RC;
    1e50:	f895 214a 	ldrb.w	r2, [r5, #330]	; 0x14a
  state = this->mod->SPIwriteStream(RADIOLIB_SX126X_CMD_SET_RX_TX_FALLBACK_MODE, data, 1);
    1e54:	4623      	mov	r3, r4
    1e56:	2193      	movs	r1, #147	; 0x93
  data[0] = this->standbyXOSC ? RADIOLIB_SX126X_RX_TX_FALLBACK_MODE_STDBY_XOSC : RADIOLIB_SX126X_RX_TX_FALLBACK_MODE_STDBY_RC;
    1e58:	2a00      	cmp	r2, #0
    1e5a:	bf14      	ite	ne
    1e5c:	2230      	movne	r2, #48	; 0x30
    1e5e:	2220      	moveq	r2, #32
  state = this->mod->SPIwriteStream(RADIOLIB_SX126X_CMD_SET_RX_TX_FALLBACK_MODE, data, 1);
    1e60:	e9cd 4400 	strd	r4, r4, [sp]
  data[0] = this->standbyXOSC ? RADIOLIB_SX126X_RX_TX_FALLBACK_MODE_STDBY_XOSC : RADIOLIB_SX126X_RX_TX_FALLBACK_MODE_STDBY_RC;
    1e64:	f88d 2010 	strb.w	r2, [sp, #16]
  state = this->mod->SPIwriteStream(RADIOLIB_SX126X_CMD_SET_RX_TX_FALLBACK_MODE, data, 1);
    1e68:	aa04      	add	r2, sp, #16
    1e6a:	f8d5 015c 	ldr.w	r0, [r5, #348]	; 0x15c
    1e6e:	f7fe fedf 	bl	c30 <Module::SPIwriteStream(unsigned short, unsigned char*, unsigned int, bool, bool)>
  RADIOLIB_ASSERT(state);
    1e72:	b108      	cbz	r0, 1e78 <SX126x::config(unsigned char) [clone .part.0]+0x48>
}
    1e74:	b008      	add	sp, #32
    1e76:	bd70      	pop	{r4, r5, r6, pc}
  data[0] = RADIOLIB_SX126X_CAD_ON_8_SYMB;
    1e78:	2203      	movs	r2, #3
  data[4] = 0x00;
    1e7a:	f8ad 0014 	strh.w	r0, [sp, #20]
  data[6] = 0x00;
    1e7e:	f88d 0016 	strb.w	r0, [sp, #22]
  state = this->mod->SPIwriteStream(RADIOLIB_SX126X_CMD_SET_CAD_PARAMS, data, 7);
    1e82:	2307      	movs	r3, #7
  data[0] = RADIOLIB_SX126X_CAD_ON_8_SYMB;
    1e84:	f88d 2010 	strb.w	r2, [sp, #16]
  state = this->mod->SPIwriteStream(RADIOLIB_SX126X_CMD_SET_CAD_PARAMS, data, 7);
    1e88:	2188      	movs	r1, #136	; 0x88
    1e8a:	e9cd 4400 	strd	r4, r4, [sp]
  data[1] = this->spreadingFactor + 13;
    1e8e:	f895 2160 	ldrb.w	r2, [r5, #352]	; 0x160
  state = this->mod->SPIwriteStream(RADIOLIB_SX126X_CMD_SET_CAD_PARAMS, data, 7);
    1e92:	f8d5 015c 	ldr.w	r0, [r5, #348]	; 0x15c
  data[1] = this->spreadingFactor + 13;
    1e96:	320d      	adds	r2, #13
    1e98:	f88d 2011 	strb.w	r2, [sp, #17]
  data[2] = RADIOLIB_SX126X_CAD_PARAM_DET_MIN;
    1e9c:	220a      	movs	r2, #10
    1e9e:	f8ad 2012 	strh.w	r2, [sp, #18]
  state = this->mod->SPIwriteStream(RADIOLIB_SX126X_CMD_SET_CAD_PARAMS, data, 7);
    1ea2:	aa04      	add	r2, sp, #16
    1ea4:	f7fe fec4 	bl	c30 <Module::SPIwriteStream(unsigned short, unsigned char*, unsigned int, bool, bool)>
  RADIOLIB_ASSERT(state);
    1ea8:	2800      	cmp	r0, #0
    1eaa:	d1e3      	bne.n	1e74 <SX126x::config(unsigned char) [clone .part.0]+0x44>
  state = clearIrqStatus();
    1eac:	682b      	ldr	r3, [r5, #0]
    1eae:	4a2b      	ldr	r2, [pc, #172]	; (1f5c <SX126x::config(unsigned char) [clone .part.0]+0x12c>)
    1eb0:	f8d3 30c8 	ldr.w	r3, [r3, #200]	; 0xc8
    1eb4:	4293      	cmp	r3, r2
    1eb6:	d149      	bne.n	1f4c <SX126x::config(unsigned char) [clone .part.0]+0x11c>
  return(this->mod->SPIwriteStream(RADIOLIB_SX126X_CMD_CLEAR_IRQ_STATUS, data, 2));
    1eb8:	2302      	movs	r3, #2
  uint8_t data[] = { (uint8_t)((clearIrqParams >> 8) & 0xFF), (uint8_t)(clearIrqParams & 0xFF) };
    1eba:	f64f 7143 	movw	r1, #65347	; 0xff43
  return(this->mod->SPIwriteStream(RADIOLIB_SX126X_CMD_CLEAR_IRQ_STATUS, data, 2));
    1ebe:	aa06      	add	r2, sp, #24
  uint8_t data[] = { (uint8_t)((clearIrqParams >> 8) & 0xFF), (uint8_t)(clearIrqParams & 0xFF) };
    1ec0:	f8ad 1018 	strh.w	r1, [sp, #24]
  return(this->mod->SPIwriteStream(RADIOLIB_SX126X_CMD_CLEAR_IRQ_STATUS, data, 2));
    1ec4:	4619      	mov	r1, r3
    1ec6:	9203      	str	r2, [sp, #12]
    1ec8:	e9cd 4400 	strd	r4, r4, [sp]
    1ecc:	f8d5 015c 	ldr.w	r0, [r5, #348]	; 0x15c
    1ed0:	f7fe feae 	bl	c30 <Module::SPIwriteStream(unsigned short, unsigned char*, unsigned int, bool, bool)>
    1ed4:	9a03      	ldr	r2, [sp, #12]
    1ed6:	4604      	mov	r4, r0
                     (uint8_t)((dio3Mask >> 8) & 0xFF), (uint8_t)(dio3Mask & 0xFF)};
    1ed8:	2300      	movs	r3, #0
  return(this->mod->SPIwriteStream(RADIOLIB_SX126X_CMD_SET_DIO_IRQ_PARAMS, data, 8));
    1eda:	2601      	movs	r6, #1
                     (uint8_t)((dio3Mask >> 8) & 0xFF), (uint8_t)(dio3Mask & 0xFF)};
    1edc:	e9cd 3306 	strd	r3, r3, [sp, #24]
  return(this->mod->SPIwriteStream(RADIOLIB_SX126X_CMD_SET_DIO_IRQ_PARAMS, data, 8));
    1ee0:	2308      	movs	r3, #8
    1ee2:	e9cd 6600 	strd	r6, r6, [sp]
    1ee6:	4619      	mov	r1, r3
    1ee8:	f8d5 015c 	ldr.w	r0, [r5, #348]	; 0x15c
    1eec:	f7fe fea0 	bl	c30 <Module::SPIwriteStream(unsigned short, unsigned char*, unsigned int, bool, bool)>
  state |= setDioIrqParams(RADIOLIB_SX126X_IRQ_NONE, RADIOLIB_SX126X_IRQ_NONE);
    1ef0:	4304      	orrs	r4, r0
    1ef2:	b220      	sxth	r0, r4
  RADIOLIB_ASSERT(state);
    1ef4:	2800      	cmp	r0, #0
    1ef6:	d1bd      	bne.n	1e74 <SX126x::config(unsigned char) [clone .part.0]+0x44>
  data[0] = RADIOLIB_SX126X_CALIBRATE_ALL;
    1ef8:	217f      	movs	r1, #127	; 0x7f
  state = this->mod->SPIwriteStream(RADIOLIB_SX126X_CMD_CALIBRATE, data, 1, true, false);
    1efa:	9001      	str	r0, [sp, #4]
    1efc:	9600      	str	r6, [sp, #0]
    1efe:	4633      	mov	r3, r6
  data[0] = RADIOLIB_SX126X_CALIBRATE_ALL;
    1f00:	f88d 1010 	strb.w	r1, [sp, #16]
  state = this->mod->SPIwriteStream(RADIOLIB_SX126X_CMD_CALIBRATE, data, 1, true, false);
    1f04:	aa04      	add	r2, sp, #16
    1f06:	2189      	movs	r1, #137	; 0x89
    1f08:	f8d5 015c 	ldr.w	r0, [r5, #348]	; 0x15c
    1f0c:	f7fe fe90 	bl	c30 <Module::SPIwriteStream(unsigned short, unsigned char*, unsigned int, bool, bool)>
  RADIOLIB_ASSERT(state);
    1f10:	2800      	cmp	r0, #0
    1f12:	d1af      	bne.n	1e74 <SX126x::config(unsigned char) [clone .part.0]+0x44>
  this->mod->hal->delay(5);
    1f14:	f8d5 315c 	ldr.w	r3, [r5, #348]	; 0x15c
    1f18:	2105      	movs	r1, #5
    1f1a:	6818      	ldr	r0, [r3, #0]
    1f1c:	6803      	ldr	r3, [r0, #0]
    1f1e:	695b      	ldr	r3, [r3, #20]
    1f20:	4798      	blx	r3
  while(this->mod->hal->digitalRead(this->mod->getGpio())) {
    1f22:	e005      	b.n	1f30 <SX126x::config(unsigned char) [clone .part.0]+0x100>
    this->mod->hal->yield();
    1f24:	f8d5 315c 	ldr.w	r3, [r5, #348]	; 0x15c
    1f28:	6818      	ldr	r0, [r3, #0]
    1f2a:	6803      	ldr	r3, [r0, #0]
    1f2c:	6cdb      	ldr	r3, [r3, #76]	; 0x4c
    1f2e:	4798      	blx	r3
  while(this->mod->hal->digitalRead(this->mod->getGpio())) {
    1f30:	f8d5 315c 	ldr.w	r3, [r5, #348]	; 0x15c
    1f34:	6818      	ldr	r0, [r3, #0]
    1f36:	6ad9      	ldr	r1, [r3, #44]	; 0x2c
    1f38:	6803      	ldr	r3, [r0, #0]
    1f3a:	689b      	ldr	r3, [r3, #8]
    1f3c:	4798      	blx	r3
    1f3e:	2800      	cmp	r0, #0
    1f40:	d1f0      	bne.n	1f24 <SX126x::config(unsigned char) [clone .part.0]+0xf4>
  state = this->mod->SPIcheckStream();
    1f42:	f8d5 015c 	ldr.w	r0, [r5, #348]	; 0x15c
    1f46:	f7fe fdf1 	bl	b2c <Module::SPIcheckStream()>
  return(state);
    1f4a:	e793      	b.n	1e74 <SX126x::config(unsigned char) [clone .part.0]+0x44>
  state = clearIrqStatus();
    1f4c:	f244 31ff 	movw	r1, #17407	; 0x43ff
    1f50:	4628      	mov	r0, r5
    1f52:	4798      	blx	r3
    1f54:	aa06      	add	r2, sp, #24
    1f56:	4604      	mov	r4, r0
    1f58:	e7be      	b.n	1ed8 <SX126x::config(unsigned char) [clone .part.0]+0xa8>
    1f5a:	bf00      	nop
    1f5c:	000015ad 	.word	0x000015ad

00001f60 <SX126x::getTimeOnAir(unsigned int)>:
RadioLibTime_t SX126x::getTimeOnAir(size_t len) {
    1f60:	b530      	push	{r4, r5, lr}
  this->mod->SPIreadStream(RADIOLIB_SX126X_CMD_GET_PACKET_TYPE, &data, 1);
    1f62:	2301      	movs	r3, #1
RadioLibTime_t SX126x::getTimeOnAir(size_t len) {
    1f64:	b085      	sub	sp, #20
  uint8_t data = 0xFF;
    1f66:	22ff      	movs	r2, #255	; 0xff
RadioLibTime_t SX126x::getTimeOnAir(size_t len) {
    1f68:	4604      	mov	r4, r0
    1f6a:	460d      	mov	r5, r1
  this->mod->SPIreadStream(RADIOLIB_SX126X_CMD_GET_PACKET_TYPE, &data, 1);
    1f6c:	2111      	movs	r1, #17
  uint8_t data = 0xFF;
    1f6e:	f88d 200f 	strb.w	r2, [sp, #15]
  this->mod->SPIreadStream(RADIOLIB_SX126X_CMD_GET_PACKET_TYPE, &data, 1);
    1f72:	f10d 020f 	add.w	r2, sp, #15
    1f76:	e9cd 3300 	strd	r3, r3, [sp]
    1f7a:	f8d0 015c 	ldr.w	r0, [r0, #348]	; 0x15c
    1f7e:	f7fe fe15 	bl	bac <Module::SPIreadStream(unsigned short, unsigned char*, unsigned int, bool, bool)>
  return(data);
    1f82:	f89d 300f 	ldrb.w	r3, [sp, #15]
  if(modem == RADIOLIB_SX126X_PACKET_TYPE_LORA) {
    1f86:	2b01      	cmp	r3, #1
    1f88:	d01e      	beq.n	1fc8 <SX126x::getTimeOnAir(unsigned int)+0x68>
  } else if(modem == RADIOLIB_SX126X_PACKET_TYPE_GFSK) {
    1f8a:	b173      	cbz	r3, 1faa <SX126x::getTimeOnAir(unsigned int)+0x4a>
  } else if(modem == RADIOLIB_SX126X_PACKET_TYPE_LR_FHSS) {
    1f8c:	2b03      	cmp	r3, #3
    1f8e:	d003      	beq.n	1f98 <SX126x::getTimeOnAir(unsigned int)+0x38>
  return(RADIOLIB_ERR_UNKNOWN);
    1f90:	f04f 30ff 	mov.w	r0, #4294967295
}
    1f94:	b005      	add	sp, #20
    1f96:	bd30      	pop	{r4, r5, pc}
    switch(this->lrFhssCr) {
    1f98:	f894 3199 	ldrb.w	r3, [r4, #409]	; 0x199
    1f9c:	2b03      	cmp	r3, #3
    1f9e:	f200 80a8 	bhi.w	20f2 <SX126x::getTimeOnAir(unsigned int)+0x192>
    1fa2:	e8df f003 	tbb	[pc, r3]
    1fa6:	979c      	.short	0x979c
    1fa8:	6494      	.short	0x6494
    return(((uint32_t)len * 8 * this->bitRate) / (RADIOLIB_SX126X_CRYSTAL_FREQ * 32));
    1faa:	f8d4 1170 	ldr.w	r1, [r4, #368]	; 0x170
    1fae:	fb05 f101 	mul.w	r1, r5, r1
    1fb2:	00c9      	lsls	r1, r1, #3
    1fb4:	ee07 1a10 	vmov	s14, r1
    1fb8:	eebb 7bcb 	vcvt.f64.u32	d7, d7, #10
    1fbc:	eefc 7bc7 	vcvt.u32.f64	s15, d7
    1fc0:	ee17 0a90 	vmov	r0, s15
}
    1fc4:	b005      	add	sp, #20
    1fc6:	bd30      	pop	{r4, r5, pc}
    uint32_t symbolLength_us = ((uint32_t)(1000 * 10) << this->spreadingFactor) / (this->bandwidthKhz * 10) ;
    1fc8:	f894 3160 	ldrb.w	r3, [r4, #352]	; 0x160
    1fcc:	f242 7210 	movw	r2, #10000	; 0x2710
    1fd0:	eef2 7a04 	vmov.f32	s15, #36	; 0x41200000  10.0
    1fd4:	edd4 6a5a 	vldr	s13, [r4, #360]	; 0x168
    1fd8:	409a      	lsls	r2, r3
    1fda:	ee66 6aa7 	vmul.f32	s13, s13, s15
    1fde:	ee07 2a90 	vmov	s15, r2
    if(this->spreadingFactor == 5 || this->spreadingFactor == 6) {
    1fe2:	1f5a      	subs	r2, r3, #5
    uint32_t symbolLength_us = ((uint32_t)(1000 * 10) << this->spreadingFactor) / (this->bandwidthKhz * 10) ;
    1fe4:	eef8 7a67 	vcvt.f32.u32	s15, s15
    if(this->spreadingFactor == 5 || this->spreadingFactor == 6) {
    1fe8:	b2d2      	uxtb	r2, r2
    uint32_t symbolLength_us = ((uint32_t)(1000 * 10) << this->spreadingFactor) / (this->bandwidthKhz * 10) ;
    1fea:	ee87 7aa6 	vdiv.f32	s14, s15, s13
    if(this->spreadingFactor == 5 || this->spreadingFactor == 6) {
    1fee:	2a01      	cmp	r2, #1
    1ff0:	bf8b      	itete	hi
    1ff2:	2011      	movhi	r0, #17
    1ff4:	2019      	movls	r0, #25
    1ff6:	2208      	movhi	r2, #8
    1ff8:	2200      	movls	r2, #0
    uint32_t symbolLength_us = ((uint32_t)(1000 * 10) << this->spreadingFactor) / (this->bandwidthKhz * 10) ;
    1ffa:	eefc 7ac7 	vcvt.u32.f32	s15, s14
    1ffe:	ee17 ea90 	vmov	lr, s15
    if(symbolLength_us >= 16000) {
    2002:	f5be 5f7a 	cmp.w	lr, #16000	; 0x3e80
    2006:	d22b      	bcs.n	2060 <SX126x::getTimeOnAir(unsigned int)+0x100>
    uint8_t sfDivisor = 4*this->spreadingFactor;
    2008:	ea4f 0c83 	mov.w	ip, r3, lsl #2
    200c:	fa5f fc8c 	uxtb.w	ip, ip
    int16_t bitCount = (int16_t) 8 * len + this->crcTypeLoRa * bitsPerCrc - 4 * this->spreadingFactor  + sfCoeff2 + N_symbol_header;
    2010:	f894 1163 	ldrb.w	r1, [r4, #355]	; 0x163
    2014:	eb05 0141 	add.w	r1, r5, r1, lsl #1
    2018:	ebc3 0341 	rsb	r3, r3, r1, lsl #1
    uint32_t nSymbol_x4 = (this->preambleLengthLoRa + 8) * 4 + sfCoeff1_x4 + nPreCodedSymbols * (this->codingRate + 4) * 4;
    201c:	f894 1161 	ldrb.w	r1, [r4, #353]	; 0x161
    int16_t bitCount = (int16_t) 8 * len + this->crcTypeLoRa * bitsPerCrc - 4 * this->spreadingFactor  + sfCoeff2 + N_symbol_header;
    2020:	eb02 0583 	add.w	r5, r2, r3, lsl #2
    const int8_t N_symbol_header = this->headerType == RADIOLIB_SX126X_LORA_HEADER_EXPLICIT ? 20 : 0;
    2024:	f894 3164 	ldrb.w	r3, [r4, #356]	; 0x164
    uint32_t nSymbol_x4 = (this->preambleLengthLoRa + 8) * 4 + sfCoeff1_x4 + nPreCodedSymbols * (this->codingRate + 4) * 4;
    2028:	f8b4 2166 	ldrh.w	r2, [r4, #358]	; 0x166
    202c:	1d0c      	adds	r4, r1, #4
    const int8_t N_symbol_header = this->headerType == RADIOLIB_SX126X_LORA_HEADER_EXPLICIT ? 20 : 0;
    202e:	2b00      	cmp	r3, #0
    uint16_t nPreCodedSymbols = (bitCount + (sfDivisor - 1)) / (sfDivisor);
    2030:	f10c 33ff 	add.w	r3, ip, #4294967295
    uint32_t nSymbol_x4 = (this->preambleLengthLoRa + 8) * 4 + sfCoeff1_x4 + nPreCodedSymbols * (this->codingRate + 4) * 4;
    2034:	f102 0208 	add.w	r2, r2, #8
    const int8_t N_symbol_header = this->headerType == RADIOLIB_SX126X_LORA_HEADER_EXPLICIT ? 20 : 0;
    2038:	bf0c      	ite	eq
    203a:	2114      	moveq	r1, #20
    203c:	2100      	movne	r1, #0
    int16_t bitCount = (int16_t) 8 * len + this->crcTypeLoRa * bitsPerCrc - 4 * this->spreadingFactor  + sfCoeff2 + N_symbol_header;
    203e:	4429      	add	r1, r5
    uint16_t nPreCodedSymbols = (bitCount + (sfDivisor - 1)) / (sfDivisor);
    2040:	b209      	sxth	r1, r1
    2042:	2900      	cmp	r1, #0
    2044:	bfa8      	it	ge
    2046:	185b      	addge	r3, r3, r1
    2048:	fb93 f3fc 	sdiv	r3, r3, ip
    uint32_t nSymbol_x4 = (this->preambleLengthLoRa + 8) * 4 + sfCoeff1_x4 + nPreCodedSymbols * (this->codingRate + 4) * 4;
    204c:	b29b      	uxth	r3, r3
    204e:	fb04 2303 	mla	r3, r4, r3, r2
    2052:	eb00 0083 	add.w	r0, r0, r3, lsl #2
    return((symbolLength_us * nSymbol_x4) / 4);
    2056:	fb0e f000 	mul.w	r0, lr, r0
    205a:	0880      	lsrs	r0, r0, #2
}
    205c:	b005      	add	sp, #20
    205e:	bd30      	pop	{r4, r5, pc}
      sfDivisor = 4*(this->spreadingFactor - 2);
    2060:	f1a3 0c02 	sub.w	ip, r3, #2
    2064:	ea4f 0c8c 	mov.w	ip, ip, lsl #2
    2068:	fa5f fc8c 	uxtb.w	ip, ip
    206c:	e7d0      	b.n	2010 <SX126x::getTimeOnAir(unsigned int)+0xb0>
        N_bits = len * 3;
    206e:	eb05 0145 	add.w	r1, r5, r5, lsl #1
    2072:	b289      	uxth	r1, r1
    uint16_t N_payBits = (N_bits / RADIOLIB_SX126X_LR_FHSS_FRAG_BITS) * RADIOLIB_SX126X_LR_FHSS_BLOCK_BITS;
    2074:	4a20      	ldr	r2, [pc, #128]	; (20f8 <SX126x::getTimeOnAir(unsigned int)+0x198>)
    2076:	fba2 3201 	umull	r3, r2, r2, r1
    207a:	0952      	lsrs	r2, r2, #5
    207c:	eb02 0382 	add.w	r3, r2, r2, lsl #2
    uint16_t N_lastBlockBits = N_bits % RADIOLIB_SX126X_LR_FHSS_FRAG_BITS;
    2080:	eb02 0242 	add.w	r2, r2, r2, lsl #1
    uint16_t N_payBits = (N_bits / RADIOLIB_SX126X_LR_FHSS_FRAG_BITS) * RADIOLIB_SX126X_LR_FHSS_BLOCK_BITS;
    2084:	eb03 0383 	add.w	r3, r3, r3, lsl #2
    uint16_t N_lastBlockBits = N_bits % RADIOLIB_SX126X_LR_FHSS_FRAG_BITS;
    2088:	eba1 1102 	sub.w	r1, r1, r2, lsl #4
    uint16_t N_payBits = (N_bits / RADIOLIB_SX126X_LR_FHSS_FRAG_BITS) * RADIOLIB_SX126X_LR_FHSS_BLOCK_BITS;
    208c:	005b      	lsls	r3, r3, #1
    uint16_t N_lastBlockBits = N_bits % RADIOLIB_SX126X_LR_FHSS_FRAG_BITS;
    208e:	b289      	uxth	r1, r1
    uint16_t N_payBits = (N_bits / RADIOLIB_SX126X_LR_FHSS_FRAG_BITS) * RADIOLIB_SX126X_LR_FHSS_BLOCK_BITS;
    2090:	b29b      	uxth	r3, r3
    if(N_lastBlockBits) {
    2092:	b111      	cbz	r1, 209a <SX126x::getTimeOnAir(unsigned int)+0x13a>
      N_payBits += N_lastBlockBits + 2;
    2094:	3102      	adds	r1, #2
    2096:	440b      	add	r3, r1
    2098:	b29b      	uxth	r3, r3
    uint16_t N_totalBits = (RADIOLIB_SX126X_LR_FHSS_HEADER_BITS * this->lrFhssHdrCount) + N_payBits;
    209a:	f894 219b 	ldrb.w	r2, [r4, #411]	; 0x19b
    return(((uint32_t)N_totalBits * 8 * 1000000UL) / 488.28215f);
    209e:	4917      	ldr	r1, [pc, #92]	; (20fc <SX126x::getTimeOnAir(unsigned int)+0x19c>)
    uint16_t N_totalBits = (RADIOLIB_SX126X_LR_FHSS_HEADER_BITS * this->lrFhssHdrCount) + N_payBits;
    20a0:	ebc2 00c2 	rsb	r0, r2, r2, lsl #3
    return(((uint32_t)N_totalBits * 8 * 1000000UL) / 488.28215f);
    20a4:	eddf 6a16 	vldr	s13, [pc, #88]	; 2100 <SX126x::getTimeOnAir(unsigned int)+0x1a0>
    uint16_t N_totalBits = (RADIOLIB_SX126X_LR_FHSS_HEADER_BITS * this->lrFhssHdrCount) + N_payBits;
    20a8:	eb02 02c0 	add.w	r2, r2, r0, lsl #3
    20ac:	eb03 0342 	add.w	r3, r3, r2, lsl #1
    return(((uint32_t)N_totalBits * 8 * 1000000UL) / 488.28215f);
    20b0:	b29b      	uxth	r3, r3
    20b2:	fb01 f303 	mul.w	r3, r1, r3
    20b6:	ee07 3a90 	vmov	s15, r3
    20ba:	eef8 7a67 	vcvt.f32.u32	s15, s15
    20be:	ee87 7aa6 	vdiv.f32	s14, s15, s13
    20c2:	eefc 7ac7 	vcvt.u32.f32	s15, s14
    20c6:	ee17 0a90 	vmov	r0, s15
}
    20ca:	b005      	add	sp, #20
    20cc:	bd30      	pop	{r4, r5, pc}
        N_bits = len * 2;
    20ce:	0069      	lsls	r1, r5, #1
    20d0:	b289      	uxth	r1, r1
        break;
    20d2:	e7cf      	b.n	2074 <SX126x::getTimeOnAir(unsigned int)+0x114>
        N_bits = (len * 3) / 2;
    20d4:	eb05 0145 	add.w	r1, r5, r5, lsl #1
    20d8:	f3c1 014f 	ubfx	r1, r1, #1, #16
        break;
    20dc:	e7ca      	b.n	2074 <SX126x::getTimeOnAir(unsigned int)+0x114>
        N_bits = ((len * 6) + 4) / 5; // this is from the official LR11xx driver, but why the extra +4?
    20de:	eb05 0145 	add.w	r1, r5, r5, lsl #1
    20e2:	4b08      	ldr	r3, [pc, #32]	; (2104 <SX126x::getTimeOnAir(unsigned int)+0x1a4>)
    20e4:	0049      	lsls	r1, r1, #1
    20e6:	3104      	adds	r1, #4
    20e8:	fba3 3101 	umull	r3, r1, r3, r1
    20ec:	f3c1 018f 	ubfx	r1, r1, #2, #16
        break;
    20f0:	e7c0      	b.n	2074 <SX126x::getTimeOnAir(unsigned int)+0x114>
    switch(this->lrFhssCr) {
    20f2:	f06f 0009 	mvn.w	r0, #9
    20f6:	e74d      	b.n	1f94 <SX126x::getTimeOnAir(unsigned int)+0x34>
    20f8:	aaaaaaab 	.word	0xaaaaaaab
    20fc:	007a1200 	.word	0x007a1200
    2100:	43f4241d 	.word	0x43f4241d
    2104:	cccccccd 	.word	0xcccccccd

00002108 <SX126x::readData(unsigned char*, unsigned int)>:
int16_t SX126x::readData(uint8_t* data, size_t len) {
    2108:	e92d 41f0 	stmdb	sp!, {r4, r5, r6, r7, r8, lr}
    210c:	4605      	mov	r5, r0
    210e:	b086      	sub	sp, #24
  int16_t state = this->mod->SPIcheckStream();
    2110:	f8d0 015c 	ldr.w	r0, [r0, #348]	; 0x15c
int16_t SX126x::readData(uint8_t* data, size_t len) {
    2114:	4616      	mov	r6, r2
    2116:	460f      	mov	r7, r1
  int16_t state = this->mod->SPIcheckStream();
    2118:	f7fe fd08 	bl	b2c <Module::SPIcheckStream()>
  uint16_t irq = getIrqFlags();
    211c:	682b      	ldr	r3, [r5, #0]
  int16_t state = this->mod->SPIcheckStream();
    211e:	4604      	mov	r4, r0
  uint16_t irq = getIrqFlags();
    2120:	4a4c      	ldr	r2, [pc, #304]	; (2254 <SX126x::readData(unsigned char*, unsigned int)+0x14c>)
    2122:	6f5b      	ldr	r3, [r3, #116]	; 0x74
    2124:	4293      	cmp	r3, r2
    2126:	f040 8088 	bne.w	223a <SX126x::readData(unsigned char*, unsigned int)+0x132>
  uint8_t data[] = { 0x00, 0x00 };
    212a:	2300      	movs	r3, #0
  this->mod->SPIreadStream(RADIOLIB_SX126X_CMD_GET_IRQ_STATUS, data, 2);
    212c:	aa05      	add	r2, sp, #20
    212e:	2112      	movs	r1, #18
  uint8_t data[] = { 0x00, 0x00 };
    2130:	f8ad 3014 	strh.w	r3, [sp, #20]
  this->mod->SPIreadStream(RADIOLIB_SX126X_CMD_GET_IRQ_STATUS, data, 2);
    2134:	2301      	movs	r3, #1
    2136:	e9cd 3300 	strd	r3, r3, [sp]
    213a:	2302      	movs	r3, #2
    213c:	f8d5 015c 	ldr.w	r0, [r5, #348]	; 0x15c
    2140:	f7fe fd34 	bl	bac <Module::SPIreadStream(unsigned short, unsigned char*, unsigned int, bool, bool)>
  return(((uint32_t)(data[0]) << 8) | data[1]);
    2144:	f8bd 0014 	ldrh.w	r0, [sp, #20]
    2148:	ba40      	rev16	r0, r0
    214a:	b280      	uxth	r0, r0
  if((state == RADIOLIB_ERR_SPI_CMD_TIMEOUT) && (irq & RADIOLIB_SX126X_IRQ_TIMEOUT)) {
    214c:	f46f 7330 	mvn.w	r3, #704	; 0x2c0
    2150:	429c      	cmp	r4, r3
    2152:	d067      	beq.n	2224 <SX126x::readData(unsigned char*, unsigned int)+0x11c>
  RADIOLIB_ASSERT(state);
    2154:	2c00      	cmp	r4, #0
    2156:	d15e      	bne.n	2216 <SX126x::readData(unsigned char*, unsigned int)+0x10e>
  if((irq & RADIOLIB_SX126X_IRQ_CRC_ERR) || ((irq & RADIOLIB_SX126X_IRQ_HEADER_ERR) && !(irq & RADIOLIB_SX126X_IRQ_HEADER_VALID))) {
    2158:	0643      	lsls	r3, r0, #25
    215a:	d460      	bmi.n	221e <SX126x::readData(unsigned char*, unsigned int)+0x116>
    215c:	f000 0030 	and.w	r0, r0, #48	; 0x30
  int16_t crcState = RADIOLIB_ERR_NONE;
    2160:	2820      	cmp	r0, #32
    2162:	bf0c      	ite	eq
    2164:	f06f 0806 	mvneq.w	r8, #6
    2168:	f04f 0800 	movne.w	r8, #0
  uint8_t data = 0xFF;
    216c:	23ff      	movs	r3, #255	; 0xff
  this->mod->SPIreadStream(RADIOLIB_SX126X_CMD_GET_PACKET_TYPE, &data, 1);
    216e:	aa05      	add	r2, sp, #20
    2170:	2111      	movs	r1, #17
  uint8_t data = 0xFF;
    2172:	f88d 3014 	strb.w	r3, [sp, #20]
  this->mod->SPIreadStream(RADIOLIB_SX126X_CMD_GET_PACKET_TYPE, &data, 1);
    2176:	2301      	movs	r3, #1
    2178:	e9cd 3300 	strd	r3, r3, [sp]
    217c:	f8d5 015c 	ldr.w	r0, [r5, #348]	; 0x15c
    2180:	f7fe fd14 	bl	bac <Module::SPIreadStream(unsigned short, unsigned char*, unsigned int, bool, bool)>
  return(data);
    2184:	f89d 3014 	ldrb.w	r3, [sp, #20]
  if((getPacketType() == RADIOLIB_SX126X_PACKET_TYPE_LORA) && (this->headerType == RADIOLIB_SX126X_LORA_HEADER_IMPLICIT)) {
    2188:	2b01      	cmp	r3, #1
    218a:	d103      	bne.n	2194 <SX126x::readData(unsigned char*, unsigned int)+0x8c>
    218c:	f895 3164 	ldrb.w	r3, [r5, #356]	; 0x164
    2190:	2b01      	cmp	r3, #1
    2192:	d05b      	beq.n	224c <SX126x::readData(unsigned char*, unsigned int)+0x144>
  this->mod->SPIreadStream(RADIOLIB_SX126X_CMD_GET_RX_BUFFER_STATUS, rxBufStatus, 2);
    2194:	2301      	movs	r3, #1
    2196:	aa05      	add	r2, sp, #20
    2198:	2113      	movs	r1, #19
    219a:	e9cd 3300 	strd	r3, r3, [sp]
  uint8_t rxBufStatus[2] = {0, 0};
    219e:	2300      	movs	r3, #0
  this->mod->SPIreadStream(RADIOLIB_SX126X_CMD_GET_RX_BUFFER_STATUS, rxBufStatus, 2);
    21a0:	f8d5 015c 	ldr.w	r0, [r5, #348]	; 0x15c
  uint8_t rxBufStatus[2] = {0, 0};
    21a4:	f8ad 3014 	strh.w	r3, [sp, #20]
  this->mod->SPIreadStream(RADIOLIB_SX126X_CMD_GET_RX_BUFFER_STATUS, rxBufStatus, 2);
    21a8:	2302      	movs	r3, #2
    21aa:	f7fe fcff 	bl	bac <Module::SPIreadStream(unsigned short, unsigned char*, unsigned int, bool, bool)>
  if(offset) { *offset = rxBufStatus[1]; }
    21ae:	f89d 2015 	ldrb.w	r2, [sp, #21]
  return((size_t)rxBufStatus[0]);
    21b2:	f89d 3014 	ldrb.w	r3, [sp, #20]
  if((len != 0) && (len < length)) {
    21b6:	2e00      	cmp	r6, #0
    21b8:	d03d      	beq.n	2236 <SX126x::readData(unsigned char*, unsigned int)+0x12e>
    21ba:	429e      	cmp	r6, r3
    21bc:	d23b      	bcs.n	2236 <SX126x::readData(unsigned char*, unsigned int)+0x12e>
  return(this->mod->SPIreadStream(cmd, 2, data, numBytes));
    21be:	b2f6      	uxtb	r6, r6
  uint8_t cmd[] = { RADIOLIB_SX126X_CMD_READ_BUFFER, offset };
    21c0:	211e      	movs	r1, #30
    21c2:	f88d 2015 	strb.w	r2, [sp, #21]
  return(this->mod->SPIreadStream(cmd, 2, data, numBytes));
    21c6:	463b      	mov	r3, r7
    21c8:	9600      	str	r6, [sp, #0]
    21ca:	2601      	movs	r6, #1
  uint8_t cmd[] = { RADIOLIB_SX126X_CMD_READ_BUFFER, offset };
    21cc:	f88d 1014 	strb.w	r1, [sp, #20]
  return(this->mod->SPIreadStream(cmd, 2, data, numBytes));
    21d0:	2202      	movs	r2, #2
    21d2:	a905      	add	r1, sp, #20
    21d4:	e9cd 6601 	strd	r6, r6, [sp, #4]
    21d8:	f8d5 015c 	ldr.w	r0, [r5, #348]	; 0x15c
    21dc:	f7fe fc70 	bl	ac0 <Module::SPIreadStream(unsigned char*, unsigned char, unsigned char*, unsigned int, bool, bool)>
  RADIOLIB_ASSERT(state);
    21e0:	4604      	mov	r4, r0
    21e2:	b9c0      	cbnz	r0, 2216 <SX126x::readData(unsigned char*, unsigned int)+0x10e>
  state = clearIrqStatus();
    21e4:	682b      	ldr	r3, [r5, #0]
    21e6:	4a1c      	ldr	r2, [pc, #112]	; (2258 <SX126x::readData(unsigned char*, unsigned int)+0x150>)
    21e8:	f8d3 30c8 	ldr.w	r3, [r3, #200]	; 0xc8
    21ec:	4293      	cmp	r3, r2
    21ee:	d127      	bne.n	2240 <SX126x::readData(unsigned char*, unsigned int)+0x138>
  uint8_t data[] = { (uint8_t)((clearIrqParams >> 8) & 0xFF), (uint8_t)(clearIrqParams & 0xFF) };
    21f0:	f64f 7143 	movw	r1, #65347	; 0xff43
  return(this->mod->SPIwriteStream(RADIOLIB_SX126X_CMD_CLEAR_IRQ_STATUS, data, 2));
    21f4:	2302      	movs	r3, #2
    21f6:	f8d5 015c 	ldr.w	r0, [r5, #348]	; 0x15c
    21fa:	aa05      	add	r2, sp, #20
  uint8_t data[] = { (uint8_t)((clearIrqParams >> 8) & 0xFF), (uint8_t)(clearIrqParams & 0xFF) };
    21fc:	f8ad 1014 	strh.w	r1, [sp, #20]
  return(this->mod->SPIwriteStream(RADIOLIB_SX126X_CMD_CLEAR_IRQ_STATUS, data, 2));
    2200:	4619      	mov	r1, r3
    2202:	e9cd 6600 	strd	r6, r6, [sp]
    2206:	f7fe fd13 	bl	c30 <Module::SPIwriteStream(unsigned short, unsigned char*, unsigned int, bool, bool)>
    220a:	4604      	mov	r4, r0
  RADIOLIB_ASSERT(crcState);
    220c:	f1b8 0f00 	cmp.w	r8, #0
    2210:	bf18      	it	ne
    2212:	f06f 0406 	mvnne.w	r4, #6
}
    2216:	4620      	mov	r0, r4
    2218:	b006      	add	sp, #24
    221a:	e8bd 81f0 	ldmia.w	sp!, {r4, r5, r6, r7, r8, pc}
    crcState = RADIOLIB_ERR_CRC_MISMATCH;
    221e:	f06f 0806 	mvn.w	r8, #6
    2222:	e7a3      	b.n	216c <SX126x::readData(unsigned char*, unsigned int)+0x64>
    return(RADIOLIB_ERR_RX_TIMEOUT);
    2224:	f410 7f00 	tst.w	r0, #512	; 0x200
    2228:	bf18      	it	ne
    222a:	f06f 0405 	mvnne.w	r4, #5
}
    222e:	4620      	mov	r0, r4
    2230:	b006      	add	sp, #24
    2232:	e8bd 81f0 	ldmia.w	sp!, {r4, r5, r6, r7, r8, pc}
  if((len != 0) && (len < length)) {
    2236:	461e      	mov	r6, r3
    2238:	e7c1      	b.n	21be <SX126x::readData(unsigned char*, unsigned int)+0xb6>
  uint16_t irq = getIrqFlags();
    223a:	4628      	mov	r0, r5
    223c:	4798      	blx	r3
    223e:	e785      	b.n	214c <SX126x::readData(unsigned char*, unsigned int)+0x44>
  state = clearIrqStatus();
    2240:	f244 31ff 	movw	r1, #17407	; 0x43ff
    2244:	4628      	mov	r0, r5
    2246:	4798      	blx	r3
    2248:	4604      	mov	r4, r0
    224a:	e7df      	b.n	220c <SX126x::readData(unsigned char*, unsigned int)+0x104>
    return(this->implicitLen);
    224c:	f8d5 3194 	ldr.w	r3, [r5, #404]	; 0x194
  uint8_t offset = 0;
    2250:	2200      	movs	r2, #0
    return(this->implicitLen);
    2252:	e7b0      	b.n	21b6 <SX126x::readData(unsigned char*, unsigned int)+0xae>
    2254:	000015d1 	.word	0x000015d1
    2258:	000015ad 	.word	0x000015ad
    225c:	00000000 	.word	0x00000000

00002260 <SX126x::transmit(unsigned char const*, unsigned int, unsigned char)>:
int16_t SX126x::transmit(const uint8_t* data, size_t len, uint8_t addr) {
    2260:	e92d 4ff0 	stmdb	sp!, {r4, r5, r6, r7, r8, r9, sl, fp, lr}
    2264:	461f      	mov	r7, r3
  int16_t state = standby();
    2266:	6803      	ldr	r3, [r0, #0]
int16_t SX126x::transmit(const uint8_t* data, size_t len, uint8_t addr) {
    2268:	b085      	sub	sp, #20
    226a:	4604      	mov	r4, r0
  int16_t state = standby();
    226c:	689b      	ldr	r3, [r3, #8]
int16_t SX126x::transmit(const uint8_t* data, size_t len, uint8_t addr) {
    226e:	460d      	mov	r5, r1
    2270:	4690      	mov	r8, r2
  int16_t state = standby();
    2272:	4798      	blx	r3
  RADIOLIB_ASSERT(state);
    2274:	4606      	mov	r6, r0
    2276:	b990      	cbnz	r0, 229e <SX126x::transmit(unsigned char const*, unsigned int, unsigned char)+0x3e>
  if(len > RADIOLIB_SX126X_MAX_PACKET_LENGTH) {
    2278:	f1b8 0fff 	cmp.w	r8, #255	; 0xff
    227c:	f200 80b7 	bhi.w	23ee <SX126x::transmit(unsigned char const*, unsigned int, unsigned char)+0x18e>
  RadioLibTime_t timeout = 5 + (getTimeOnAir(len) * 5) / 1000;
    2280:	6823      	ldr	r3, [r4, #0]
    2282:	4641      	mov	r1, r8
    2284:	4620      	mov	r0, r4
    2286:	6edb      	ldr	r3, [r3, #108]	; 0x6c
    2288:	4798      	blx	r3
  state = startTransmit(data, len, addr);
    228a:	6822      	ldr	r2, [r4, #0]
    228c:	4629      	mov	r1, r5
    228e:	463b      	mov	r3, r7
    2290:	69d6      	ldr	r6, [r2, #28]
  RadioLibTime_t timeout = 5 + (getTimeOnAir(len) * 5) / 1000;
    2292:	4605      	mov	r5, r0
  state = startTransmit(data, len, addr);
    2294:	4642      	mov	r2, r8
    2296:	4620      	mov	r0, r4
    2298:	47b0      	blx	r6
  RADIOLIB_ASSERT(state);
    229a:	4606      	mov	r6, r0
    229c:	b118      	cbz	r0, 22a6 <SX126x::transmit(unsigned char const*, unsigned int, unsigned char)+0x46>
}
    229e:	4630      	mov	r0, r6
    22a0:	b005      	add	sp, #20
    22a2:	e8bd 8ff0 	ldmia.w	sp!, {r4, r5, r6, r7, r8, r9, sl, fp, pc}
  RadioLibTime_t timeout = 5 + (getTimeOnAir(len) * 5) / 1000;
    22a6:	4b56      	ldr	r3, [pc, #344]	; (2400 <SX126x::transmit(unsigned char const*, unsigned int, unsigned char)+0x1a0>)
    22a8:	eb05 0585 	add.w	r5, r5, r5, lsl #2
  this->mod->SPIreadStream(RADIOLIB_SX126X_CMD_GET_PACKET_TYPE, &data, 1);
    22ac:	aa03      	add	r2, sp, #12
    22ae:	2111      	movs	r1, #17
  RadioLibTime_t timeout = 5 + (getTimeOnAir(len) * 5) / 1000;
    22b0:	fba3 3505 	umull	r3, r5, r3, r5
  uint8_t data = 0xFF;
    22b4:	23ff      	movs	r3, #255	; 0xff
    22b6:	f8df a14c 	ldr.w	sl, [pc, #332]	; 2404 <SX126x::transmit(unsigned char const*, unsigned int, unsigned char)+0x1a4>
    22ba:	f88d 300c 	strb.w	r3, [sp, #12]
  this->mod->SPIreadStream(RADIOLIB_SX126X_CMD_GET_PACKET_TYPE, &data, 1);
    22be:	2301      	movs	r3, #1
  RadioLibTime_t timeout = 5 + (getTimeOnAir(len) * 5) / 1000;
    22c0:	09ad      	lsrs	r5, r5, #6
    22c2:	f8df b144 	ldr.w	fp, [pc, #324]	; 2408 <SX126x::transmit(unsigned char const*, unsigned int, unsigned char)+0x1a8>
  this->mod->SPIreadStream(RADIOLIB_SX126X_CMD_GET_PACKET_TYPE, &data, 1);
    22c6:	e9cd 3300 	strd	r3, r3, [sp]
    22ca:	f8d4 015c 	ldr.w	r0, [r4, #348]	; 0x15c
  RadioLibTime_t timeout = 5 + (getTimeOnAir(len) * 5) / 1000;
    22ce:	3505      	adds	r5, #5
  this->mod->SPIreadStream(RADIOLIB_SX126X_CMD_GET_PACKET_TYPE, &data, 1);
    22d0:	f7fe fc6c 	bl	bac <Module::SPIreadStream(unsigned short, unsigned char*, unsigned int, bool, bool)>
  RadioLibTime_t start = this->mod->hal->millis();
    22d4:	f8d4 315c 	ldr.w	r3, [r4, #348]	; 0x15c
  return(data);
    22d8:	f89d 900c 	ldrb.w	r9, [sp, #12]
  RadioLibTime_t start = this->mod->hal->millis();
    22dc:	6818      	ldr	r0, [r3, #0]
    22de:	6803      	ldr	r3, [r0, #0]
    22e0:	69db      	ldr	r3, [r3, #28]
    22e2:	4798      	blx	r3
    22e4:	4607      	mov	r7, r0
    22e6:	e007      	b.n	22f8 <SX126x::transmit(unsigned char const*, unsigned int, unsigned char)+0x98>
    if(this->mod->hal->digitalRead(this->mod->getIrq())) {
    22e8:	f8d4 315c 	ldr.w	r3, [r4, #348]	; 0x15c
    22ec:	6818      	ldr	r0, [r3, #0]
    22ee:	6a59      	ldr	r1, [r3, #36]	; 0x24
    22f0:	6803      	ldr	r3, [r0, #0]
    22f2:	689b      	ldr	r3, [r3, #8]
    22f4:	4798      	blx	r3
    22f6:	b9c0      	cbnz	r0, 232a <SX126x::transmit(unsigned char const*, unsigned int, unsigned char)+0xca>
    this->mod->hal->yield();
    22f8:	f8d4 315c 	ldr.w	r3, [r4, #348]	; 0x15c
    22fc:	6818      	ldr	r0, [r3, #0]
    22fe:	6803      	ldr	r3, [r0, #0]
    2300:	6cdb      	ldr	r3, [r3, #76]	; 0x4c
    2302:	4798      	blx	r3
    if(this->mod->hal->millis() - start > timeout) {
    2304:	f8d4 315c 	ldr.w	r3, [r4, #348]	; 0x15c
    2308:	6818      	ldr	r0, [r3, #0]
    230a:	6803      	ldr	r3, [r0, #0]
    230c:	69db      	ldr	r3, [r3, #28]
    230e:	4798      	blx	r3
    2310:	1bc0      	subs	r0, r0, r7
    2312:	4285      	cmp	r5, r0
    2314:	d2e8      	bcs.n	22e8 <SX126x::transmit(unsigned char const*, unsigned int, unsigned char)+0x88>
      finishTransmit();
    2316:	6823      	ldr	r3, [r4, #0]
      return(RADIOLIB_ERR_TX_TIMEOUT);
    2318:	f06f 0604 	mvn.w	r6, #4
      finishTransmit();
    231c:	4620      	mov	r0, r4
    231e:	6a1b      	ldr	r3, [r3, #32]
    2320:	4798      	blx	r3
}
    2322:	4630      	mov	r0, r6
    2324:	b005      	add	sp, #20
    2326:	e8bd 8ff0 	ldmia.w	sp!, {r4, r5, r6, r7, r8, r9, sl, fp, pc}
      if(modem != RADIOLIB_SX126X_PACKET_TYPE_LR_FHSS) {
    232a:	f1b9 0f03 	cmp.w	r9, #3
    232e:	d138      	bne.n	23a2 <SX126x::transmit(unsigned char const*, unsigned int, unsigned char)+0x142>
      if(this->getIrqFlags() & RADIOLIB_SX126X_IRQ_TX_DONE) {
    2330:	6823      	ldr	r3, [r4, #0]
    2332:	6f5b      	ldr	r3, [r3, #116]	; 0x74
    2334:	4553      	cmp	r3, sl
    2336:	d12c      	bne.n	2392 <SX126x::transmit(unsigned char const*, unsigned int, unsigned char)+0x132>
  this->mod->SPIreadStream(RADIOLIB_SX126X_CMD_GET_IRQ_STATUS, data, 2);
    2338:	2301      	movs	r3, #1
    233a:	aa03      	add	r2, sp, #12
    233c:	2112      	movs	r1, #18
  uint8_t data[] = { 0x00, 0x00 };
    233e:	f8ad 600c 	strh.w	r6, [sp, #12]
  this->mod->SPIreadStream(RADIOLIB_SX126X_CMD_GET_IRQ_STATUS, data, 2);
    2342:	e9cd 3300 	strd	r3, r3, [sp]
    2346:	2302      	movs	r3, #2
    2348:	f8d4 015c 	ldr.w	r0, [r4, #348]	; 0x15c
    234c:	f7fe fc2e 	bl	bac <Module::SPIreadStream(unsigned short, unsigned char*, unsigned int, bool, bool)>
  return(((uint32_t)(data[0]) << 8) | data[1]);
    2350:	f8bd 000c 	ldrh.w	r0, [sp, #12]
    2354:	ba40      	rev16	r0, r0
    2356:	b280      	uxth	r0, r0
      if(this->getIrqFlags() & RADIOLIB_SX126X_IRQ_TX_DONE) {
    2358:	07c3      	lsls	r3, r0, #31
    235a:	d422      	bmi.n	23a2 <SX126x::transmit(unsigned char const*, unsigned int, unsigned char)+0x142>
        this->setLRFHSSHop(this->lrFhssHopNum % 16);
    235c:	f8d4 11b4 	ldr.w	r1, [r4, #436]	; 0x1b4
    2360:	4620      	mov	r0, r4
    2362:	f001 010f 	and.w	r1, r1, #15
    2366:	f002 fdff 	bl	4f68 <SX126x::setLRFHSSHop(unsigned char)>
        clearIrqStatus();
    236a:	6823      	ldr	r3, [r4, #0]
    236c:	f8d3 30c8 	ldr.w	r3, [r3, #200]	; 0xc8
    2370:	455b      	cmp	r3, fp
    2372:	d111      	bne.n	2398 <SX126x::transmit(unsigned char const*, unsigned int, unsigned char)+0x138>
  return(this->mod->SPIwriteStream(RADIOLIB_SX126X_CMD_CLEAR_IRQ_STATUS, data, 2));
    2374:	2301      	movs	r3, #1
  uint8_t data[] = { (uint8_t)((clearIrqParams >> 8) & 0xFF), (uint8_t)(clearIrqParams & 0xFF) };
    2376:	f64f 7243 	movw	r2, #65347	; 0xff43
  return(this->mod->SPIwriteStream(RADIOLIB_SX126X_CMD_CLEAR_IRQ_STATUS, data, 2));
    237a:	e9cd 3300 	strd	r3, r3, [sp]
    237e:	2302      	movs	r3, #2
  uint8_t data[] = { (uint8_t)((clearIrqParams >> 8) & 0xFF), (uint8_t)(clearIrqParams & 0xFF) };
    2380:	f8ad 200c 	strh.w	r2, [sp, #12]
  return(this->mod->SPIwriteStream(RADIOLIB_SX126X_CMD_CLEAR_IRQ_STATUS, data, 2));
    2384:	f8d4 015c 	ldr.w	r0, [r4, #348]	; 0x15c
    2388:	aa03      	add	r2, sp, #12
    238a:	4619      	mov	r1, r3
    238c:	f7fe fc50 	bl	c30 <Module::SPIwriteStream(unsigned short, unsigned char*, unsigned int, bool, bool)>
    2390:	e7b2      	b.n	22f8 <SX126x::transmit(unsigned char const*, unsigned int, unsigned char)+0x98>
      if(this->getIrqFlags() & RADIOLIB_SX126X_IRQ_TX_DONE) {
    2392:	4620      	mov	r0, r4
    2394:	4798      	blx	r3
    2396:	e7df      	b.n	2358 <SX126x::transmit(unsigned char const*, unsigned int, unsigned char)+0xf8>
        clearIrqStatus();
    2398:	f244 31ff 	movw	r1, #17407	; 0x43ff
    239c:	4620      	mov	r0, r4
    239e:	4798      	blx	r3
    23a0:	e7aa      	b.n	22f8 <SX126x::transmit(unsigned char const*, unsigned int, unsigned char)+0x98>
  RadioLibTime_t elapsed = this->mod->hal->millis() - start;
    23a2:	f8d4 315c 	ldr.w	r3, [r4, #348]	; 0x15c
    23a6:	6818      	ldr	r0, [r3, #0]
    23a8:	6803      	ldr	r3, [r0, #0]
    23aa:	69db      	ldr	r3, [r3, #28]
    23ac:	4798      	blx	r3
    23ae:	1bc3      	subs	r3, r0, r7
  this->dataRateMeasured = (len*8.0)/((float)elapsed/1000.0);
    23b0:	ee07 8a90 	vmov	s15, r8
    23b4:	eeb2 5b00 	vmov.f64	d5, #32	; 0x41000000  8.0
  RadioLibTime_t elapsed = this->mod->hal->millis() - start;
    23b8:	ee06 3a10 	vmov	s12, r3
  return(finishTransmit());
    23bc:	6823      	ldr	r3, [r4, #0]
  this->dataRateMeasured = (len*8.0)/((float)elapsed/1000.0);
    23be:	eeb8 7be7 	vcvt.f64.s32	d7, s15
  return(finishTransmit());
    23c2:	4620      	mov	r0, r4
  this->dataRateMeasured = (len*8.0)/((float)elapsed/1000.0);
    23c4:	eeb8 6a46 	vcvt.f32.u32	s12, s12
  return(finishTransmit());
    23c8:	6a1b      	ldr	r3, [r3, #32]
  this->dataRateMeasured = (len*8.0)/((float)elapsed/1000.0);
    23ca:	ed9f 4b0b 	vldr	d4, [pc, #44]	; 23f8 <SX126x::transmit(unsigned char const*, unsigned int, unsigned char)+0x198>
    23ce:	eeb7 6ac6 	vcvt.f64.f32	d6, s12
    23d2:	ee27 7b05 	vmul.f64	d7, d7, d5
    23d6:	ee86 5b04 	vdiv.f64	d5, d6, d4
    23da:	ee87 6b05 	vdiv.f64	d6, d7, d5
    23de:	eeb7 6bc6 	vcvt.f32.f64	s12, d6
    23e2:	ed84 6a62 	vstr	s12, [r4, #392]	; 0x188
}
    23e6:	b005      	add	sp, #20
    23e8:	e8bd 4ff0 	ldmia.w	sp!, {r4, r5, r6, r7, r8, r9, sl, fp, lr}
  return(finishTransmit());
    23ec:	4718      	bx	r3
    return(RADIOLIB_ERR_PACKET_TOO_LONG);
    23ee:	f06f 0603 	mvn.w	r6, #3
    23f2:	e754      	b.n	229e <SX126x::transmit(unsigned char const*, unsigned int, unsigned char)+0x3e>
    23f4:	f3af 8000 	nop.w
    23f8:	00000000 	.word	0x00000000
    23fc:	408f4000 	.word	0x408f4000
    2400:	10624dd3 	.word	0x10624dd3
    2404:	000015d1 	.word	0x000015d1
    2408:	000015ad 	.word	0x000015ad

0000240c <SX126x::setSyncWord(unsigned char*, unsigned int)>:
int16_t SX126x::setSyncWord(uint8_t* syncWord, size_t len) {
    240c:	b5f0      	push	{r4, r5, r6, r7, lr}
  this->mod->SPIreadStream(RADIOLIB_SX126X_CMD_GET_PACKET_TYPE, &data, 1);
    240e:	2301      	movs	r3, #1
int16_t SX126x::setSyncWord(uint8_t* syncWord, size_t len) {
    2410:	b087      	sub	sp, #28
  uint8_t data = 0xFF;
    2412:	27ff      	movs	r7, #255	; 0xff
int16_t SX126x::setSyncWord(uint8_t* syncWord, size_t len) {
    2414:	4604      	mov	r4, r0
    2416:	460e      	mov	r6, r1
    2418:	4615      	mov	r5, r2
  this->mod->SPIreadStream(RADIOLIB_SX126X_CMD_GET_PACKET_TYPE, &data, 1);
    241a:	2111      	movs	r1, #17
    241c:	aa03      	add	r2, sp, #12
  uint8_t data = 0xFF;
    241e:	f88d 700c 	strb.w	r7, [sp, #12]
  this->mod->SPIreadStream(RADIOLIB_SX126X_CMD_GET_PACKET_TYPE, &data, 1);
    2422:	e9cd 3300 	strd	r3, r3, [sp]
    2426:	f8d0 015c 	ldr.w	r0, [r0, #348]	; 0x15c
    242a:	f7fe fbbf 	bl	bac <Module::SPIreadStream(unsigned short, unsigned char*, unsigned int, bool, bool)>
  return(data);
    242e:	f89d 300c 	ldrb.w	r3, [sp, #12]
  if(modem == RADIOLIB_SX126X_PACKET_TYPE_GFSK) {
    2432:	b9fb      	cbnz	r3, 2474 <SX126x::setSyncWord(unsigned char*, unsigned int)+0x68>
    if(len > 8) {
    2434:	2d08      	cmp	r5, #8
    2436:	d823      	bhi.n	2480 <SX126x::setSyncWord(unsigned char*, unsigned int)+0x74>
  this->mod->SPIwriteRegisterBurst(addr, data, numBytes);
    2438:	462b      	mov	r3, r5
    this->syncWordLength = len * 8;
    243a:	00ed      	lsls	r5, r5, #3
  this->mod->SPIwriteRegisterBurst(addr, data, numBytes);
    243c:	4632      	mov	r2, r6
    243e:	f44f 61d8 	mov.w	r1, #1728	; 0x6c0
    2442:	f8d4 015c 	ldr.w	r0, [r4, #348]	; 0x15c
    this->syncWordLength = len * 8;
    2446:	b2ed      	uxtb	r5, r5
  this->mod->SPIwriteRegisterBurst(addr, data, numBytes);
    2448:	f7fe fa2e 	bl	8a8 <Module::SPIwriteRegisterBurst(unsigned long, unsigned char*, unsigned int)>
    uint8_t maxDetLen = RADIOLIB_MIN(this->syncWordLength, this->preambleLengthFSK);
    244c:	f8b4 3180 	ldrh.w	r3, [r4, #384]	; 0x180
    this->syncWordLength = len * 8;
    2450:	f884 517c 	strb.w	r5, [r4, #380]	; 0x17c
    uint8_t maxDetLen = RADIOLIB_MIN(this->syncWordLength, this->preambleLengthFSK);
    2454:	42ab      	cmp	r3, r5
    2456:	ba5a      	rev16	r2, r3
    2458:	bfa8      	it	ge
    245a:	462b      	movge	r3, r5
    this->preambleDetLength = maxDetLen >= 32 ? RADIOLIB_SX126X_GFSK_PREAMBLE_DETECT_32 :
    245c:	2b1f      	cmp	r3, #31
    245e:	dc13      	bgt.n	2488 <SX126x::setSyncWord(unsigned char*, unsigned int)+0x7c>
    2460:	2b17      	cmp	r3, #23
    uint8_t maxDetLen = RADIOLIB_MIN(this->syncWordLength, this->preambleLengthFSK);
    2462:	b2d9      	uxtb	r1, r3
    this->preambleDetLength = maxDetLen >= 32 ? RADIOLIB_SX126X_GFSK_PREAMBLE_DETECT_32 :
    2464:	dc3e      	bgt.n	24e4 <SX126x::setSyncWord(unsigned char*, unsigned int)+0xd8>
    2466:	290f      	cmp	r1, #15
    2468:	d865      	bhi.n	2536 <SX126x::setSyncWord(unsigned char*, unsigned int)+0x12a>
    246a:	3900      	subs	r1, #0
    246c:	bf18      	it	ne
    246e:	2101      	movne	r1, #1
    2470:	0089      	lsls	r1, r1, #2
    2472:	e00a      	b.n	248a <SX126x::setSyncWord(unsigned char*, unsigned int)+0x7e>
  } else if(modem == RADIOLIB_SX126X_PACKET_TYPE_LORA) {
    2474:	2b01      	cmp	r3, #1
    2476:	d037      	beq.n	24e8 <SX126x::setSyncWord(unsigned char*, unsigned int)+0xdc>
  } else if(modem == RADIOLIB_SX126X_PACKET_TYPE_LR_FHSS) {
    2478:	2b03      	cmp	r3, #3
    247a:	d15e      	bne.n	253a <SX126x::setSyncWord(unsigned char*, unsigned int)+0x12e>
    if(len != sizeof(uint32_t)) {
    247c:	2d04      	cmp	r5, #4
    247e:	d02a      	beq.n	24d6 <SX126x::setSyncWord(unsigned char*, unsigned int)+0xca>
      return(RADIOLIB_ERR_INVALID_SYNC_WORD);
    2480:	f06f 0068 	mvn.w	r0, #104	; 0x68
}
    2484:	b007      	add	sp, #28
    2486:	bdf0      	pop	{r4, r5, r6, r7, pc}
    this->preambleDetLength = maxDetLen >= 32 ? RADIOLIB_SX126X_GFSK_PREAMBLE_DETECT_32 :
    2488:	2107      	movs	r1, #7
  return(this->mod->SPIwriteStream(RADIOLIB_SX126X_CMD_SET_PACKET_PARAMS, data, 9));
    248a:	2301      	movs	r3, #1
    this->preambleDetLength = maxDetLen >= 32 ? RADIOLIB_SX126X_GFSK_PREAMBLE_DETECT_32 :
    248c:	f884 1178 	strb.w	r1, [r4, #376]	; 0x178
                     packType, payloadLen, crcType, whiten};
    2490:	f88d 100e 	strb.w	r1, [sp, #14]
    2494:	21ff      	movs	r1, #255	; 0xff
    2496:	f8ad 200c 	strh.w	r2, [sp, #12]
    249a:	2200      	movs	r2, #0
    249c:	f88d 1012 	strb.w	r1, [sp, #18]
    24a0:	f88d 2010 	strb.w	r2, [sp, #16]
  return(this->mod->SPIwriteStream(RADIOLIB_SX126X_CMD_SET_PACKET_PARAMS, data, 9));
    24a4:	aa03      	add	r2, sp, #12
                     packType, payloadLen, crcType, whiten};
    24a6:	f88d 500f 	strb.w	r5, [sp, #15]
  return(this->mod->SPIwriteStream(RADIOLIB_SX126X_CMD_SET_PACKET_PARAMS, data, 9));
    24aa:	e9cd 3300 	strd	r3, r3, [sp]
    state = setPacketParamsFSK(this->preambleLengthFSK, this->preambleDetLength, this->crcTypeFSK, this->syncWordLength, RADIOLIB_SX126X_GFSK_ADDRESS_FILT_OFF, this->whitening, this->packetType);
    24ae:	f894 117b 	ldrb.w	r1, [r4, #379]	; 0x17b
  return(this->mod->SPIwriteStream(RADIOLIB_SX126X_CMD_SET_PACKET_PARAMS, data, 9));
    24b2:	2309      	movs	r3, #9
    24b4:	f8d4 015c 	ldr.w	r0, [r4, #348]	; 0x15c
                     packType, payloadLen, crcType, whiten};
    24b8:	f88d 1013 	strb.w	r1, [sp, #19]
    state = setPacketParamsFSK(this->preambleLengthFSK, this->preambleDetLength, this->crcTypeFSK, this->syncWordLength, RADIOLIB_SX126X_GFSK_ADDRESS_FILT_OFF, this->whitening, this->packetType);
    24bc:	f894 117d 	ldrb.w	r1, [r4, #381]	; 0x17d
                     packType, payloadLen, crcType, whiten};
    24c0:	f88d 1014 	strb.w	r1, [sp, #20]
    state = setPacketParamsFSK(this->preambleLengthFSK, this->preambleDetLength, this->crcTypeFSK, this->syncWordLength, RADIOLIB_SX126X_GFSK_ADDRESS_FILT_OFF, this->whitening, this->packetType);
    24c4:	f894 117e 	ldrb.w	r1, [r4, #382]	; 0x17e
                     packType, payloadLen, crcType, whiten};
    24c8:	f88d 1011 	strb.w	r1, [sp, #17]
  return(this->mod->SPIwriteStream(RADIOLIB_SX126X_CMD_SET_PACKET_PARAMS, data, 9));
    24cc:	218c      	movs	r1, #140	; 0x8c
    24ce:	f7fe fbaf 	bl	c30 <Module::SPIwriteStream(unsigned short, unsigned char*, unsigned int, bool, bool)>
}
    24d2:	b007      	add	sp, #28
    24d4:	bdf0      	pop	{r4, r5, r6, r7, pc}
    memcpy(this->lrFhssSyncWord, syncWord, sizeof(uint32_t));
    24d6:	6833      	ldr	r3, [r6, #0]
  return(RADIOLIB_ERR_WRONG_MODEM);
    24d8:	f06f 0013 	mvn.w	r0, #19
    memcpy(this->lrFhssSyncWord, syncWord, sizeof(uint32_t));
    24dc:	f8c4 319c 	str.w	r3, [r4, #412]	; 0x19c
}
    24e0:	b007      	add	sp, #28
    24e2:	bdf0      	pop	{r4, r5, r6, r7, pc}
    this->preambleDetLength = maxDetLen >= 32 ? RADIOLIB_SX126X_GFSK_PREAMBLE_DETECT_32 :
    24e4:	2106      	movs	r1, #6
    24e6:	e7d0      	b.n	248a <SX126x::setSyncWord(unsigned char*, unsigned int)+0x7e>
    if(len > 1) {
    24e8:	2d01      	cmp	r5, #1
    24ea:	d8c9      	bhi.n	2480 <SX126x::setSyncWord(unsigned char*, unsigned int)+0x74>
  this->mod->SPIreadStream(RADIOLIB_SX126X_CMD_GET_PACKET_TYPE, &data, 1);
    24ec:	aa03      	add	r2, sp, #12
    24ee:	2111      	movs	r1, #17
  uint8_t data = 0xFF;
    24f0:	f88d 700c 	strb.w	r7, [sp, #12]
  this->mod->SPIreadStream(RADIOLIB_SX126X_CMD_GET_PACKET_TYPE, &data, 1);
    24f4:	e9cd 3300 	strd	r3, r3, [sp]
    24f8:	f8d4 015c 	ldr.w	r0, [r4, #348]	; 0x15c
    return(setSyncWord(syncWord[0]));
    24fc:	7835      	ldrb	r5, [r6, #0]
  this->mod->SPIreadStream(RADIOLIB_SX126X_CMD_GET_PACKET_TYPE, &data, 1);
    24fe:	f7fe fb55 	bl	bac <Module::SPIreadStream(unsigned short, unsigned char*, unsigned int, bool, bool)>
  return(data);
    2502:	f89d 300c 	ldrb.w	r3, [sp, #12]
  if(getPacketType() != RADIOLIB_SX126X_PACKET_TYPE_LORA) {
    2506:	2b01      	cmp	r3, #1
    2508:	d117      	bne.n	253a <SX126x::setSyncWord(unsigned char*, unsigned int)+0x12e>
  uint8_t data[2] = {(uint8_t)((syncWord & 0xF0) | ((controlBits & 0xF0) >> 4)), (uint8_t)(((syncWord & 0x0F) << 4) | (controlBits & 0x0F))};
    250a:	f025 010f 	bic.w	r1, r5, #15
    250e:	012d      	lsls	r5, r5, #4
  this->mod->SPIwriteRegisterBurst(addr, data, numBytes);
    2510:	f8d4 015c 	ldr.w	r0, [r4, #348]	; 0x15c
    2514:	2302      	movs	r3, #2
  uint8_t data[2] = {(uint8_t)((syncWord & 0xF0) | ((controlBits & 0xF0) >> 4)), (uint8_t)(((syncWord & 0x0F) << 4) | (controlBits & 0x0F))};
    2516:	f041 0104 	orr.w	r1, r1, #4
    251a:	f045 0504 	orr.w	r5, r5, #4
  this->mod->SPIwriteRegisterBurst(addr, data, numBytes);
    251e:	aa03      	add	r2, sp, #12
  uint8_t data[2] = {(uint8_t)((syncWord & 0xF0) | ((controlBits & 0xF0) >> 4)), (uint8_t)(((syncWord & 0x0F) << 4) | (controlBits & 0x0F))};
    2520:	f88d 100c 	strb.w	r1, [sp, #12]
  this->mod->SPIwriteRegisterBurst(addr, data, numBytes);
    2524:	f44f 61e8 	mov.w	r1, #1856	; 0x740
  uint8_t data[2] = {(uint8_t)((syncWord & 0xF0) | ((controlBits & 0xF0) >> 4)), (uint8_t)(((syncWord & 0x0F) << 4) | (controlBits & 0x0F))};
    2528:	f88d 500d 	strb.w	r5, [sp, #13]
  this->mod->SPIwriteRegisterBurst(addr, data, numBytes);
    252c:	f7fe f9bc 	bl	8a8 <Module::SPIwriteRegisterBurst(unsigned long, unsigned char*, unsigned int)>
  return(writeRegister(RADIOLIB_SX126X_REG_LORA_SYNC_WORD_MSB, data, 2));
    2530:	2000      	movs	r0, #0
}
    2532:	b007      	add	sp, #28
    2534:	bdf0      	pop	{r4, r5, r6, r7, pc}
    this->preambleDetLength = maxDetLen >= 32 ? RADIOLIB_SX126X_GFSK_PREAMBLE_DETECT_32 :
    2536:	2105      	movs	r1, #5
    2538:	e7a7      	b.n	248a <SX126x::setSyncWord(unsigned char*, unsigned int)+0x7e>
  return(RADIOLIB_ERR_WRONG_MODEM);
    253a:	f06f 0013 	mvn.w	r0, #19
    253e:	e7c8      	b.n	24d2 <SX126x::setSyncWord(unsigned char*, unsigned int)+0xc6>

00002540 <SX126x::SX126x(Module*)>:
SX126x::SX126x(Module* mod) : PhysicalLayer(RADIOLIB_SX126X_FREQUENCY_STEP_SIZE, RADIOLIB_SX126X_MAX_PACKET_LENGTH) {
    2540:	b538      	push	{r3, r4, r5, lr}
    2542:	ed9f 0a2f 	vldr	s0, [pc, #188]	; 2600 <SX126x::SX126x(Module*)+0xc0>
    2546:	460d      	mov	r5, r1
    2548:	21ff      	movs	r1, #255	; 0xff
    254a:	4604      	mov	r4, r0
    254c:	f002 fe06 	bl	515c <PhysicalLayer::PhysicalLayer(float, unsigned int)>
    2550:	482c      	ldr	r0, [pc, #176]	; (2604 <SX126x::SX126x(Module*)+0xc4>)
    2552:	2300      	movs	r3, #0
    2554:	2200      	movs	r2, #0
    2556:	6020      	str	r0, [r4, #0]
    2558:	2003      	movs	r0, #3
    255a:	2101      	movs	r1, #1
    255c:	f8c4 2154 	str.w	r2, [r4, #340]	; 0x154
    2560:	f884 0158 	strb.w	r0, [r4, #344]	; 0x158
    2564:	4828      	ldr	r0, [pc, #160]	; (2608 <SX126x::SX126x(Module*)+0xc8>)
    2566:	f8c4 2168 	str.w	r2, [r4, #360]	; 0x168
    256a:	f8c4 2184 	str.w	r2, [r4, #388]	; 0x184
    256e:	f8c4 2188 	str.w	r2, [r4, #392]	; 0x188
  this->irqMap[RADIOLIB_IRQ_RX_DONE] = RADIOLIB_SX126X_IRQ_RX_DONE;
    2572:	2202      	movs	r2, #2
  this->mod = mod;
    2574:	f8c4 515c 	str.w	r5, [r4, #348]	; 0x15c
  this->irqMap[RADIOLIB_IRQ_PREAMBLE_DETECTED] = RADIOLIB_SX126X_IRQ_PREAMBLE_DETECTED;
    2578:	2504      	movs	r5, #4
SX126x::SX126x(Module* mod) : PhysicalLayer(RADIOLIB_SX126X_FREQUENCY_STEP_SIZE, RADIOLIB_SX126X_MAX_PACKET_LENGTH) {
    257a:	f8c4 314c 	str.w	r3, [r4, #332]	; 0x14c
    257e:	f884 3150 	strb.w	r3, [r4, #336]	; 0x150
    2582:	f8c4 3160 	str.w	r3, [r4, #352]	; 0x160
    2586:	f884 3164 	strb.w	r3, [r4, #356]	; 0x164
    258a:	f8a4 3166 	strh.w	r3, [r4, #358]	; 0x166
    258e:	f884 116c 	strb.w	r1, [r4, #364]	; 0x16c
    2592:	f8c4 3178 	str.w	r3, [r4, #376]	; 0x178
    2596:	f8a4 317c 	strh.w	r3, [r4, #380]	; 0x17c
    259a:	f884 317e 	strb.w	r3, [r4, #382]	; 0x17e
    259e:	f8a4 3180 	strh.w	r3, [r4, #384]	; 0x180
    25a2:	f8c4 318c 	str.w	r3, [r4, #396]	; 0x18c
    25a6:	f884 3190 	strb.w	r3, [r4, #400]	; 0x190
    25aa:	f884 31a0 	strb.w	r3, [r4, #416]	; 0x1a0
    25ae:	f8a4 31a2 	strh.w	r3, [r4, #418]	; 0x1a2
    25b2:	f8c4 31b4 	str.w	r3, [r4, #436]	; 0x1b4
    25b6:	e9c4 3065 	strd	r3, r0, [r4, #404]	; 0x194
    25ba:	4814      	ldr	r0, [pc, #80]	; (260c <SX126x::SX126x(Module*)+0xcc>)
    25bc:	6940      	ldr	r0, [r0, #20]
    25be:	e9c4 335c 	strd	r3, r3, [r4, #368]	; 0x170
    25c2:	e9c4 3369 	strd	r3, r3, [r4, #420]	; 0x1a4
    25c6:	f8c4 019c 	str.w	r0, [r4, #412]	; 0x19c
  this->irqMap[RADIOLIB_IRQ_SYNC_WORD_VALID] = RADIOLIB_SX126X_IRQ_SYNC_WORD_VALID;
    25ca:	2008      	movs	r0, #8
SX126x::SX126x(Module* mod) : PhysicalLayer(RADIOLIB_SX126X_FREQUENCY_STEP_SIZE, RADIOLIB_SX126X_MAX_PACKET_LENGTH) {
    25cc:	e9c4 336b 	strd	r3, r3, [r4, #428]	; 0x1ac
  this->XTAL = false;
    25d0:	f884 3149 	strb.w	r3, [r4, #329]	; 0x149
  this->standbyXOSC = false;
    25d4:	f884 314a 	strb.w	r3, [r4, #330]	; 0x14a
  this->irqMap[RADIOLIB_IRQ_HEADER_ERR] = RADIOLIB_SX126X_IRQ_HEADER_ERR;
    25d8:	2320      	movs	r3, #32
  this->irqMap[RADIOLIB_IRQ_RX_DONE] = RADIOLIB_SX126X_IRQ_RX_DONE;
    25da:	e9c4 1201 	strd	r1, r2, [r4, #4]
  this->irqMap[RADIOLIB_IRQ_HEADER_VALID] = RADIOLIB_SX126X_IRQ_HEADER_VALID;
    25de:	2210      	movs	r2, #16
  this->irqMap[RADIOLIB_IRQ_CAD_DONE] = RADIOLIB_SX126X_IRQ_CAD_DONE;
    25e0:	2180      	movs	r1, #128	; 0x80
  this->irqMap[RADIOLIB_IRQ_HEADER_ERR] = RADIOLIB_SX126X_IRQ_HEADER_ERR;
    25e2:	e9c4 2305 	strd	r2, r3, [r4, #20]
  this->irqMap[RADIOLIB_IRQ_SYNC_WORD_VALID] = RADIOLIB_SX126X_IRQ_SYNC_WORD_VALID;
    25e6:	e9c4 5003 	strd	r5, r0, [r4, #12]
  this->irqMap[RADIOLIB_IRQ_CAD_DETECTED] = RADIOLIB_SX126X_IRQ_CAD_DETECTED;
    25ea:	f44f 7280 	mov.w	r2, #256	; 0x100
  this->irqMap[RADIOLIB_IRQ_CRC_ERR] = RADIOLIB_SX126X_IRQ_CRC_ERR;
    25ee:	2040      	movs	r0, #64	; 0x40
  this->irqMap[RADIOLIB_IRQ_TIMEOUT] = RADIOLIB_SX126X_IRQ_TIMEOUT;
    25f0:	f44f 7300 	mov.w	r3, #512	; 0x200
  this->irqMap[RADIOLIB_IRQ_CAD_DONE] = RADIOLIB_SX126X_IRQ_CAD_DONE;
    25f4:	e9c4 0107 	strd	r0, r1, [r4, #28]
  this->irqMap[RADIOLIB_IRQ_TIMEOUT] = RADIOLIB_SX126X_IRQ_TIMEOUT;
    25f8:	e9c4 2309 	strd	r2, r3, [r4, #36]	; 0x24
}
    25fc:	4620      	mov	r0, r4
    25fe:	bd38      	pop	{r3, r4, r5, pc}
    2600:	3f742400 	.word	0x3f742400
    2604:	200006b8 	.word	0x200006b8
    2608:	03060100 	.word	0x03060100
    260c:	200002b0 	.word	0x200002b0

00002610 <SX126x::reset(bool)>:
  this->mod->hal->pinMode(this->mod->getRst(), this->mod->hal->GpioModeOutput);
    2610:	f8d0 315c 	ldr.w	r3, [r0, #348]	; 0x15c
int16_t SX126x::reset(bool verify) {
    2614:	b570      	push	{r4, r5, r6, lr}
    2616:	4604      	mov	r4, r0
  this->mod->hal->pinMode(this->mod->getRst(), this->mod->hal->GpioModeOutput);
    2618:	6818      	ldr	r0, [r3, #0]
int16_t SX126x::reset(bool verify) {
    261a:	460d      	mov	r5, r1
  this->mod->hal->pinMode(this->mod->getRst(), this->mod->hal->GpioModeOutput);
    261c:	6a99      	ldr	r1, [r3, #40]	; 0x28
    261e:	6803      	ldr	r3, [r0, #0]
    2620:	6882      	ldr	r2, [r0, #8]
    2622:	681b      	ldr	r3, [r3, #0]
    2624:	4798      	blx	r3
  this->mod->hal->digitalWrite(this->mod->getRst(), this->mod->hal->GpioLevelLow);
    2626:	f8d4 315c 	ldr.w	r3, [r4, #348]	; 0x15c
    262a:	6818      	ldr	r0, [r3, #0]
    262c:	6a99      	ldr	r1, [r3, #40]	; 0x28
    262e:	6803      	ldr	r3, [r0, #0]
    2630:	68c2      	ldr	r2, [r0, #12]
    2632:	685b      	ldr	r3, [r3, #4]
    2634:	4798      	blx	r3
  this->mod->hal->delay(1);
    2636:	f8d4 315c 	ldr.w	r3, [r4, #348]	; 0x15c
    263a:	2101      	movs	r1, #1
    263c:	6818      	ldr	r0, [r3, #0]
    263e:	6803      	ldr	r3, [r0, #0]
    2640:	695b      	ldr	r3, [r3, #20]
    2642:	4798      	blx	r3
  this->mod->hal->digitalWrite(this->mod->getRst(), this->mod->hal->GpioLevelHigh);
    2644:	f8d4 315c 	ldr.w	r3, [r4, #348]	; 0x15c
    2648:	6818      	ldr	r0, [r3, #0]
    264a:	6a99      	ldr	r1, [r3, #40]	; 0x28
    264c:	6803      	ldr	r3, [r0, #0]
    264e:	6902      	ldr	r2, [r0, #16]
    2650:	685b      	ldr	r3, [r3, #4]
    2652:	4798      	blx	r3
  if(!verify) {
    2654:	b1fd      	cbz	r5, 2696 <SX126x::reset(bool)+0x86>
  RadioLibTime_t start = this->mod->hal->millis();
    2656:	f8d4 315c 	ldr.w	r3, [r4, #348]	; 0x15c
    265a:	6818      	ldr	r0, [r3, #0]
    265c:	6803      	ldr	r3, [r0, #0]
    265e:	69db      	ldr	r3, [r3, #28]
    2660:	4798      	blx	r3
    2662:	4606      	mov	r6, r0
    2664:	e010      	b.n	2688 <SX126x::reset(bool)+0x78>
    if(this->mod->hal->millis() - start >= 1000) {
    2666:	f8d4 315c 	ldr.w	r3, [r4, #348]	; 0x15c
    266a:	6818      	ldr	r0, [r3, #0]
    266c:	6803      	ldr	r3, [r0, #0]
    266e:	69db      	ldr	r3, [r3, #28]
    2670:	4798      	blx	r3
    2672:	1b80      	subs	r0, r0, r6
    this->mod->hal->delay(10);
    2674:	210a      	movs	r1, #10
    if(this->mod->hal->millis() - start >= 1000) {
    2676:	f5b0 7f7a 	cmp.w	r0, #1000	; 0x3e8
    267a:	d20d      	bcs.n	2698 <SX126x::reset(bool)+0x88>
    this->mod->hal->delay(10);
    267c:	f8d4 315c 	ldr.w	r3, [r4, #348]	; 0x15c
    2680:	6818      	ldr	r0, [r3, #0]
    2682:	6803      	ldr	r3, [r0, #0]
    2684:	695b      	ldr	r3, [r3, #20]
    2686:	4798      	blx	r3
    int16_t state = standby();
    2688:	6823      	ldr	r3, [r4, #0]
    268a:	4620      	mov	r0, r4
    268c:	689b      	ldr	r3, [r3, #8]
    268e:	4798      	blx	r3
    if(state == RADIOLIB_ERR_NONE) {
    2690:	4605      	mov	r5, r0
    2692:	2800      	cmp	r0, #0
    2694:	d1e7      	bne.n	2666 <SX126x::reset(bool)+0x56>
    return(RADIOLIB_ERR_NONE);
    2696:	2500      	movs	r5, #0
}
    2698:	4628      	mov	r0, r5
    269a:	bd70      	pop	{r4, r5, r6, pc}

0000269c <SX126x::sleep(bool)>:
int16_t SX126x::sleep(bool retainConfig) {
    269c:	b530      	push	{r4, r5, lr}
    269e:	460d      	mov	r5, r1
    26a0:	b085      	sub	sp, #20
    26a2:	4604      	mov	r4, r0
  this->mod->setRfSwitchState(Module::MODE_IDLE);
    26a4:	2101      	movs	r1, #1
    26a6:	f8d0 015c 	ldr.w	r0, [r0, #348]	; 0x15c
    26aa:	f7fe fb43 	bl	d34 <Module::setRfSwitchState(unsigned char)>
  if(!retainConfig) {
    26ae:	b1c5      	cbz	r5, 26e2 <SX126x::sleep(bool)+0x46>
  uint8_t sleepMode = RADIOLIB_SX126X_SLEEP_START_WARM | RADIOLIB_SX126X_SLEEP_RTC_OFF;
    26b0:	2304      	movs	r3, #4
    26b2:	f88d 300f 	strb.w	r3, [sp, #15]
  int16_t state = this->mod->SPIwriteStream(RADIOLIB_SX126X_CMD_SET_SLEEP, &sleepMode, 1, false, false);
    26b6:	2000      	movs	r0, #0
    26b8:	f10d 020f 	add.w	r2, sp, #15
    26bc:	2301      	movs	r3, #1
    26be:	2184      	movs	r1, #132	; 0x84
    26c0:	e9cd 0000 	strd	r0, r0, [sp]
    26c4:	f8d4 015c 	ldr.w	r0, [r4, #348]	; 0x15c
    26c8:	f7fe fab2 	bl	c30 <Module::SPIwriteStream(unsigned short, unsigned char*, unsigned int, bool, bool)>
  this->mod->hal->delay(1);
    26cc:	f8d4 315c 	ldr.w	r3, [r4, #348]	; 0x15c
  int16_t state = this->mod->SPIwriteStream(RADIOLIB_SX126X_CMD_SET_SLEEP, &sleepMode, 1, false, false);
    26d0:	4604      	mov	r4, r0
  this->mod->hal->delay(1);
    26d2:	2101      	movs	r1, #1
    26d4:	6818      	ldr	r0, [r3, #0]
    26d6:	6803      	ldr	r3, [r0, #0]
    26d8:	695b      	ldr	r3, [r3, #20]
    26da:	4798      	blx	r3
}
    26dc:	4620      	mov	r0, r4
    26de:	b005      	add	sp, #20
    26e0:	bd30      	pop	{r4, r5, pc}
    sleepMode = RADIOLIB_SX126X_SLEEP_START_COLD | RADIOLIB_SX126X_SLEEP_RTC_OFF;
    26e2:	f88d 500f 	strb.w	r5, [sp, #15]
    26e6:	e7e6      	b.n	26b6 <SX126x::sleep(bool)+0x1a>

000026e8 <SX126x::sleep()>:
  return(SX126x::sleep(true));
    26e8:	2101      	movs	r1, #1
    26ea:	f7ff bfd7 	b.w	269c <SX126x::sleep(bool)>
    26ee:	bf00      	nop

000026f0 <SX126x::setDio1Action(void (*)())>:
  this->mod->hal->attachInterrupt(this->mod->hal->pinToInterrupt(this->mod->getIrq()), func, this->mod->hal->GpioInterruptRising);
    26f0:	f8d0 315c 	ldr.w	r3, [r0, #348]	; 0x15c
void SX126x::setDio1Action(void (*func)(void)) {
    26f4:	b5f0      	push	{r4, r5, r6, r7, lr}
  this->mod->hal->attachInterrupt(this->mod->hal->pinToInterrupt(this->mod->getIrq()), func, this->mod->hal->GpioInterruptRising);
    26f6:	681d      	ldr	r5, [r3, #0]
void SX126x::setDio1Action(void (*func)(void)) {
    26f8:	b083      	sub	sp, #12
    26fa:	4604      	mov	r4, r0
    26fc:	9101      	str	r1, [sp, #4]
  this->mod->hal->attachInterrupt(this->mod->hal->pinToInterrupt(this->mod->getIrq()), func, this->mod->hal->GpioInterruptRising);
    26fe:	4628      	mov	r0, r5
    2700:	6a59      	ldr	r1, [r3, #36]	; 0x24
    2702:	682b      	ldr	r3, [r5, #0]
    2704:	6d1f      	ldr	r7, [r3, #80]	; 0x50
    2706:	68de      	ldr	r6, [r3, #12]
    2708:	47b8      	blx	r7
    270a:	f8d4 315c 	ldr.w	r3, [r4, #348]	; 0x15c
    270e:	4601      	mov	r1, r0
    2710:	9a01      	ldr	r2, [sp, #4]
    2712:	4628      	mov	r0, r5
    2714:	681b      	ldr	r3, [r3, #0]
    2716:	46b4      	mov	ip, r6
    2718:	695b      	ldr	r3, [r3, #20]
}
    271a:	b003      	add	sp, #12
    271c:	e8bd 40f0 	ldmia.w	sp!, {r4, r5, r6, r7, lr}
  this->mod->hal->attachInterrupt(this->mod->hal->pinToInterrupt(this->mod->getIrq()), func, this->mod->hal->GpioInterruptRising);
    2720:	4760      	bx	ip
    2722:	bf00      	nop

00002724 <SX126x::setDirectAction(void (*)())>:
  this->setDio1Action(func);
    2724:	f7ff bfe4 	b.w	26f0 <SX126x::setDio1Action(void (*)())>

00002728 <SX126x::clearDio1Action()>:
  this->mod->hal->detachInterrupt(this->mod->hal->pinToInterrupt(this->mod->getIrq()));
    2728:	f8d0 315c 	ldr.w	r3, [r0, #348]	; 0x15c
void SX126x::clearDio1Action() {
    272c:	b570      	push	{r4, r5, r6, lr}
  this->mod->hal->detachInterrupt(this->mod->hal->pinToInterrupt(this->mod->getIrq()));
    272e:	681c      	ldr	r4, [r3, #0]
    2730:	6a59      	ldr	r1, [r3, #36]	; 0x24
    2732:	6823      	ldr	r3, [r4, #0]
    2734:	4620      	mov	r0, r4
    2736:	691d      	ldr	r5, [r3, #16]
    2738:	6d1a      	ldr	r2, [r3, #80]	; 0x50
    273a:	4790      	blx	r2
    273c:	462b      	mov	r3, r5
    273e:	4601      	mov	r1, r0
    2740:	4620      	mov	r0, r4
}
    2742:	e8bd 4070 	ldmia.w	sp!, {r4, r5, r6, lr}
  this->mod->hal->detachInterrupt(this->mod->hal->pinToInterrupt(this->mod->getIrq()));
    2746:	4718      	bx	r3

00002748 <SX126x::clearPacketSentAction()>:
  this->clearDio1Action();
    2748:	f7ff bfee 	b.w	2728 <SX126x::clearDio1Action()>
    274c:	0000      	movs	r0, r0
	...

00002750 <SX126x::setRxBandwidth(float)>:
int16_t SX126x::setRxBandwidth(float rxBw) {
    2750:	b510      	push	{r4, lr}
  this->mod->SPIreadStream(RADIOLIB_SX126X_CMD_GET_PACKET_TYPE, &data, 1);
    2752:	2301      	movs	r3, #1
  uint8_t data = 0xFF;
    2754:	22ff      	movs	r2, #255	; 0xff
int16_t SX126x::setRxBandwidth(float rxBw) {
    2756:	4604      	mov	r4, r0
  this->mod->SPIreadStream(RADIOLIB_SX126X_CMD_GET_PACKET_TYPE, &data, 1);
    2758:	2111      	movs	r1, #17
int16_t SX126x::setRxBandwidth(float rxBw) {
    275a:	ed2d 8b02 	vpush	{d8}
    275e:	b084      	sub	sp, #16
    2760:	eeb0 8a40 	vmov.f32	s16, s0
  this->mod->SPIreadStream(RADIOLIB_SX126X_CMD_GET_PACKET_TYPE, &data, 1);
    2764:	e9cd 3300 	strd	r3, r3, [sp]
  uint8_t data = 0xFF;
    2768:	f88d 2008 	strb.w	r2, [sp, #8]
  this->mod->SPIreadStream(RADIOLIB_SX126X_CMD_GET_PACKET_TYPE, &data, 1);
    276c:	aa02      	add	r2, sp, #8
    276e:	f8d0 015c 	ldr.w	r0, [r0, #348]	; 0x15c
    2772:	f7fe fa1b 	bl	bac <Module::SPIreadStream(unsigned short, unsigned char*, unsigned int, bool, bool)>
  return(data);
    2776:	f89d 3008 	ldrb.w	r3, [sp, #8]
  if(getPacketType() != RADIOLIB_SX126X_PACKET_TYPE_GFSK) {
    277a:	2b00      	cmp	r3, #0
    277c:	f040 8183 	bne.w	2a86 <SX126x::setRxBandwidth(float)+0x336>
  if(fabsf(rxBw - 4.8) <= 0.001) {
    2780:	eeb7 6ac8 	vcvt.f64.f32	d6, s16
  this->rxBandwidthKhz = rxBw;
    2784:	ed84 8a61 	vstr	s16, [r4, #388]	; 0x184
  if(fabsf(rxBw - 4.8) <= 0.001) {
    2788:	ed9f 7bd1 	vldr	d7, [pc, #836]	; 2ad0 <SX126x::setRxBandwidth(float)+0x380>
    278c:	ed9f 5bd2 	vldr	d5, [pc, #840]	; 2ad8 <SX126x::setRxBandwidth(float)+0x388>
    2790:	ee36 7b47 	vsub.f64	d7, d6, d7
    2794:	eeb7 7bc7 	vcvt.f32.f64	s14, d7
    2798:	eeb0 7ac7 	vabs.f32	s14, s14
    279c:	eeb7 7ac7 	vcvt.f64.f32	d7, s14
    27a0:	eeb4 7bc5 	vcmpe.f64	d7, d5
    27a4:	eef1 fa10 	vmrs	APSR_nzcv, fpscr
    27a8:	d82c      	bhi.n	2804 <SX126x::setRxBandwidth(float)+0xb4>
    27aa:	231f      	movs	r3, #31
                     (uint8_t)((freqDev >> 16) & 0xFF), (uint8_t)((freqDev >> 8) & 0xFF), (uint8_t)(freqDev & 0xFF)};
    27ac:	f8b4 0176 	ldrh.w	r0, [r4, #374]	; 0x176
  return(setModulationParamsFSK(this->bitRate, this->pulseShape, this->rxBandwidth, this->frequencyDev));
    27b0:	f8d4 1170 	ldr.w	r1, [r4, #368]	; 0x170
                     (uint8_t)((freqDev >> 16) & 0xFF), (uint8_t)((freqDev >> 8) & 0xFF), (uint8_t)(freqDev & 0xFF)};
    27b4:	f88d 000d 	strb.w	r0, [sp, #13]
  return(this->mod->SPIwriteStream(RADIOLIB_SX126X_CMD_SET_MODULATION_PARAMS, data, 8));
    27b8:	2001      	movs	r0, #1
  return(setModulationParamsFSK(this->bitRate, this->pulseShape, this->rxBandwidth, this->frequencyDev));
    27ba:	f894 217a 	ldrb.w	r2, [r4, #378]	; 0x17a
    this->rxBandwidth = RADIOLIB_SX126X_GFSK_RX_BW_4_8;
    27be:	f884 3179 	strb.w	r3, [r4, #377]	; 0x179
                     (uint8_t)((freqDev >> 16) & 0xFF), (uint8_t)((freqDev >> 8) & 0xFF), (uint8_t)(freqDev & 0xFF)};
    27c2:	f88d 300c 	strb.w	r3, [sp, #12]
  return(this->mod->SPIwriteStream(RADIOLIB_SX126X_CMD_SET_MODULATION_PARAMS, data, 8));
    27c6:	2308      	movs	r3, #8
                     (uint8_t)((freqDev >> 16) & 0xFF), (uint8_t)((freqDev >> 8) & 0xFF), (uint8_t)(freqDev & 0xFF)};
    27c8:	f88d 200b 	strb.w	r2, [sp, #11]
  return(this->mod->SPIwriteStream(RADIOLIB_SX126X_CMD_SET_MODULATION_PARAMS, data, 8));
    27cc:	aa02      	add	r2, sp, #8
                     (uint8_t)((freqDev >> 16) & 0xFF), (uint8_t)((freqDev >> 8) & 0xFF), (uint8_t)(freqDev & 0xFF)};
    27ce:	f88d 100a 	strb.w	r1, [sp, #10]
  return(this->mod->SPIwriteStream(RADIOLIB_SX126X_CMD_SET_MODULATION_PARAMS, data, 8));
    27d2:	e9cd 0000 	strd	r0, r0, [sp]
    27d6:	f8b4 c174 	ldrh.w	ip, [r4, #372]	; 0x174
    27da:	f8d4 015c 	ldr.w	r0, [r4, #348]	; 0x15c
    27de:	fa9c f49c 	rev16.w	r4, ip
  uint8_t data[8] = {(uint8_t)((br >> 16) & 0xFF), (uint8_t)((br >> 8) & 0xFF), (uint8_t)(br & 0xFF),
    27e2:	ea4f 4c11 	mov.w	ip, r1, lsr #16
                     (uint8_t)((freqDev >> 16) & 0xFF), (uint8_t)((freqDev >> 8) & 0xFF), (uint8_t)(freqDev & 0xFF)};
    27e6:	f8ad 400e 	strh.w	r4, [sp, #14]
  uint8_t data[8] = {(uint8_t)((br >> 16) & 0xFF), (uint8_t)((br >> 8) & 0xFF), (uint8_t)(br & 0xFF),
    27ea:	fa21 f403 	lsr.w	r4, r1, r3
  return(this->mod->SPIwriteStream(RADIOLIB_SX126X_CMD_SET_MODULATION_PARAMS, data, 8));
    27ee:	218b      	movs	r1, #139	; 0x8b
                     (uint8_t)((freqDev >> 16) & 0xFF), (uint8_t)((freqDev >> 8) & 0xFF), (uint8_t)(freqDev & 0xFF)};
    27f0:	f88d c008 	strb.w	ip, [sp, #8]
    27f4:	f88d 4009 	strb.w	r4, [sp, #9]
  return(this->mod->SPIwriteStream(RADIOLIB_SX126X_CMD_SET_MODULATION_PARAMS, data, 8));
    27f8:	f7fe fa1a 	bl	c30 <Module::SPIwriteStream(unsigned short, unsigned char*, unsigned int, bool, bool)>
}
    27fc:	b004      	add	sp, #16
    27fe:	ecbd 8b02 	vpop	{d8}
    2802:	bd10      	pop	{r4, pc}
  } else if(fabsf(rxBw - 5.8) <= 0.001) {
    2804:	ed9f 7bb6 	vldr	d7, [pc, #728]	; 2ae0 <SX126x::setRxBandwidth(float)+0x390>
    2808:	ee36 7b47 	vsub.f64	d7, d6, d7
    280c:	eeb7 7bc7 	vcvt.f32.f64	s14, d7
    2810:	eeb0 7ac7 	vabs.f32	s14, s14
    2814:	eeb7 7ac7 	vcvt.f64.f32	d7, s14
    2818:	eeb4 7bc5 	vcmpe.f64	d7, d5
    281c:	eef1 fa10 	vmrs	APSR_nzcv, fpscr
    2820:	f240 8127 	bls.w	2a72 <SX126x::setRxBandwidth(float)+0x322>
  } else if(fabsf(rxBw - 7.3) <= 0.001) {
    2824:	ed9f 7bb0 	vldr	d7, [pc, #704]	; 2ae8 <SX126x::setRxBandwidth(float)+0x398>
    2828:	ee36 7b47 	vsub.f64	d7, d6, d7
    282c:	eeb7 7bc7 	vcvt.f32.f64	s14, d7
    2830:	eeb0 7ac7 	vabs.f32	s14, s14
    2834:	eeb7 7ac7 	vcvt.f64.f32	d7, s14
    2838:	eeb4 7bc5 	vcmpe.f64	d7, d5
    283c:	eef1 fa10 	vmrs	APSR_nzcv, fpscr
    2840:	f240 8119 	bls.w	2a76 <SX126x::setRxBandwidth(float)+0x326>
  } else if(fabsf(rxBw - 9.7) <= 0.001) {
    2844:	ed9f 7baa 	vldr	d7, [pc, #680]	; 2af0 <SX126x::setRxBandwidth(float)+0x3a0>
    2848:	ee36 7b47 	vsub.f64	d7, d6, d7
    284c:	eeb7 7bc7 	vcvt.f32.f64	s14, d7
    2850:	eeb0 7ac7 	vabs.f32	s14, s14
    2854:	eeb7 7ac7 	vcvt.f64.f32	d7, s14
    2858:	eeb4 7bc5 	vcmpe.f64	d7, d5
    285c:	eef1 fa10 	vmrs	APSR_nzcv, fpscr
    2860:	f240 810b 	bls.w	2a7a <SX126x::setRxBandwidth(float)+0x32a>
  } else if(fabsf(rxBw - 11.7) <= 0.001) {
    2864:	ed9f 7ba4 	vldr	d7, [pc, #656]	; 2af8 <SX126x::setRxBandwidth(float)+0x3a8>
    2868:	ee36 7b47 	vsub.f64	d7, d6, d7
    286c:	eeb7 7bc7 	vcvt.f32.f64	s14, d7
    2870:	eeb0 7ac7 	vabs.f32	s14, s14
    2874:	eeb7 7ac7 	vcvt.f64.f32	d7, s14
    2878:	eeb4 7bc5 	vcmpe.f64	d7, d5
    287c:	eef1 fa10 	vmrs	APSR_nzcv, fpscr
    2880:	f240 80fd 	bls.w	2a7e <SX126x::setRxBandwidth(float)+0x32e>
  } else if(fabsf(rxBw - 14.6) <= 0.001) {
    2884:	ed9f 7b9e 	vldr	d7, [pc, #632]	; 2b00 <SX126x::setRxBandwidth(float)+0x3b0>
    2888:	ee36 7b47 	vsub.f64	d7, d6, d7
    288c:	eeb7 7bc7 	vcvt.f32.f64	s14, d7
    2890:	eeb0 7ac7 	vabs.f32	s14, s14
    2894:	eeb7 7ac7 	vcvt.f64.f32	d7, s14
    2898:	eeb4 7bc5 	vcmpe.f64	d7, d5
    289c:	eef1 fa10 	vmrs	APSR_nzcv, fpscr
    28a0:	f240 80ef 	bls.w	2a82 <SX126x::setRxBandwidth(float)+0x332>
  } else if(fabsf(rxBw - 19.5) <= 0.001) {
    28a4:	ed9f 7aae 	vldr	s14, [pc, #696]	; 2b60 <SX126x::setRxBandwidth(float)+0x410>
    28a8:	ee38 7a47 	vsub.f32	s14, s16, s14
    28ac:	eeb0 7ac7 	vabs.f32	s14, s14
    28b0:	eeb7 7ac7 	vcvt.f64.f32	d7, s14
    28b4:	eeb4 7bc5 	vcmpe.f64	d7, d5
    28b8:	eef1 fa10 	vmrs	APSR_nzcv, fpscr
    28bc:	f240 80e6 	bls.w	2a8c <SX126x::setRxBandwidth(float)+0x33c>
  } else if(fabsf(rxBw - 23.4) <= 0.001) {
    28c0:	ed9f 7b91 	vldr	d7, [pc, #580]	; 2b08 <SX126x::setRxBandwidth(float)+0x3b8>
    28c4:	ee36 7b47 	vsub.f64	d7, d6, d7
    28c8:	eeb7 7bc7 	vcvt.f32.f64	s14, d7
    28cc:	eeb0 7ac7 	vabs.f32	s14, s14
    28d0:	eeb7 7ac7 	vcvt.f64.f32	d7, s14
    28d4:	eeb4 7bc5 	vcmpe.f64	d7, d5
    28d8:	eef1 fa10 	vmrs	APSR_nzcv, fpscr
    28dc:	f240 80d8 	bls.w	2a90 <SX126x::setRxBandwidth(float)+0x340>
  } else if(fabsf(rxBw - 29.3) <= 0.001) {
    28e0:	ed9f 7b8b 	vldr	d7, [pc, #556]	; 2b10 <SX126x::setRxBandwidth(float)+0x3c0>
    28e4:	ee36 7b47 	vsub.f64	d7, d6, d7
    28e8:	eeb7 7bc7 	vcvt.f32.f64	s14, d7
    28ec:	eeb0 7ac7 	vabs.f32	s14, s14
    28f0:	eeb7 7ac7 	vcvt.f64.f32	d7, s14
    28f4:	eeb4 7bc5 	vcmpe.f64	d7, d5
    28f8:	eef1 fa10 	vmrs	APSR_nzcv, fpscr
    28fc:	f240 80ca 	bls.w	2a94 <SX126x::setRxBandwidth(float)+0x344>
  } else if(fabsf(rxBw - 39.0) <= 0.001) {
    2900:	ed9f 5a98 	vldr	s10, [pc, #608]	; 2b64 <SX126x::setRxBandwidth(float)+0x414>
    2904:	ee38 5a45 	vsub.f32	s10, s16, s10
    2908:	ed9f 7b73 	vldr	d7, [pc, #460]	; 2ad8 <SX126x::setRxBandwidth(float)+0x388>
    290c:	eeb0 5ac5 	vabs.f32	s10, s10
    2910:	eeb7 5ac5 	vcvt.f64.f32	d5, s10
    2914:	eeb4 5bc7 	vcmpe.f64	d5, d7
    2918:	eef1 fa10 	vmrs	APSR_nzcv, fpscr
    291c:	f240 80bc 	bls.w	2a98 <SX126x::setRxBandwidth(float)+0x348>
  } else if(fabsf(rxBw - 46.9) <= 0.001) {
    2920:	ed9f 5b7d 	vldr	d5, [pc, #500]	; 2b18 <SX126x::setRxBandwidth(float)+0x3c8>
    2924:	ee36 5b45 	vsub.f64	d5, d6, d5
    2928:	eeb7 5bc5 	vcvt.f32.f64	s10, d5
    292c:	eeb0 5ac5 	vabs.f32	s10, s10
    2930:	eeb7 5ac5 	vcvt.f64.f32	d5, s10
    2934:	eeb4 5bc7 	vcmpe.f64	d5, d7
    2938:	eef1 fa10 	vmrs	APSR_nzcv, fpscr
    293c:	f240 80ae 	bls.w	2a9c <SX126x::setRxBandwidth(float)+0x34c>
  } else if(fabsf(rxBw - 58.6) <= 0.001) {
    2940:	ed9f 5b77 	vldr	d5, [pc, #476]	; 2b20 <SX126x::setRxBandwidth(float)+0x3d0>
    2944:	ee36 5b45 	vsub.f64	d5, d6, d5
    2948:	eeb7 5bc5 	vcvt.f32.f64	s10, d5
    294c:	eeb0 5ac5 	vabs.f32	s10, s10
    2950:	eeb7 5ac5 	vcvt.f64.f32	d5, s10
    2954:	eeb4 5bc7 	vcmpe.f64	d5, d7
    2958:	eef1 fa10 	vmrs	APSR_nzcv, fpscr
    295c:	f240 80a0 	bls.w	2aa0 <SX126x::setRxBandwidth(float)+0x350>
  } else if(fabsf(rxBw - 78.2) <= 0.001) {
    2960:	ed9f 5b71 	vldr	d5, [pc, #452]	; 2b28 <SX126x::setRxBandwidth(float)+0x3d8>
    2964:	ee36 5b45 	vsub.f64	d5, d6, d5
    2968:	eeb7 5bc5 	vcvt.f32.f64	s10, d5
    296c:	eeb0 5ac5 	vabs.f32	s10, s10
    2970:	eeb7 5ac5 	vcvt.f64.f32	d5, s10
    2974:	eeb4 5bc7 	vcmpe.f64	d5, d7
    2978:	eef1 fa10 	vmrs	APSR_nzcv, fpscr
    297c:	f240 8092 	bls.w	2aa4 <SX126x::setRxBandwidth(float)+0x354>
  } else if(fabsf(rxBw - 93.8) <= 0.001) {
    2980:	ed9f 5b6b 	vldr	d5, [pc, #428]	; 2b30 <SX126x::setRxBandwidth(float)+0x3e0>
    2984:	ee36 5b45 	vsub.f64	d5, d6, d5
    2988:	eeb7 5bc5 	vcvt.f32.f64	s10, d5
    298c:	eeb0 5ac5 	vabs.f32	s10, s10
    2990:	eeb7 5ac5 	vcvt.f64.f32	d5, s10
    2994:	eeb4 5bc7 	vcmpe.f64	d5, d7
    2998:	eef1 fa10 	vmrs	APSR_nzcv, fpscr
    299c:	f240 8084 	bls.w	2aa8 <SX126x::setRxBandwidth(float)+0x358>
  } else if(fabsf(rxBw - 117.3) <= 0.001) {
    29a0:	ed9f 5b65 	vldr	d5, [pc, #404]	; 2b38 <SX126x::setRxBandwidth(float)+0x3e8>
    29a4:	ee36 5b45 	vsub.f64	d5, d6, d5
    29a8:	eeb7 5bc5 	vcvt.f32.f64	s10, d5
    29ac:	eeb0 5ac5 	vabs.f32	s10, s10
    29b0:	eeb7 5ac5 	vcvt.f64.f32	d5, s10
    29b4:	eeb4 5bc7 	vcmpe.f64	d5, d7
    29b8:	eef1 fa10 	vmrs	APSR_nzcv, fpscr
    29bc:	d976      	bls.n	2aac <SX126x::setRxBandwidth(float)+0x35c>
  } else if(fabsf(rxBw - 156.2) <= 0.001) {
    29be:	ed9f 5b60 	vldr	d5, [pc, #384]	; 2b40 <SX126x::setRxBandwidth(float)+0x3f0>
    29c2:	ee36 5b45 	vsub.f64	d5, d6, d5
    29c6:	eeb7 5bc5 	vcvt.f32.f64	s10, d5
    29ca:	eeb0 5ac5 	vabs.f32	s10, s10
    29ce:	eeb7 5ac5 	vcvt.f64.f32	d5, s10
    29d2:	eeb4 5bc7 	vcmpe.f64	d5, d7
    29d6:	eef1 fa10 	vmrs	APSR_nzcv, fpscr
    29da:	d96b      	bls.n	2ab4 <SX126x::setRxBandwidth(float)+0x364>
  } else if(fabsf(rxBw - 187.2) <= 0.001) {
    29dc:	ed9f 5b5a 	vldr	d5, [pc, #360]	; 2b48 <SX126x::setRxBandwidth(float)+0x3f8>
    29e0:	ee36 5b45 	vsub.f64	d5, d6, d5
    29e4:	eeb7 5bc5 	vcvt.f32.f64	s10, d5
    29e8:	eeb0 5ac5 	vabs.f32	s10, s10
    29ec:	eeb7 5ac5 	vcvt.f64.f32	d5, s10
    29f0:	eeb4 5bc7 	vcmpe.f64	d5, d7
    29f4:	eef1 fa10 	vmrs	APSR_nzcv, fpscr
    29f8:	d95a      	bls.n	2ab0 <SX126x::setRxBandwidth(float)+0x360>
  } else if(fabsf(rxBw - 234.3) <= 0.001) {
    29fa:	ed9f 5b55 	vldr	d5, [pc, #340]	; 2b50 <SX126x::setRxBandwidth(float)+0x400>
    29fe:	ee36 5b45 	vsub.f64	d5, d6, d5
    2a02:	eeb7 5bc5 	vcvt.f32.f64	s10, d5
    2a06:	eeb0 5ac5 	vabs.f32	s10, s10
    2a0a:	eeb7 5ac5 	vcvt.f64.f32	d5, s10
    2a0e:	eeb4 5bc7 	vcmpe.f64	d5, d7
    2a12:	eef1 fa10 	vmrs	APSR_nzcv, fpscr
    2a16:	d956      	bls.n	2ac6 <SX126x::setRxBandwidth(float)+0x376>
  } else if(fabsf(rxBw - 312.0) <= 0.001) {
    2a18:	ed9f 5a53 	vldr	s10, [pc, #332]	; 2b68 <SX126x::setRxBandwidth(float)+0x418>
    2a1c:	ee38 5a45 	vsub.f32	s10, s16, s10
    2a20:	eeb0 5ac5 	vabs.f32	s10, s10
    2a24:	eeb7 5ac5 	vcvt.f64.f32	d5, s10
    2a28:	eeb4 5bc7 	vcmpe.f64	d5, d7
    2a2c:	eef1 fa10 	vmrs	APSR_nzcv, fpscr
    2a30:	d947      	bls.n	2ac2 <SX126x::setRxBandwidth(float)+0x372>
  } else if(fabsf(rxBw - 373.6) <= 0.001) {
    2a32:	ed9f 7b49 	vldr	d7, [pc, #292]	; 2b58 <SX126x::setRxBandwidth(float)+0x408>
    2a36:	ed9f 5b28 	vldr	d5, [pc, #160]	; 2ad8 <SX126x::setRxBandwidth(float)+0x388>
    2a3a:	ee36 7b47 	vsub.f64	d7, d6, d7
    2a3e:	eeb7 7bc7 	vcvt.f32.f64	s14, d7
    2a42:	eeb0 7ac7 	vabs.f32	s14, s14
    2a46:	eeb7 7ac7 	vcvt.f64.f32	d7, s14
    2a4a:	eeb4 7bc5 	vcmpe.f64	d7, d5
    2a4e:	eef1 fa10 	vmrs	APSR_nzcv, fpscr
    2a52:	d934      	bls.n	2abe <SX126x::setRxBandwidth(float)+0x36e>
  } else if(fabsf(rxBw - 467.0) <= 0.001) {
    2a54:	eddf 7a45 	vldr	s15, [pc, #276]	; 2b6c <SX126x::setRxBandwidth(float)+0x41c>
    2a58:	ee38 0a67 	vsub.f32	s0, s16, s15
    2a5c:	eeb0 0ac0 	vabs.f32	s0, s0
    2a60:	eeb7 0ac0 	vcvt.f64.f32	d0, s0
    2a64:	eeb4 0bc5 	vcmpe.f64	d0, d5
    2a68:	eef1 fa10 	vmrs	APSR_nzcv, fpscr
    2a6c:	d824      	bhi.n	2ab8 <SX126x::setRxBandwidth(float)+0x368>
    2a6e:	2309      	movs	r3, #9
    2a70:	e69c      	b.n	27ac <SX126x::setRxBandwidth(float)+0x5c>
    2a72:	2317      	movs	r3, #23
    2a74:	e69a      	b.n	27ac <SX126x::setRxBandwidth(float)+0x5c>
    2a76:	230f      	movs	r3, #15
    2a78:	e698      	b.n	27ac <SX126x::setRxBandwidth(float)+0x5c>
    2a7a:	231e      	movs	r3, #30
    2a7c:	e696      	b.n	27ac <SX126x::setRxBandwidth(float)+0x5c>
    2a7e:	2316      	movs	r3, #22
    2a80:	e694      	b.n	27ac <SX126x::setRxBandwidth(float)+0x5c>
    2a82:	230e      	movs	r3, #14
    2a84:	e692      	b.n	27ac <SX126x::setRxBandwidth(float)+0x5c>
    return(RADIOLIB_ERR_WRONG_MODEM);
    2a86:	f06f 0013 	mvn.w	r0, #19
    2a8a:	e6b7      	b.n	27fc <SX126x::setRxBandwidth(float)+0xac>
    2a8c:	231d      	movs	r3, #29
    2a8e:	e68d      	b.n	27ac <SX126x::setRxBandwidth(float)+0x5c>
    2a90:	2315      	movs	r3, #21
    2a92:	e68b      	b.n	27ac <SX126x::setRxBandwidth(float)+0x5c>
    2a94:	230d      	movs	r3, #13
    2a96:	e689      	b.n	27ac <SX126x::setRxBandwidth(float)+0x5c>
    2a98:	231c      	movs	r3, #28
    2a9a:	e687      	b.n	27ac <SX126x::setRxBandwidth(float)+0x5c>
    2a9c:	2314      	movs	r3, #20
    2a9e:	e685      	b.n	27ac <SX126x::setRxBandwidth(float)+0x5c>
    2aa0:	230c      	movs	r3, #12
    2aa2:	e683      	b.n	27ac <SX126x::setRxBandwidth(float)+0x5c>
    2aa4:	231b      	movs	r3, #27
    2aa6:	e681      	b.n	27ac <SX126x::setRxBandwidth(float)+0x5c>
    2aa8:	2313      	movs	r3, #19
    2aaa:	e67f      	b.n	27ac <SX126x::setRxBandwidth(float)+0x5c>
    2aac:	230b      	movs	r3, #11
    2aae:	e67d      	b.n	27ac <SX126x::setRxBandwidth(float)+0x5c>
    2ab0:	2312      	movs	r3, #18
    2ab2:	e67b      	b.n	27ac <SX126x::setRxBandwidth(float)+0x5c>
    2ab4:	231a      	movs	r3, #26
    2ab6:	e679      	b.n	27ac <SX126x::setRxBandwidth(float)+0x5c>
    return(RADIOLIB_ERR_INVALID_RX_BANDWIDTH);
    2ab8:	f06f 0067 	mvn.w	r0, #103	; 0x67
    2abc:	e69e      	b.n	27fc <SX126x::setRxBandwidth(float)+0xac>
    2abe:	2311      	movs	r3, #17
    2ac0:	e674      	b.n	27ac <SX126x::setRxBandwidth(float)+0x5c>
    2ac2:	2319      	movs	r3, #25
    2ac4:	e672      	b.n	27ac <SX126x::setRxBandwidth(float)+0x5c>
    2ac6:	230a      	movs	r3, #10
    2ac8:	e670      	b.n	27ac <SX126x::setRxBandwidth(float)+0x5c>
    2aca:	bf00      	nop
    2acc:	f3af 8000 	nop.w
    2ad0:	33333333 	.word	0x33333333
    2ad4:	40133333 	.word	0x40133333
    2ad8:	d2f1a9fc 	.word	0xd2f1a9fc
    2adc:	3f50624d 	.word	0x3f50624d
    2ae0:	33333333 	.word	0x33333333
    2ae4:	40173333 	.word	0x40173333
    2ae8:	33333333 	.word	0x33333333
    2aec:	401d3333 	.word	0x401d3333
    2af0:	66666666 	.word	0x66666666
    2af4:	40236666 	.word	0x40236666
    2af8:	66666666 	.word	0x66666666
    2afc:	40276666 	.word	0x40276666
    2b00:	33333333 	.word	0x33333333
    2b04:	402d3333 	.word	0x402d3333
    2b08:	66666666 	.word	0x66666666
    2b0c:	40376666 	.word	0x40376666
    2b10:	cccccccd 	.word	0xcccccccd
    2b14:	403d4ccc 	.word	0x403d4ccc
    2b18:	33333333 	.word	0x33333333
    2b1c:	40477333 	.word	0x40477333
    2b20:	cccccccd 	.word	0xcccccccd
    2b24:	404d4ccc 	.word	0x404d4ccc
    2b28:	cccccccd 	.word	0xcccccccd
    2b2c:	40538ccc 	.word	0x40538ccc
    2b30:	33333333 	.word	0x33333333
    2b34:	40577333 	.word	0x40577333
    2b38:	33333333 	.word	0x33333333
    2b3c:	405d5333 	.word	0x405d5333
    2b40:	66666666 	.word	0x66666666
    2b44:	40638666 	.word	0x40638666
    2b48:	66666666 	.word	0x66666666
    2b4c:	40676666 	.word	0x40676666
    2b50:	9999999a 	.word	0x9999999a
    2b54:	406d4999 	.word	0x406d4999
    2b58:	9999999a 	.word	0x9999999a
    2b5c:	40775999 	.word	0x40775999
    2b60:	419c0000 	.word	0x419c0000
    2b64:	421c0000 	.word	0x421c0000
    2b68:	439c0000 	.word	0x439c0000
    2b6c:	43e98000 	.word	0x43e98000

00002b70 <SX126x::setWhitening(bool, unsigned short)>:
int16_t SX126x::setWhitening(bool enabled, uint16_t initial) {
    2b70:	e92d 41f0 	stmdb	sp!, {r4, r5, r6, r7, r8, lr}
  this->mod->SPIreadStream(RADIOLIB_SX126X_CMD_GET_PACKET_TYPE, &data, 1);
    2b74:	2501      	movs	r5, #1
int16_t SX126x::setWhitening(bool enabled, uint16_t initial) {
    2b76:	b086      	sub	sp, #24
  uint8_t data = 0xFF;
    2b78:	f04f 08ff 	mov.w	r8, #255	; 0xff
int16_t SX126x::setWhitening(bool enabled, uint16_t initial) {
    2b7c:	4604      	mov	r4, r0
  this->mod->SPIreadStream(RADIOLIB_SX126X_CMD_GET_PACKET_TYPE, &data, 1);
    2b7e:	462b      	mov	r3, r5
int16_t SX126x::setWhitening(bool enabled, uint16_t initial) {
    2b80:	460e      	mov	r6, r1
    2b82:	4617      	mov	r7, r2
  this->mod->SPIreadStream(RADIOLIB_SX126X_CMD_GET_PACKET_TYPE, &data, 1);
    2b84:	2111      	movs	r1, #17
    2b86:	aa03      	add	r2, sp, #12
  uint8_t data = 0xFF;
    2b88:	f88d 800c 	strb.w	r8, [sp, #12]
  this->mod->SPIreadStream(RADIOLIB_SX126X_CMD_GET_PACKET_TYPE, &data, 1);
    2b8c:	e9cd 5500 	strd	r5, r5, [sp]
    2b90:	f8d0 015c 	ldr.w	r0, [r0, #348]	; 0x15c
    2b94:	f7fe f80a 	bl	bac <Module::SPIreadStream(unsigned short, unsigned char*, unsigned int, bool, bool)>
  return(data);
    2b98:	f89d 300c 	ldrb.w	r3, [sp, #12]
  if(getPacketType() != RADIOLIB_SX126X_PACKET_TYPE_GFSK) {
    2b9c:	2b00      	cmp	r3, #0
    2b9e:	d17a      	bne.n	2c96 <SX126x::setWhitening(bool, unsigned short)+0x126>
  if(!enabled) {
    2ba0:	2e00      	cmp	r6, #0
    2ba2:	d04d      	beq.n	2c40 <SX126x::setWhitening(bool, unsigned short)+0xd0>
  this->mod->SPIreadRegisterBurst(addr, numBytes, data);
    2ba4:	462a      	mov	r2, r5
    2ba6:	f44f 61d7 	mov.w	r1, #1720	; 0x6b8
    2baa:	ab02      	add	r3, sp, #8
    2bac:	f8d4 015c 	ldr.w	r0, [r4, #348]	; 0x15c
    this->whitening = RADIOLIB_SX126X_GFSK_WHITENING_ON;
    2bb0:	f884 517d 	strb.w	r5, [r4, #381]	; 0x17d
  this->mod->SPIreadRegisterBurst(addr, numBytes, data);
    2bb4:	f7fd fdc6 	bl	744 <Module::SPIreadRegisterBurst(unsigned long, unsigned int, unsigned char*)>
  int16_t state = this->mod->SPIcheckStream();
    2bb8:	f8d4 015c 	ldr.w	r0, [r4, #348]	; 0x15c
    2bbc:	f7fd ffb6 	bl	b2c <Module::SPIcheckStream()>
    RADIOLIB_ASSERT(state);
    2bc0:	4606      	mov	r6, r0
    2bc2:	bbc8      	cbnz	r0, 2c38 <SX126x::setWhitening(bool, unsigned short)+0xc8>
    data[0] = (data[0] & 0xFE) | (uint8_t)((initial >> 8) & 0x01);
    2bc4:	f89d 3008 	ldrb.w	r3, [sp, #8]
  this->mod->SPIwriteRegisterBurst(addr, data, numBytes);
    2bc8:	aa02      	add	r2, sp, #8
    data[1] = (uint8_t)(initial & 0xFF);
    2bca:	f88d 7009 	strb.w	r7, [sp, #9]
    data[0] = (data[0] & 0xFE) | (uint8_t)((initial >> 8) & 0x01);
    2bce:	f3c7 2700 	ubfx	r7, r7, #8, #1
    2bd2:	f023 0301 	bic.w	r3, r3, #1
  this->mod->SPIwriteRegisterBurst(addr, data, numBytes);
    2bd6:	f8d4 015c 	ldr.w	r0, [r4, #348]	; 0x15c
    2bda:	f44f 61d7 	mov.w	r1, #1720	; 0x6b8
    data[0] = (data[0] & 0xFE) | (uint8_t)((initial >> 8) & 0x01);
    2bde:	433b      	orrs	r3, r7
    2be0:	f88d 3008 	strb.w	r3, [sp, #8]
  this->mod->SPIwriteRegisterBurst(addr, data, numBytes);
    2be4:	2302      	movs	r3, #2
    2be6:	f7fd fe5f 	bl	8a8 <Module::SPIwriteRegisterBurst(unsigned long, unsigned char*, unsigned int)>
  return(this->mod->SPIwriteStream(RADIOLIB_SX126X_CMD_SET_PACKET_PARAMS, data, 9));
    2bea:	2309      	movs	r3, #9
    2bec:	aa03      	add	r2, sp, #12
    2bee:	218c      	movs	r1, #140	; 0x8c
                     packType, payloadLen, crcType, whiten};
    2bf0:	f88d 6010 	strb.w	r6, [sp, #16]
    2bf4:	f88d 8012 	strb.w	r8, [sp, #18]
  return(this->mod->SPIwriteStream(RADIOLIB_SX126X_CMD_SET_PACKET_PARAMS, data, 9));
    2bf8:	e9cd 5500 	strd	r5, r5, [sp]
                     packType, payloadLen, crcType, whiten};
    2bfc:	f8b4 5180 	ldrh.w	r5, [r4, #384]	; 0x180
  return(this->mod->SPIwriteStream(RADIOLIB_SX126X_CMD_SET_PACKET_PARAMS, data, 9));
    2c00:	f8d4 015c 	ldr.w	r0, [r4, #348]	; 0x15c
                     packType, payloadLen, crcType, whiten};
    2c04:	ba6d      	rev16	r5, r5
    2c06:	f8ad 500c 	strh.w	r5, [sp, #12]
    state = setPacketParamsFSK(this->preambleLengthFSK, this->preambleDetLength, this->crcTypeFSK, this->syncWordLength, RADIOLIB_SX126X_GFSK_ADDRESS_FILT_OFF, this->whitening, this->packetType);
    2c0a:	f894 5178 	ldrb.w	r5, [r4, #376]	; 0x178
                     packType, payloadLen, crcType, whiten};
    2c0e:	f88d 500e 	strb.w	r5, [sp, #14]
    state = setPacketParamsFSK(this->preambleLengthFSK, this->preambleDetLength, this->crcTypeFSK, this->syncWordLength, RADIOLIB_SX126X_GFSK_ADDRESS_FILT_OFF, this->whitening, this->packetType);
    2c12:	f894 517b 	ldrb.w	r5, [r4, #379]	; 0x17b
                     packType, payloadLen, crcType, whiten};
    2c16:	f88d 5013 	strb.w	r5, [sp, #19]
    state = setPacketParamsFSK(this->preambleLengthFSK, this->preambleDetLength, this->crcTypeFSK, this->syncWordLength, RADIOLIB_SX126X_GFSK_ADDRESS_FILT_OFF, this->whitening, this->packetType);
    2c1a:	f894 517c 	ldrb.w	r5, [r4, #380]	; 0x17c
                     packType, payloadLen, crcType, whiten};
    2c1e:	f88d 500f 	strb.w	r5, [sp, #15]
    state = setPacketParamsFSK(this->preambleLengthFSK, this->preambleDetLength, this->crcTypeFSK, this->syncWordLength, RADIOLIB_SX126X_GFSK_ADDRESS_FILT_OFF, this->whitening, this->packetType);
    2c22:	f894 517d 	ldrb.w	r5, [r4, #381]	; 0x17d
    2c26:	f894 417e 	ldrb.w	r4, [r4, #382]	; 0x17e
                     packType, payloadLen, crcType, whiten};
    2c2a:	f88d 5014 	strb.w	r5, [sp, #20]
    2c2e:	f88d 4011 	strb.w	r4, [sp, #17]
  return(this->mod->SPIwriteStream(RADIOLIB_SX126X_CMD_SET_PACKET_PARAMS, data, 9));
    2c32:	f7fd fffd 	bl	c30 <Module::SPIwriteStream(unsigned short, unsigned char*, unsigned int, bool, bool)>
    2c36:	4606      	mov	r6, r0
}
    2c38:	4630      	mov	r0, r6
    2c3a:	b006      	add	sp, #24
    2c3c:	e8bd 81f0 	ldmia.w	sp!, {r4, r5, r6, r7, r8, pc}
    this->whitening = RADIOLIB_SX126X_GFSK_WHITENING_OFF;
    2c40:	f884 617d 	strb.w	r6, [r4, #381]	; 0x17d
  return(this->mod->SPIwriteStream(RADIOLIB_SX126X_CMD_SET_PACKET_PARAMS, data, 9));
    2c44:	2309      	movs	r3, #9
    2c46:	aa03      	add	r2, sp, #12
    2c48:	218c      	movs	r1, #140	; 0x8c
                     packType, payloadLen, crcType, whiten};
    2c4a:	f88d 6010 	strb.w	r6, [sp, #16]
    2c4e:	f88d 6014 	strb.w	r6, [sp, #20]
    2c52:	f88d 8012 	strb.w	r8, [sp, #18]
  return(this->mod->SPIwriteStream(RADIOLIB_SX126X_CMD_SET_PACKET_PARAMS, data, 9));
    2c56:	e9cd 5500 	strd	r5, r5, [sp]
                     packType, payloadLen, crcType, whiten};
    2c5a:	f8b4 5180 	ldrh.w	r5, [r4, #384]	; 0x180
  return(this->mod->SPIwriteStream(RADIOLIB_SX126X_CMD_SET_PACKET_PARAMS, data, 9));
    2c5e:	f8d4 015c 	ldr.w	r0, [r4, #348]	; 0x15c
                     packType, payloadLen, crcType, whiten};
    2c62:	ba6d      	rev16	r5, r5
    2c64:	f8ad 500c 	strh.w	r5, [sp, #12]
    state = setPacketParamsFSK(this->preambleLengthFSK, this->preambleDetLength, this->crcTypeFSK, this->syncWordLength, RADIOLIB_SX126X_GFSK_ADDRESS_FILT_OFF, this->whitening, this->packetType);
    2c68:	f894 5178 	ldrb.w	r5, [r4, #376]	; 0x178
                     packType, payloadLen, crcType, whiten};
    2c6c:	f88d 500e 	strb.w	r5, [sp, #14]
    state = setPacketParamsFSK(this->preambleLengthFSK, this->preambleDetLength, this->crcTypeFSK, this->syncWordLength, RADIOLIB_SX126X_GFSK_ADDRESS_FILT_OFF, this->whitening, this->packetType);
    2c70:	f894 517b 	ldrb.w	r5, [r4, #379]	; 0x17b
                     packType, payloadLen, crcType, whiten};
    2c74:	f88d 5013 	strb.w	r5, [sp, #19]
    state = setPacketParamsFSK(this->preambleLengthFSK, this->preambleDetLength, this->crcTypeFSK, this->syncWordLength, RADIOLIB_SX126X_GFSK_ADDRESS_FILT_OFF, this->whitening, this->packetType);
    2c78:	f894 517c 	ldrb.w	r5, [r4, #380]	; 0x17c
    2c7c:	f894 417e 	ldrb.w	r4, [r4, #382]	; 0x17e
                     packType, payloadLen, crcType, whiten};
    2c80:	f88d 500f 	strb.w	r5, [sp, #15]
    2c84:	f88d 4011 	strb.w	r4, [sp, #17]
  return(this->mod->SPIwriteStream(RADIOLIB_SX126X_CMD_SET_PACKET_PARAMS, data, 9));
    2c88:	f7fd ffd2 	bl	c30 <Module::SPIwriteStream(unsigned short, unsigned char*, unsigned int, bool, bool)>
    2c8c:	4606      	mov	r6, r0
}
    2c8e:	4630      	mov	r0, r6
    2c90:	b006      	add	sp, #24
    2c92:	e8bd 81f0 	ldmia.w	sp!, {r4, r5, r6, r7, r8, pc}
    return(RADIOLIB_ERR_WRONG_MODEM);
    2c96:	f06f 0613 	mvn.w	r6, #19
    2c9a:	e7cd      	b.n	2c38 <SX126x::setWhitening(bool, unsigned short)+0xc8>

00002c9c <SX126x::setEncoding(unsigned char)>:
  return(setWhitening(encoding));
    2c9c:	3900      	subs	r1, #0
    2c9e:	f240 12ff 	movw	r2, #511	; 0x1ff
    2ca2:	bf18      	it	ne
    2ca4:	2101      	movne	r1, #1
    2ca6:	f7ff bf63 	b.w	2b70 <SX126x::setWhitening(bool, unsigned short)>
    2caa:	bf00      	nop

00002cac <SX126x::setRfSwitchPins(unsigned long, unsigned long)>:
  this->mod->setRfSwitchPins(rxEn, txEn);
    2cac:	f8d0 015c 	ldr.w	r0, [r0, #348]	; 0x15c
    2cb0:	f7fe b81c 	b.w	cec <Module::setRfSwitchPins(unsigned long, unsigned long)>
    2cb4:	0000      	movs	r0, r0
	...

00002cb8 <SX126x::setTCXO(float, unsigned long)>:
int16_t SX126x::setTCXO(float voltage, uint32_t delay) {
    2cb8:	b5f0      	push	{r4, r5, r6, r7, lr}
  if(this->XTAL) {
    2cba:	f890 7149 	ldrb.w	r7, [r0, #329]	; 0x149
int16_t SX126x::setTCXO(float voltage, uint32_t delay) {
    2cbe:	ed2d 8b02 	vpush	{d8}
    2cc2:	b085      	sub	sp, #20
  if(this->XTAL) {
    2cc4:	2f00      	cmp	r7, #0
    2cc6:	f040 80e3 	bne.w	2e90 <SX126x::setTCXO(float, unsigned long)+0x1d8>
  standby();
    2cca:	6803      	ldr	r3, [r0, #0]
    2ccc:	4604      	mov	r4, r0
  this->mod->SPIreadStream(RADIOLIB_SX126X_CMD_GET_DEVICE_ERRORS, data, 2);
    2cce:	2601      	movs	r6, #1
    2cd0:	eeb0 8a40 	vmov.f32	s16, s0
  standby();
    2cd4:	689b      	ldr	r3, [r3, #8]
    2cd6:	460d      	mov	r5, r1
    2cd8:	4798      	blx	r3
  this->mod->SPIreadStream(RADIOLIB_SX126X_CMD_GET_DEVICE_ERRORS, data, 2);
    2cda:	2302      	movs	r3, #2
    2cdc:	aa03      	add	r2, sp, #12
    2cde:	2117      	movs	r1, #23
  uint8_t data[2] = {0, 0};
    2ce0:	f8ad 700c 	strh.w	r7, [sp, #12]
  this->mod->SPIreadStream(RADIOLIB_SX126X_CMD_GET_DEVICE_ERRORS, data, 2);
    2ce4:	e9cd 6600 	strd	r6, r6, [sp]
    2ce8:	f8d4 015c 	ldr.w	r0, [r4, #348]	; 0x15c
    2cec:	f7fd ff5e 	bl	bac <Module::SPIreadStream(unsigned short, unsigned char*, unsigned int, bool, bool)>
  uint16_t opError = (((uint16_t)data[0] & 0xFF) << 8) | ((uint16_t)data[1]);
    2cf0:	f8bd 300c 	ldrh.w	r3, [sp, #12]
    2cf4:	ba5b      	rev16	r3, r3
  if(getDeviceErrors() & RADIOLIB_SX126X_XOSC_START_ERR) {
    2cf6:	069b      	lsls	r3, r3, #26
    2cf8:	f100 80b6 	bmi.w	2e68 <SX126x::setTCXO(float, unsigned long)+0x1b0>
  if(fabsf(voltage - 0.0) <= 0.001) {
    2cfc:	eeb0 7ac8 	vabs.f32	s14, s16
    2d00:	ed9f 6b67 	vldr	d6, [pc, #412]	; 2ea0 <SX126x::setTCXO(float, unsigned long)+0x1e8>
    2d04:	eeb7 7ac7 	vcvt.f64.f32	d7, s14
    2d08:	eeb4 7bc6 	vcmpe.f64	d7, d6
    2d0c:	eef1 fa10 	vmrs	APSR_nzcv, fpscr
    2d10:	f240 80a1 	bls.w	2e56 <SX126x::setTCXO(float, unsigned long)+0x19e>
  if(fabsf(voltage - 1.6) <= 0.001) {
    2d14:	eeb7 5ac8 	vcvt.f64.f32	d5, s16
    2d18:	ed9f 7b63 	vldr	d7, [pc, #396]	; 2ea8 <SX126x::setTCXO(float, unsigned long)+0x1f0>
    2d1c:	ee35 7b47 	vsub.f64	d7, d5, d7
    2d20:	eeb7 7bc7 	vcvt.f32.f64	s14, d7
    2d24:	eeb0 7ac7 	vabs.f32	s14, s14
    2d28:	eeb7 7ac7 	vcvt.f64.f32	d7, s14
    2d2c:	eeb4 7bc6 	vcmpe.f64	d7, d6
    2d30:	eef1 fa10 	vmrs	APSR_nzcv, fpscr
    2d34:	d826      	bhi.n	2d84 <SX126x::setTCXO(float, unsigned long)+0xcc>
    2d36:	2600      	movs	r6, #0
  uint32_t delayValue = (float)delay / 15.625;
    2d38:	ee07 5a90 	vmov	s15, r5
  this->tcxoDelay = delay;
    2d3c:	f8c4 518c 	str.w	r5, [r4, #396]	; 0x18c
  return(this->mod->SPIwriteStream(RADIOLIB_SX126X_CMD_SET_DIO3_AS_TCXO_CTRL, data, 4));
    2d40:	f8d4 015c 	ldr.w	r0, [r4, #348]	; 0x15c
    2d44:	2101      	movs	r1, #1
  uint32_t delayValue = (float)delay / 15.625;
    2d46:	eeb8 6a67 	vcvt.f32.u32	s12, s15
  return(this->mod->SPIwriteStream(RADIOLIB_SX126X_CMD_SET_DIO3_AS_TCXO_CTRL, data, 4));
    2d4a:	2304      	movs	r3, #4
    2d4c:	aa03      	add	r2, sp, #12
    data[0] = RADIOLIB_SX126X_DIO3_OUTPUT_1_6;
    2d4e:	f88d 600c 	strb.w	r6, [sp, #12]
  uint32_t delayValue = (float)delay / 15.625;
    2d52:	ed9f 5b57 	vldr	d5, [pc, #348]	; 2eb0 <SX126x::setTCXO(float, unsigned long)+0x1f8>
    2d56:	eeb7 6ac6 	vcvt.f64.f32	d6, s12
  return(this->mod->SPIwriteStream(RADIOLIB_SX126X_CMD_SET_DIO3_AS_TCXO_CTRL, data, 4));
    2d5a:	e9cd 1100 	strd	r1, r1, [sp]
  uint32_t delayValue = (float)delay / 15.625;
    2d5e:	ee86 7b05 	vdiv.f64	d7, d6, d5
  return(this->mod->SPIwriteStream(RADIOLIB_SX126X_CMD_SET_DIO3_AS_TCXO_CTRL, data, 4));
    2d62:	2197      	movs	r1, #151	; 0x97
  uint32_t delayValue = (float)delay / 15.625;
    2d64:	eefc 7bc7 	vcvt.u32.f64	s15, d7
    2d68:	ee17 4a90 	vmov	r4, s15
  data[1] = (uint8_t)((delayValue >> 16) & 0xFF);
    2d6c:	0c25      	lsrs	r5, r4, #16
  data[2] = (uint8_t)((delayValue >> 8) & 0xFF);
    2d6e:	ba64      	rev16	r4, r4
  data[1] = (uint8_t)((delayValue >> 16) & 0xFF);
    2d70:	f88d 500d 	strb.w	r5, [sp, #13]
  data[2] = (uint8_t)((delayValue >> 8) & 0xFF);
    2d74:	f8ad 400e 	strh.w	r4, [sp, #14]
  return(this->mod->SPIwriteStream(RADIOLIB_SX126X_CMD_SET_DIO3_AS_TCXO_CTRL, data, 4));
    2d78:	f7fd ff5a 	bl	c30 <Module::SPIwriteStream(unsigned short, unsigned char*, unsigned int, bool, bool)>
}
    2d7c:	b005      	add	sp, #20
    2d7e:	ecbd 8b02 	vpop	{d8}
    2d82:	bdf0      	pop	{r4, r5, r6, r7, pc}
  } else if(fabsf(voltage - 1.7) <= 0.001) {
    2d84:	ed9f 7b4c 	vldr	d7, [pc, #304]	; 2eb8 <SX126x::setTCXO(float, unsigned long)+0x200>
    2d88:	ee35 7b47 	vsub.f64	d7, d5, d7
    2d8c:	eeb7 7bc7 	vcvt.f32.f64	s14, d7
    2d90:	eeb0 7ac7 	vabs.f32	s14, s14
    2d94:	eeb7 7ac7 	vcvt.f64.f32	d7, s14
    2d98:	eeb4 7bc6 	vcmpe.f64	d7, d6
    2d9c:	eef1 fa10 	vmrs	APSR_nzcv, fpscr
    2da0:	d96e      	bls.n	2e80 <SX126x::setTCXO(float, unsigned long)+0x1c8>
  } else if(fabsf(voltage - 1.8) <= 0.001) {
    2da2:	ed9f 7b47 	vldr	d7, [pc, #284]	; 2ec0 <SX126x::setTCXO(float, unsigned long)+0x208>
    2da6:	ee35 7b47 	vsub.f64	d7, d5, d7
    2daa:	eeb7 7bc7 	vcvt.f32.f64	s14, d7
    2dae:	eeb0 7ac7 	vabs.f32	s14, s14
    2db2:	eeb7 7ac7 	vcvt.f64.f32	d7, s14
    2db6:	eeb4 7bc6 	vcmpe.f64	d7, d6
    2dba:	eef1 fa10 	vmrs	APSR_nzcv, fpscr
    2dbe:	d961      	bls.n	2e84 <SX126x::setTCXO(float, unsigned long)+0x1cc>
  } else if(fabsf(voltage - 2.2) <= 0.001) {
    2dc0:	ed9f 7b41 	vldr	d7, [pc, #260]	; 2ec8 <SX126x::setTCXO(float, unsigned long)+0x210>
    2dc4:	ee35 7b47 	vsub.f64	d7, d5, d7
    2dc8:	eeb7 7bc7 	vcvt.f32.f64	s14, d7
    2dcc:	eeb0 7ac7 	vabs.f32	s14, s14
    2dd0:	eeb7 7ac7 	vcvt.f64.f32	d7, s14
    2dd4:	eeb4 7bc6 	vcmpe.f64	d7, d6
    2dd8:	eef1 fa10 	vmrs	APSR_nzcv, fpscr
    2ddc:	d954      	bls.n	2e88 <SX126x::setTCXO(float, unsigned long)+0x1d0>
  } else if(fabsf(voltage - 2.4) <= 0.001) {
    2dde:	ed9f 7b3c 	vldr	d7, [pc, #240]	; 2ed0 <SX126x::setTCXO(float, unsigned long)+0x218>
    2de2:	ee35 7b47 	vsub.f64	d7, d5, d7
    2de6:	eeb7 7bc7 	vcvt.f32.f64	s14, d7
    2dea:	eeb0 7ac7 	vabs.f32	s14, s14
    2dee:	eeb7 7ac7 	vcvt.f64.f32	d7, s14
    2df2:	eeb4 7bc6 	vcmpe.f64	d7, d6
    2df6:	eef1 fa10 	vmrs	APSR_nzcv, fpscr
    2dfa:	d947      	bls.n	2e8c <SX126x::setTCXO(float, unsigned long)+0x1d4>
  } else if(fabsf(voltage - 2.7) <= 0.001) {
    2dfc:	ed9f 7b36 	vldr	d7, [pc, #216]	; 2ed8 <SX126x::setTCXO(float, unsigned long)+0x220>
    2e00:	ee35 7b47 	vsub.f64	d7, d5, d7
    2e04:	eeb7 7bc7 	vcvt.f32.f64	s14, d7
    2e08:	eeb0 7ac7 	vabs.f32	s14, s14
    2e0c:	eeb7 7ac7 	vcvt.f64.f32	d7, s14
    2e10:	eeb4 7bc6 	vcmpe.f64	d7, d6
    2e14:	eef1 fa10 	vmrs	APSR_nzcv, fpscr
    2e18:	d93c      	bls.n	2e94 <SX126x::setTCXO(float, unsigned long)+0x1dc>
  } else if(fabsf(voltage - 3.0) <= 0.001) {
    2e1a:	eef0 7a08 	vmov.f32	s15, #8	; 0x40400000  3.0
    2e1e:	ee38 0a67 	vsub.f32	s0, s16, s15
    2e22:	eeb0 0ac0 	vabs.f32	s0, s0
    2e26:	eeb7 0ac0 	vcvt.f64.f32	d0, s0
    2e2a:	eeb4 0bc6 	vcmpe.f64	d0, d6
    2e2e:	eef1 fa10 	vmrs	APSR_nzcv, fpscr
    2e32:	d931      	bls.n	2e98 <SX126x::setTCXO(float, unsigned long)+0x1e0>
  } else if(fabsf(voltage - 3.3) <= 0.001) {
    2e34:	ed9f 7b2a 	vldr	d7, [pc, #168]	; 2ee0 <SX126x::setTCXO(float, unsigned long)+0x228>
    2e38:	ee35 7b47 	vsub.f64	d7, d5, d7
    2e3c:	eeb7 7bc7 	vcvt.f32.f64	s14, d7
    2e40:	eeb0 7ac7 	vabs.f32	s14, s14
    2e44:	eeb7 7ac7 	vcvt.f64.f32	d7, s14
    2e48:	eeb4 7bc6 	vcmpe.f64	d7, d6
    2e4c:	eef1 fa10 	vmrs	APSR_nzcv, fpscr
    2e50:	d81e      	bhi.n	2e90 <SX126x::setTCXO(float, unsigned long)+0x1d8>
    2e52:	2607      	movs	r6, #7
    2e54:	e770      	b.n	2d38 <SX126x::setTCXO(float, unsigned long)+0x80>
    return(reset(true));
    2e56:	2101      	movs	r1, #1
    2e58:	4620      	mov	r0, r4
}
    2e5a:	b005      	add	sp, #20
    2e5c:	ecbd 8b02 	vpop	{d8}
    2e60:	e8bd 40f0 	ldmia.w	sp!, {r4, r5, r6, r7, lr}
    return(reset(true));
    2e64:	f7ff bbd4 	b.w	2610 <SX126x::reset(bool)>
  return(this->mod->SPIwriteStream(RADIOLIB_SX126X_CMD_CLEAR_DEVICE_ERRORS, data, 2));
    2e68:	e9cd 6600 	strd	r6, r6, [sp]
    2e6c:	2302      	movs	r3, #2
    2e6e:	aa03      	add	r2, sp, #12
    2e70:	2107      	movs	r1, #7
    2e72:	f8d4 015c 	ldr.w	r0, [r4, #348]	; 0x15c
  uint8_t data[2] = {RADIOLIB_SX126X_CMD_NOP, RADIOLIB_SX126X_CMD_NOP};
    2e76:	f8ad 700c 	strh.w	r7, [sp, #12]
  return(this->mod->SPIwriteStream(RADIOLIB_SX126X_CMD_CLEAR_DEVICE_ERRORS, data, 2));
    2e7a:	f7fd fed9 	bl	c30 <Module::SPIwriteStream(unsigned short, unsigned char*, unsigned int, bool, bool)>
    2e7e:	e73d      	b.n	2cfc <SX126x::setTCXO(float, unsigned long)+0x44>
    2e80:	2601      	movs	r6, #1
    2e82:	e759      	b.n	2d38 <SX126x::setTCXO(float, unsigned long)+0x80>
    2e84:	2602      	movs	r6, #2
    2e86:	e757      	b.n	2d38 <SX126x::setTCXO(float, unsigned long)+0x80>
    2e88:	2603      	movs	r6, #3
    2e8a:	e755      	b.n	2d38 <SX126x::setTCXO(float, unsigned long)+0x80>
    2e8c:	2604      	movs	r6, #4
    2e8e:	e753      	b.n	2d38 <SX126x::setTCXO(float, unsigned long)+0x80>
    return(RADIOLIB_ERR_INVALID_TCXO_VOLTAGE);
    2e90:	4815      	ldr	r0, [pc, #84]	; (2ee8 <SX126x::setTCXO(float, unsigned long)+0x230>)
    2e92:	e773      	b.n	2d7c <SX126x::setTCXO(float, unsigned long)+0xc4>
    2e94:	2605      	movs	r6, #5
    2e96:	e74f      	b.n	2d38 <SX126x::setTCXO(float, unsigned long)+0x80>
    2e98:	2606      	movs	r6, #6
    2e9a:	e74d      	b.n	2d38 <SX126x::setTCXO(float, unsigned long)+0x80>
    2e9c:	f3af 8000 	nop.w
    2ea0:	d2f1a9fc 	.word	0xd2f1a9fc
    2ea4:	3f50624d 	.word	0x3f50624d
    2ea8:	9999999a 	.word	0x9999999a
    2eac:	3ff99999 	.word	0x3ff99999
    2eb0:	00000000 	.word	0x00000000
    2eb4:	402f4000 	.word	0x402f4000
    2eb8:	33333333 	.word	0x33333333
    2ebc:	3ffb3333 	.word	0x3ffb3333
    2ec0:	cccccccd 	.word	0xcccccccd
    2ec4:	3ffccccc 	.word	0x3ffccccc
    2ec8:	9999999a 	.word	0x9999999a
    2ecc:	40019999 	.word	0x40019999
    2ed0:	33333333 	.word	0x33333333
    2ed4:	40033333 	.word	0x40033333
    2ed8:	9999999a 	.word	0x9999999a
    2edc:	40059999 	.word	0x40059999
    2ee0:	66666666 	.word	0x66666666
    2ee4:	400a6666 	.word	0x400a6666
    2ee8:	fffffd41 	.word	0xfffffd41

00002eec <SX126x::setCad(unsigned char, unsigned char, unsigned char, unsigned char, unsigned long)>:
int16_t SX126x::setCad(uint8_t symbolNum, uint8_t detPeak, uint8_t detMin, uint8_t exitMode, RadioLibTime_t timeout) {
    2eec:	b530      	push	{r4, r5, lr}
    2eee:	468c      	mov	ip, r1
  if(this->spreadingFactor < 7) {
    2ef0:	f890 5160 	ldrb.w	r5, [r0, #352]	; 0x160
  const uint8_t detPeakValues[6] = { 22, 22, 24, 25, 26, 30};
    2ef4:	4931      	ldr	r1, [pc, #196]	; (2fbc <SX126x::setCad(unsigned char, unsigned char, unsigned char, unsigned char, unsigned long)+0xd0>)
int16_t SX126x::setCad(uint8_t symbolNum, uint8_t detPeak, uint8_t detMin, uint8_t exitMode, RadioLibTime_t timeout) {
    2ef6:	b087      	sub	sp, #28
    2ef8:	4604      	mov	r4, r0
  if(this->spreadingFactor < 7) {
    2efa:	2d06      	cmp	r5, #6
int16_t SX126x::setCad(uint8_t symbolNum, uint8_t detPeak, uint8_t detMin, uint8_t exitMode, RadioLibTime_t timeout) {
    2efc:	f89d e028 	ldrb.w	lr, [sp, #40]	; 0x28
  const uint8_t detPeakValues[6] = { 22, 22, 24, 25, 26, 30};
    2f00:	c903      	ldmia	r1, {r0, r1}
    2f02:	9002      	str	r0, [sp, #8]
    2f04:	f8ad 100c 	strh.w	r1, [sp, #12]
  if(this->spreadingFactor < 7) {
    2f08:	d849      	bhi.n	2f9e <SX126x::setCad(unsigned char, unsigned char, unsigned char, unsigned char, unsigned long)+0xb2>
    this->spreadingFactor = 7;
    2f0a:	2107      	movs	r1, #7
    2f0c:	f884 1160 	strb.w	r1, [r4, #352]	; 0x160
    2f10:	2116      	movs	r1, #22
  uint32_t timeout_raw = (float)timeout / 15.625f;
    2f12:	eddd 7a0b 	vldr	s15, [sp, #44]	; 0x2c
    data[0] = symbolNum;
    2f16:	f1bc 0fff 	cmp.w	ip, #255	; 0xff
  uint32_t timeout_raw = (float)timeout / 15.625f;
    2f1a:	eddf 6a29 	vldr	s13, [pc, #164]	; 2fc0 <SX126x::setCad(unsigned char, unsigned char, unsigned char, unsigned char, unsigned long)+0xd4>
  int16_t state = this->mod->SPIwriteStream(RADIOLIB_SX126X_CMD_SET_CAD_PARAMS, data, 7);
    2f1e:	f04f 0501 	mov.w	r5, #1
  uint32_t timeout_raw = (float)timeout / 15.625f;
    2f22:	eeb8 7a67 	vcvt.f32.u32	s14, s15
    data[0] = symbolNum;
    2f26:	bf08      	it	eq
    2f28:	f04f 0c01 	moveq.w	ip, #1
  if(detPeak != RADIOLIB_SX126X_CAD_PARAM_DEFAULT) {
    2f2c:	2aff      	cmp	r2, #255	; 0xff
    2f2e:	bf18      	it	ne
    2f30:	4611      	movne	r1, r2
    data[2] = detMin;
    2f32:	2bff      	cmp	r3, #255	; 0xff
    2f34:	f88d c010 	strb.w	ip, [sp, #16]
  int16_t state = this->mod->SPIwriteStream(RADIOLIB_SX126X_CMD_SET_CAD_PARAMS, data, 7);
    2f38:	aa04      	add	r2, sp, #16
  uint32_t timeout_raw = (float)timeout / 15.625f;
    2f3a:	eec7 7a26 	vdiv.f32	s15, s14, s13
    data[2] = detMin;
    2f3e:	bf08      	it	eq
    2f40:	230a      	moveq	r3, #10
    data[3] = exitMode;
    2f42:	f1be 0fff 	cmp.w	lr, #255	; 0xff
    2f46:	f88d 1011 	strb.w	r1, [sp, #17]
    2f4a:	f88d 3012 	strb.w	r3, [sp, #18]
  int16_t state = this->mod->SPIwriteStream(RADIOLIB_SX126X_CMD_SET_CAD_PARAMS, data, 7);
    2f4e:	f04f 0188 	mov.w	r1, #136	; 0x88
    data[3] = exitMode;
    2f52:	bf08      	it	eq
    2f54:	f04f 0e00 	moveq.w	lr, #0
  int16_t state = this->mod->SPIwriteStream(RADIOLIB_SX126X_CMD_SET_CAD_PARAMS, data, 7);
    2f58:	2307      	movs	r3, #7
    2f5a:	f88d e013 	strb.w	lr, [sp, #19]
    2f5e:	e9cd 5500 	strd	r5, r5, [sp]
    2f62:	f8d4 015c 	ldr.w	r0, [r4, #348]	; 0x15c
  uint32_t timeout_raw = (float)timeout / 15.625f;
    2f66:	eefc 7ae7 	vcvt.u32.f32	s15, s15
    2f6a:	ee17 ca90 	vmov	ip, s15
  data[4] = (uint8_t)((timeout_raw >> 16) & 0xFF);
    2f6e:	ea4f 4e1c 	mov.w	lr, ip, lsr #16
  data[6] = (uint8_t)(timeout_raw & 0xFF);
    2f72:	f88d c016 	strb.w	ip, [sp, #22]
  data[5] = (uint8_t)((timeout_raw >> 8) & 0xFF);
    2f76:	ea4f 2c1c 	mov.w	ip, ip, lsr #8
  data[4] = (uint8_t)((timeout_raw >> 16) & 0xFF);
    2f7a:	f88d e014 	strb.w	lr, [sp, #20]
  data[5] = (uint8_t)((timeout_raw >> 8) & 0xFF);
    2f7e:	f88d c015 	strb.w	ip, [sp, #21]
  int16_t state = this->mod->SPIwriteStream(RADIOLIB_SX126X_CMD_SET_CAD_PARAMS, data, 7);
    2f82:	f7fd fe55 	bl	c30 <Module::SPIwriteStream(unsigned short, unsigned char*, unsigned int, bool, bool)>
  RADIOLIB_ASSERT(state);
    2f86:	b940      	cbnz	r0, 2f9a <SX126x::setCad(unsigned char, unsigned char, unsigned char, unsigned char, unsigned long)+0xae>
  return(this->mod->SPIwriteStream(RADIOLIB_SX126X_CMD_SET_CAD, NULL, 0));
    2f88:	4603      	mov	r3, r0
    2f8a:	4602      	mov	r2, r0
    2f8c:	21c5      	movs	r1, #197	; 0xc5
    2f8e:	f8d4 015c 	ldr.w	r0, [r4, #348]	; 0x15c
    2f92:	e9cd 5500 	strd	r5, r5, [sp]
    2f96:	f7fd fe4b 	bl	c30 <Module::SPIwriteStream(unsigned short, unsigned char*, unsigned int, bool, bool)>
}
    2f9a:	b007      	add	sp, #28
    2f9c:	bd30      	pop	{r4, r5, pc}
  } else if(this->spreadingFactor > 12) {
    2f9e:	2d0c      	cmp	r5, #12
    2fa0:	d904      	bls.n	2fac <SX126x::setCad(unsigned char, unsigned char, unsigned char, unsigned char, unsigned long)+0xc0>
    this->spreadingFactor = 12;
    2fa2:	210c      	movs	r1, #12
    2fa4:	f884 1160 	strb.w	r1, [r4, #352]	; 0x160
    2fa8:	211e      	movs	r1, #30
    2faa:	e7b2      	b.n	2f12 <SX126x::setCad(unsigned char, unsigned char, unsigned char, unsigned char, unsigned long)+0x26>
  data[1] = detPeakValues[this->spreadingFactor - 7];
    2fac:	f105 0118 	add.w	r1, r5, #24
    2fb0:	eb0d 0501 	add.w	r5, sp, r1
    2fb4:	f815 1c17 	ldrb.w	r1, [r5, #-23]
    2fb8:	e7ab      	b.n	2f12 <SX126x::setCad(unsigned char, unsigned char, unsigned char, unsigned char, unsigned long)+0x26>
    2fba:	bf00      	nop
    2fbc:	200003c4 	.word	0x200003c4
    2fc0:	417a0000 	.word	0x417a0000

00002fc4 <SX126x::startChannelScan(ChannelScanConfig_t const&)>:
int16_t SX126x::startChannelScan(const ChannelScanConfig_t &config) {
    2fc4:	e92d 41f0 	stmdb	sp!, {r4, r5, r6, r7, r8, lr}
  this->mod->SPIreadStream(RADIOLIB_SX126X_CMD_GET_PACKET_TYPE, &data, 1);
    2fc8:	2301      	movs	r3, #1
int16_t SX126x::startChannelScan(const ChannelScanConfig_t &config) {
    2fca:	b084      	sub	sp, #16
  uint8_t data = 0xFF;
    2fcc:	22ff      	movs	r2, #255	; 0xff
int16_t SX126x::startChannelScan(const ChannelScanConfig_t &config) {
    2fce:	4605      	mov	r5, r0
    2fd0:	460e      	mov	r6, r1
  this->mod->SPIreadStream(RADIOLIB_SX126X_CMD_GET_PACKET_TYPE, &data, 1);
    2fd2:	2111      	movs	r1, #17
  uint8_t data = 0xFF;
    2fd4:	f88d 2008 	strb.w	r2, [sp, #8]
  this->mod->SPIreadStream(RADIOLIB_SX126X_CMD_GET_PACKET_TYPE, &data, 1);
    2fd8:	aa02      	add	r2, sp, #8
    2fda:	e9cd 3300 	strd	r3, r3, [sp]
    2fde:	f8d0 015c 	ldr.w	r0, [r0, #348]	; 0x15c
    2fe2:	f7fd fde3 	bl	bac <Module::SPIreadStream(unsigned short, unsigned char*, unsigned int, bool, bool)>
  return(data);
    2fe6:	f89d 7008 	ldrb.w	r7, [sp, #8]
  if(getPacketType() != RADIOLIB_SX126X_PACKET_TYPE_LORA) {
    2fea:	2f01      	cmp	r7, #1
    2fec:	d159      	bne.n	30a2 <SX126x::startChannelScan(ChannelScanConfig_t const&)+0xde>
  int16_t state = standby();
    2fee:	682b      	ldr	r3, [r5, #0]
    2ff0:	4628      	mov	r0, r5
    2ff2:	689b      	ldr	r3, [r3, #8]
    2ff4:	4798      	blx	r3
  RADIOLIB_ASSERT(state);
    2ff6:	4604      	mov	r4, r0
    2ff8:	b118      	cbz	r0, 3002 <SX126x::startChannelScan(ChannelScanConfig_t const&)+0x3e>
}
    2ffa:	4620      	mov	r0, r4
    2ffc:	b004      	add	sp, #16
    2ffe:	e8bd 81f0 	ldmia.w	sp!, {r4, r5, r6, r7, r8, pc}
  this->mod->setRfSwitchState(Module::MODE_RX);
    3002:	2102      	movs	r1, #2
    3004:	f8d5 015c 	ldr.w	r0, [r5, #348]	; 0x15c
    3008:	f7fd fe94 	bl	d34 <Module::setRfSwitchState(unsigned char)>
  state = setDioIrqParams(getIrqMapped(config.cad.irqFlags), getIrqMapped(config.cad.irqMask));
    300c:	68b1      	ldr	r1, [r6, #8]
    300e:	4628      	mov	r0, r5
    3010:	f002 f938 	bl	5284 <PhysicalLayer::getIrqMapped(unsigned long)>
    3014:	68f1      	ldr	r1, [r6, #12]
    3016:	4680      	mov	r8, r0
    3018:	4628      	mov	r0, r5
    301a:	f002 f933 	bl	5284 <PhysicalLayer::getIrqMapped(unsigned long)>
  return(this->mod->SPIwriteStream(RADIOLIB_SX126X_CMD_SET_DIO_IRQ_PARAMS, data, 8));
    301e:	2308      	movs	r3, #8
                     (uint8_t)((dio3Mask >> 8) & 0xFF), (uint8_t)(dio3Mask & 0xFF)};
    3020:	ba40      	rev16	r0, r0
    3022:	fa98 f898 	rev16.w	r8, r8
  return(this->mod->SPIwriteStream(RADIOLIB_SX126X_CMD_SET_DIO_IRQ_PARAMS, data, 8));
    3026:	eb0d 0203 	add.w	r2, sp, r3
    302a:	4619      	mov	r1, r3
                     (uint8_t)((dio3Mask >> 8) & 0xFF), (uint8_t)(dio3Mask & 0xFF)};
    302c:	f8ad 000a 	strh.w	r0, [sp, #10]
    3030:	9403      	str	r4, [sp, #12]
    3032:	f8ad 8008 	strh.w	r8, [sp, #8]
  return(this->mod->SPIwriteStream(RADIOLIB_SX126X_CMD_SET_DIO_IRQ_PARAMS, data, 8));
    3036:	e9cd 7700 	strd	r7, r7, [sp]
    303a:	f8d5 015c 	ldr.w	r0, [r5, #348]	; 0x15c
    303e:	f7fd fdf7 	bl	c30 <Module::SPIwriteStream(unsigned short, unsigned char*, unsigned int, bool, bool)>
  RADIOLIB_ASSERT(state);
    3042:	4604      	mov	r4, r0
    3044:	2800      	cmp	r0, #0
    3046:	d1d8      	bne.n	2ffa <SX126x::startChannelScan(ChannelScanConfig_t const&)+0x36>
  state = clearIrqStatus();
    3048:	682b      	ldr	r3, [r5, #0]
    304a:	4a17      	ldr	r2, [pc, #92]	; (30a8 <SX126x::startChannelScan(ChannelScanConfig_t const&)+0xe4>)
    304c:	f8d3 30c8 	ldr.w	r3, [r3, #200]	; 0xc8
    3050:	4293      	cmp	r3, r2
    3052:	d11e      	bne.n	3092 <SX126x::startChannelScan(ChannelScanConfig_t const&)+0xce>
  uint8_t data[] = { (uint8_t)((clearIrqParams >> 8) & 0xFF), (uint8_t)(clearIrqParams & 0xFF) };
    3054:	f64f 7143 	movw	r1, #65347	; 0xff43
  return(this->mod->SPIwriteStream(RADIOLIB_SX126X_CMD_CLEAR_IRQ_STATUS, data, 2));
    3058:	2302      	movs	r3, #2
    305a:	aa02      	add	r2, sp, #8
  uint8_t data[] = { (uint8_t)((clearIrqParams >> 8) & 0xFF), (uint8_t)(clearIrqParams & 0xFF) };
    305c:	f8ad 1008 	strh.w	r1, [sp, #8]
  return(this->mod->SPIwriteStream(RADIOLIB_SX126X_CMD_CLEAR_IRQ_STATUS, data, 2));
    3060:	4619      	mov	r1, r3
    3062:	e9cd 7700 	strd	r7, r7, [sp]
    3066:	f8d5 015c 	ldr.w	r0, [r5, #348]	; 0x15c
    306a:	f7fd fde1 	bl	c30 <Module::SPIwriteStream(unsigned short, unsigned char*, unsigned int, bool, bool)>
    306e:	4604      	mov	r4, r0
  RADIOLIB_ASSERT(state);
    3070:	2c00      	cmp	r4, #0
    3072:	d1c2      	bne.n	2ffa <SX126x::startChannelScan(ChannelScanConfig_t const&)+0x36>
  state = setCad(config.cad.symNum, config.cad.detPeak, config.cad.detMin, config.cad.exitMode, config.cad.timeout);
    3074:	6871      	ldr	r1, [r6, #4]
    3076:	4628      	mov	r0, r5
    3078:	78f2      	ldrb	r2, [r6, #3]
    307a:	78b3      	ldrb	r3, [r6, #2]
    307c:	e9cd 2100 	strd	r2, r1, [sp]
    3080:	7872      	ldrb	r2, [r6, #1]
    3082:	7831      	ldrb	r1, [r6, #0]
    3084:	f7ff ff32 	bl	2eec <SX126x::setCad(unsigned char, unsigned char, unsigned char, unsigned char, unsigned long)>
    3088:	4604      	mov	r4, r0
}
    308a:	4620      	mov	r0, r4
    308c:	b004      	add	sp, #16
    308e:	e8bd 81f0 	ldmia.w	sp!, {r4, r5, r6, r7, r8, pc}
  state = clearIrqStatus();
    3092:	f244 31ff 	movw	r1, #17407	; 0x43ff
    3096:	4628      	mov	r0, r5
    3098:	4798      	blx	r3
    309a:	4604      	mov	r4, r0
  RADIOLIB_ASSERT(state);
    309c:	2c00      	cmp	r4, #0
    309e:	d1ac      	bne.n	2ffa <SX126x::startChannelScan(ChannelScanConfig_t const&)+0x36>
    30a0:	e7e8      	b.n	3074 <SX126x::startChannelScan(ChannelScanConfig_t const&)+0xb0>
    return(RADIOLIB_ERR_WRONG_MODEM);
    30a2:	f06f 0413 	mvn.w	r4, #19
    30a6:	e7a8      	b.n	2ffa <SX126x::startChannelScan(ChannelScanConfig_t const&)+0x36>
    30a8:	000015ad 	.word	0x000015ad

000030ac <SX126x::setPaConfig(unsigned char, unsigned char, unsigned char, unsigned char)>:
int16_t SX126x::setPaConfig(uint8_t paDutyCycle, uint8_t deviceSel, uint8_t hpMax, uint8_t paLut) {
    30ac:	b500      	push	{lr}
    30ae:	4696      	mov	lr, r2
    30b0:	b085      	sub	sp, #20
  return(this->mod->SPIwriteStream(RADIOLIB_SX126X_CMD_SET_PA_CONFIG, data, 4));
    30b2:	2201      	movs	r2, #1
    30b4:	f8d0 015c 	ldr.w	r0, [r0, #348]	; 0x15c
int16_t SX126x::setPaConfig(uint8_t paDutyCycle, uint8_t deviceSel, uint8_t hpMax, uint8_t paLut) {
    30b8:	f89d c018 	ldrb.w	ip, [sp, #24]
  uint8_t data[] = { paDutyCycle, hpMax, deviceSel, paLut };
    30bc:	f88d 100c 	strb.w	r1, [sp, #12]
  return(this->mod->SPIwriteStream(RADIOLIB_SX126X_CMD_SET_PA_CONFIG, data, 4));
    30c0:	2195      	movs	r1, #149	; 0x95
  uint8_t data[] = { paDutyCycle, hpMax, deviceSel, paLut };
    30c2:	f88d 300d 	strb.w	r3, [sp, #13]
  return(this->mod->SPIwriteStream(RADIOLIB_SX126X_CMD_SET_PA_CONFIG, data, 4));
    30c6:	2304      	movs	r3, #4
  uint8_t data[] = { paDutyCycle, hpMax, deviceSel, paLut };
    30c8:	f88d e00e 	strb.w	lr, [sp, #14]
    30cc:	f88d c00f 	strb.w	ip, [sp, #15]
  return(this->mod->SPIwriteStream(RADIOLIB_SX126X_CMD_SET_PA_CONFIG, data, 4));
    30d0:	e9cd 2200 	strd	r2, r2, [sp]
    30d4:	aa03      	add	r2, sp, #12
    30d6:	f7fd fdab 	bl	c30 <Module::SPIwriteStream(unsigned short, unsigned char*, unsigned int, bool, bool)>
}
    30da:	b005      	add	sp, #20
    30dc:	f85d fb04 	ldr.w	pc, [sp], #4

000030e0 <SX126x::writeRegister(unsigned short, unsigned char*, unsigned char)>:
  this->mod->SPIwriteRegisterBurst(addr, data, numBytes);
    30e0:	f8d0 015c 	ldr.w	r0, [r0, #348]	; 0x15c
int16_t SX126x::writeRegister(uint16_t addr, uint8_t* data, uint8_t numBytes) {
    30e4:	b508      	push	{r3, lr}
  this->mod->SPIwriteRegisterBurst(addr, data, numBytes);
    30e6:	f7fd fbdf 	bl	8a8 <Module::SPIwriteRegisterBurst(unsigned long, unsigned char*, unsigned int)>
}
    30ea:	2000      	movs	r0, #0
    30ec:	bd08      	pop	{r3, pc}
    30ee:	bf00      	nop

000030f0 <SX126x::readRegister(unsigned short, unsigned char*, unsigned char)>:
int16_t SX126x::readRegister(uint16_t addr, uint8_t* data, uint8_t numBytes) {
    30f0:	4694      	mov	ip, r2
    30f2:	461a      	mov	r2, r3
    30f4:	b510      	push	{r4, lr}
    30f6:	4604      	mov	r4, r0
  this->mod->SPIreadRegisterBurst(addr, numBytes, data);
    30f8:	4663      	mov	r3, ip
    30fa:	f8d0 015c 	ldr.w	r0, [r0, #348]	; 0x15c
    30fe:	f7fd fb21 	bl	744 <Module::SPIreadRegisterBurst(unsigned long, unsigned int, unsigned char*)>
  int16_t state = this->mod->SPIcheckStream();
    3102:	f8d4 015c 	ldr.w	r0, [r4, #348]	; 0x15c
}
    3106:	e8bd 4010 	ldmia.w	sp!, {r4, lr}
  int16_t state = this->mod->SPIcheckStream();
    310a:	f7fd bd0f 	b.w	b2c <Module::SPIcheckStream()>
    310e:	bf00      	nop

00003110 <SX126x::calibrateImageRejection(float, float)>:
  uint8_t data[] = { (uint8_t)floor((freqMin - 1.0f) / 4.0f), (uint8_t)ceil((freqMax + 1.0f) / 4.0f) };
    3110:	eeb7 7a00 	vmov.f32	s14, #112	; 0x3f800000  1.0
    3114:	eef5 7a00 	vmov.f32	s15, #80	; 0x3e800000  0.250
    3118:	ee30 0a47 	vsub.f32	s0, s0, s14
    311c:	ee70 0a87 	vadd.f32	s1, s1, s14
    3120:	ee20 0a27 	vmul.f32	s0, s0, s15
    3124:	ee60 0aa7 	vmul.f32	s1, s1, s15
  using ::floor;

#ifndef __CORRECT_ISO_CPP_MATH_H_PROTO
  inline _GLIBCXX_CONSTEXPR float
  floor(float __x)
  { return __builtin_floorf(__x); }
    3128:	febb 0a40 	vrintm.f32	s0, s0
    312c:	eefc 7ac0 	vcvt.u32.f32	s15, s0
  { return __builtin_ceilf(__x); }
    3130:	fefa 0a60 	vrintp.f32	s1, s1
int16_t SX126x::calibrateImageRejection(float freqMin, float freqMax) {
    3134:	b510      	push	{r4, lr}
  uint8_t data[] = { (uint8_t)floor((freqMin - 1.0f) / 4.0f), (uint8_t)ceil((freqMax + 1.0f) / 4.0f) };
    3136:	ee17 3a90 	vmov	r3, s15
    313a:	eefc 7ae0 	vcvt.u32.f32	s15, s1
int16_t SX126x::calibrateImageRejection(float freqMin, float freqMax) {
    313e:	b086      	sub	sp, #24
  data[0] = (data[0] % 2) ? data[0] : data[0] - 1;
    3140:	07dc      	lsls	r4, r3, #31
  uint8_t data[] = { (uint8_t)floor((freqMin - 1.0f) / 4.0f), (uint8_t)ceil((freqMax + 1.0f) / 4.0f) };
    3142:	b2da      	uxtb	r2, r3
    3144:	edcd 7a03 	vstr	s15, [sp, #12]
    3148:	f89d 100c 	ldrb.w	r1, [sp, #12]
  data[0] = (data[0] % 2) ? data[0] : data[0] - 1;
    314c:	d401      	bmi.n	3152 <SX126x::calibrateImageRejection(float, float)+0x42>
    314e:	3a01      	subs	r2, #1
    3150:	b2d2      	uxtb	r2, r2
  data[1] = (data[1] % 2) ? data[1] : data[1] + 1;
    3152:	07cb      	lsls	r3, r1, #31
  data[0] = (data[0] % 2) ? data[0] : data[0] - 1;
    3154:	f88d 2014 	strb.w	r2, [sp, #20]
  data[1] = (data[1] % 2) ? data[1] : data[1] + 1;
    3158:	d401      	bmi.n	315e <SX126x::calibrateImageRejection(float, float)+0x4e>
    315a:	3101      	adds	r1, #1
    315c:	b2c9      	uxtb	r1, r1
  int16_t state = this->mod->SPIwriteStream(RADIOLIB_SX126X_CMD_CALIBRATE_IMAGE, data, 2);
    315e:	2401      	movs	r4, #1
  data[1] = (data[1] % 2) ? data[1] : data[1] + 1;
    3160:	f88d 1015 	strb.w	r1, [sp, #21]
  int16_t state = this->mod->SPIwriteStream(RADIOLIB_SX126X_CMD_CALIBRATE_IMAGE, data, 2);
    3164:	2302      	movs	r3, #2
    3166:	aa05      	add	r2, sp, #20
    3168:	2198      	movs	r1, #152	; 0x98
    316a:	f8d0 015c 	ldr.w	r0, [r0, #348]	; 0x15c
    316e:	e9cd 4400 	strd	r4, r4, [sp]
    3172:	f7fd fd5d 	bl	c30 <Module::SPIwriteStream(unsigned short, unsigned char*, unsigned int, bool, bool)>
}
    3176:	b006      	add	sp, #24
    3178:	bd10      	pop	{r4, pc}
    317a:	bf00      	nop

0000317c <SX126x::calibrateImage(float)>:
  int freqBand = (int)freq;
    317c:	eefd 7ac0 	vcvt.s32.f32	s15, s0
  uint8_t data[2] = { 0, 0 };
    3180:	2300      	movs	r3, #0
int16_t SX126x::calibrateImage(float freq) {
    3182:	4602      	mov	r2, r0
    3184:	b500      	push	{lr}
    3186:	b085      	sub	sp, #20
  uint8_t data[2] = { 0, 0 };
    3188:	f8ad 300c 	strh.w	r3, [sp, #12]
  int freqBand = (int)freq;
    318c:	ee17 3a90 	vmov	r3, s15
  if((freqBand >= 902) && (freqBand <= 928)) {
    3190:	f2a3 3186 	subw	r1, r3, #902	; 0x386
    3194:	291a      	cmp	r1, #26
    3196:	d908      	bls.n	31aa <SX126x::calibrateImage(float)+0x2e>
  } else if((freqBand >= 863) && (freqBand <= 870)) {
    3198:	f2a3 315f 	subw	r1, r3, #863	; 0x35f
    319c:	2907      	cmp	r1, #7
    319e:	d819      	bhi.n	31d4 <SX126x::calibrateImage(float)+0x58>
    31a0:	f04f 0ed7 	mov.w	lr, #215	; 0xd7
    31a4:	f04f 0cdb 	mov.w	ip, #219	; 0xdb
    31a8:	e003      	b.n	31b2 <SX126x::calibrateImage(float)+0x36>
    31aa:	f04f 0ee1 	mov.w	lr, #225	; 0xe1
    31ae:	f04f 0ce9 	mov.w	ip, #233	; 0xe9
  int16_t state = this->mod->SPIwriteStream(RADIOLIB_SX126X_CMD_CALIBRATE_IMAGE, data, 2);
    31b2:	2101      	movs	r1, #1
    31b4:	f8d2 015c 	ldr.w	r0, [r2, #348]	; 0x15c
    31b8:	2302      	movs	r3, #2
    31ba:	aa03      	add	r2, sp, #12
    data[0] = RADIOLIB_SX126X_CAL_IMG_430_MHZ_1;
    31bc:	f88d e00c 	strb.w	lr, [sp, #12]
    data[1] = RADIOLIB_SX126X_CAL_IMG_430_MHZ_2;
    31c0:	f88d c00d 	strb.w	ip, [sp, #13]
  int16_t state = this->mod->SPIwriteStream(RADIOLIB_SX126X_CMD_CALIBRATE_IMAGE, data, 2);
    31c4:	e9cd 1100 	strd	r1, r1, [sp]
    31c8:	2198      	movs	r1, #152	; 0x98
    31ca:	f7fd fd31 	bl	c30 <Module::SPIwriteStream(unsigned short, unsigned char*, unsigned int, bool, bool)>
}
    31ce:	b005      	add	sp, #20
    31d0:	f85d fb04 	ldr.w	pc, [sp], #4
  } else if((freqBand >= 779) && (freqBand <= 787)) {
    31d4:	f2a3 310b 	subw	r1, r3, #779	; 0x30b
    31d8:	2908      	cmp	r1, #8
    31da:	d90c      	bls.n	31f6 <SX126x::calibrateImage(float)+0x7a>
  } else if((freqBand >= 470) && (freqBand <= 510)) {
    31dc:	f5a3 71eb 	sub.w	r1, r3, #470	; 0x1d6
    31e0:	2928      	cmp	r1, #40	; 0x28
    31e2:	d918      	bls.n	3216 <SX126x::calibrateImage(float)+0x9a>
  } else if((freqBand >= 430) && (freqBand <= 440)) {
    31e4:	f5a3 73d7 	sub.w	r3, r3, #430	; 0x1ae
    31e8:	2b0a      	cmp	r3, #10
    31ea:	d809      	bhi.n	3200 <SX126x::calibrateImage(float)+0x84>
    31ec:	f04f 0e6b 	mov.w	lr, #107	; 0x6b
    31f0:	f04f 0c6f 	mov.w	ip, #111	; 0x6f
    31f4:	e7dd      	b.n	31b2 <SX126x::calibrateImage(float)+0x36>
    31f6:	f04f 0ec1 	mov.w	lr, #193	; 0xc1
    31fa:	f04f 0cc5 	mov.w	ip, #197	; 0xc5
    31fe:	e7d8      	b.n	31b2 <SX126x::calibrateImage(float)+0x36>
    state = SX126x::calibrateImageRejection(freq - 4.0f, freq + 4.0f);
    3200:	eef1 7a00 	vmov.f32	s15, #16	; 0x40800000  4.0
    3204:	ee70 0a27 	vadd.f32	s1, s0, s15
    3208:	ee30 0a67 	vsub.f32	s0, s0, s15
    320c:	f7ff ff80 	bl	3110 <SX126x::calibrateImageRejection(float, float)>
}
    3210:	b005      	add	sp, #20
    3212:	f85d fb04 	ldr.w	pc, [sp], #4
    3216:	f04f 0e75 	mov.w	lr, #117	; 0x75
    321a:	f04f 0c81 	mov.w	ip, #129	; 0x81
    321e:	e7c8      	b.n	31b2 <SX126x::calibrateImage(float)+0x36>

00003220 <SX126x::setTxParams(unsigned char, unsigned char)>:
int16_t SX126x::setTxParams(uint8_t pwr, uint8_t rampTime) {
    3220:	b570      	push	{r4, r5, r6, lr}
  int16_t state = this->mod->SPIwriteStream(RADIOLIB_SX126X_CMD_SET_TX_PARAMS, data, 2);
    3222:	2601      	movs	r6, #1
int16_t SX126x::setTxParams(uint8_t pwr, uint8_t rampTime) {
    3224:	b084      	sub	sp, #16
    3226:	4604      	mov	r4, r0
    3228:	460d      	mov	r5, r1
  uint8_t data[] = { pwr, rampTime };
    322a:	f88d 100c 	strb.w	r1, [sp, #12]
  int16_t state = this->mod->SPIwriteStream(RADIOLIB_SX126X_CMD_SET_TX_PARAMS, data, 2);
    322e:	2302      	movs	r3, #2
  uint8_t data[] = { pwr, rampTime };
    3230:	f88d 200d 	strb.w	r2, [sp, #13]
  int16_t state = this->mod->SPIwriteStream(RADIOLIB_SX126X_CMD_SET_TX_PARAMS, data, 2);
    3234:	218e      	movs	r1, #142	; 0x8e
    3236:	aa03      	add	r2, sp, #12
    3238:	e9cd 6600 	strd	r6, r6, [sp]
    323c:	f8d0 015c 	ldr.w	r0, [r0, #348]	; 0x15c
    3240:	f7fd fcf6 	bl	c30 <Module::SPIwriteStream(unsigned short, unsigned char*, unsigned int, bool, bool)>
  if(state == RADIOLIB_ERR_NONE) {
    3244:	b908      	cbnz	r0, 324a <SX126x::setTxParams(unsigned char, unsigned char)+0x2a>
    this->pwr = pwr;
    3246:	f884 5190 	strb.w	r5, [r4, #400]	; 0x190
}
    324a:	b004      	add	sp, #16
    324c:	bd70      	pop	{r4, r5, r6, pc}
    324e:	bf00      	nop

00003250 <SX126x::setPacketMode(unsigned char, unsigned char)>:
int16_t SX126x::setPacketMode(uint8_t mode, uint8_t len) {
    3250:	b5f0      	push	{r4, r5, r6, r7, lr}
  uint8_t data = 0xFF;
    3252:	23ff      	movs	r3, #255	; 0xff
int16_t SX126x::setPacketMode(uint8_t mode, uint8_t len) {
    3254:	b087      	sub	sp, #28
  this->mod->SPIreadStream(RADIOLIB_SX126X_CMD_GET_PACKET_TYPE, &data, 1);
    3256:	2501      	movs	r5, #1
int16_t SX126x::setPacketMode(uint8_t mode, uint8_t len) {
    3258:	4604      	mov	r4, r0
  uint8_t data = 0xFF;
    325a:	f88d 300c 	strb.w	r3, [sp, #12]
int16_t SX126x::setPacketMode(uint8_t mode, uint8_t len) {
    325e:	460e      	mov	r6, r1
  this->mod->SPIreadStream(RADIOLIB_SX126X_CMD_GET_PACKET_TYPE, &data, 1);
    3260:	462b      	mov	r3, r5
int16_t SX126x::setPacketMode(uint8_t mode, uint8_t len) {
    3262:	4617      	mov	r7, r2
  this->mod->SPIreadStream(RADIOLIB_SX126X_CMD_GET_PACKET_TYPE, &data, 1);
    3264:	2111      	movs	r1, #17
    3266:	aa03      	add	r2, sp, #12
    3268:	e9cd 5500 	strd	r5, r5, [sp]
    326c:	f8d0 015c 	ldr.w	r0, [r0, #348]	; 0x15c
    3270:	f7fd fc9c 	bl	bac <Module::SPIreadStream(unsigned short, unsigned char*, unsigned int, bool, bool)>
  return(data);
    3274:	f89d 300c 	ldrb.w	r3, [sp, #12]
  if(getPacketType() != RADIOLIB_SX126X_PACKET_TYPE_GFSK) {
    3278:	bb43      	cbnz	r3, 32cc <SX126x::setPacketMode(unsigned char, unsigned char)+0x7c>
                     packType, payloadLen, crcType, whiten};
    327a:	f88d 3010 	strb.w	r3, [sp, #16]
  return(this->mod->SPIwriteStream(RADIOLIB_SX126X_CMD_SET_PACKET_PARAMS, data, 9));
    327e:	aa03      	add	r2, sp, #12
    3280:	2309      	movs	r3, #9
                     packType, payloadLen, crcType, whiten};
    3282:	f88d 6011 	strb.w	r6, [sp, #17]
    3286:	f88d 7012 	strb.w	r7, [sp, #18]
  return(this->mod->SPIwriteStream(RADIOLIB_SX126X_CMD_SET_PACKET_PARAMS, data, 9));
    328a:	e9cd 5500 	strd	r5, r5, [sp]
  int16_t state = setPacketParamsFSK(this->preambleLengthFSK, this->preambleDetLength, this->crcTypeFSK, this->syncWordLength, RADIOLIB_SX126X_GFSK_ADDRESS_FILT_OFF, this->whitening, mode, len);
    328e:	f894 017b 	ldrb.w	r0, [r4, #379]	; 0x17b
                     packType, payloadLen, crcType, whiten};
    3292:	f8b4 1180 	ldrh.w	r1, [r4, #384]	; 0x180
    3296:	f88d 0013 	strb.w	r0, [sp, #19]
    329a:	ba49      	rev16	r1, r1
  int16_t state = setPacketParamsFSK(this->preambleLengthFSK, this->preambleDetLength, this->crcTypeFSK, this->syncWordLength, RADIOLIB_SX126X_GFSK_ADDRESS_FILT_OFF, this->whitening, mode, len);
    329c:	f894 017c 	ldrb.w	r0, [r4, #380]	; 0x17c
                     packType, payloadLen, crcType, whiten};
    32a0:	f8ad 100c 	strh.w	r1, [sp, #12]
    32a4:	f88d 000f 	strb.w	r0, [sp, #15]
  int16_t state = setPacketParamsFSK(this->preambleLengthFSK, this->preambleDetLength, this->crcTypeFSK, this->syncWordLength, RADIOLIB_SX126X_GFSK_ADDRESS_FILT_OFF, this->whitening, mode, len);
    32a8:	f894 1178 	ldrb.w	r1, [r4, #376]	; 0x178
    32ac:	f894 017d 	ldrb.w	r0, [r4, #381]	; 0x17d
                     packType, payloadLen, crcType, whiten};
    32b0:	f88d 100e 	strb.w	r1, [sp, #14]
  return(this->mod->SPIwriteStream(RADIOLIB_SX126X_CMD_SET_PACKET_PARAMS, data, 9));
    32b4:	218c      	movs	r1, #140	; 0x8c
                     packType, payloadLen, crcType, whiten};
    32b6:	f88d 0014 	strb.w	r0, [sp, #20]
  return(this->mod->SPIwriteStream(RADIOLIB_SX126X_CMD_SET_PACKET_PARAMS, data, 9));
    32ba:	f8d4 015c 	ldr.w	r0, [r4, #348]	; 0x15c
    32be:	f7fd fcb7 	bl	c30 <Module::SPIwriteStream(unsigned short, unsigned char*, unsigned int, bool, bool)>
  RADIOLIB_ASSERT(state);
    32c2:	b908      	cbnz	r0, 32c8 <SX126x::setPacketMode(unsigned char, unsigned char)+0x78>
  this->packetType = mode;
    32c4:	f884 617e 	strb.w	r6, [r4, #382]	; 0x17e
}
    32c8:	b007      	add	sp, #28
    32ca:	bdf0      	pop	{r4, r5, r6, r7, pc}
    return(RADIOLIB_ERR_WRONG_MODEM);
    32cc:	f06f 0013 	mvn.w	r0, #19
    32d0:	e7fa      	b.n	32c8 <SX126x::setPacketMode(unsigned char, unsigned char)+0x78>
    32d2:	bf00      	nop

000032d4 <SX126x::setModulationParams(unsigned char, unsigned char, unsigned char, unsigned char)>:
int16_t SX126x::setModulationParams(uint8_t sf, uint8_t bw, uint8_t cr, uint8_t ldro) {
    32d4:	b510      	push	{r4, lr}
  if(this->ldroAuto) {
    32d6:	f890 416c 	ldrb.w	r4, [r0, #364]	; 0x16c
int16_t SX126x::setModulationParams(uint8_t sf, uint8_t bw, uint8_t cr, uint8_t ldro) {
    32da:	b084      	sub	sp, #16
    32dc:	f89d c018 	ldrb.w	ip, [sp, #24]
  if(this->ldroAuto) {
    32e0:	b1c4      	cbz	r4, 3314 <SX126x::setModulationParams(unsigned char, unsigned char, unsigned char, unsigned char)+0x40>
    float symbolLength = (float)(uint32_t(1) << this->spreadingFactor) / (float)this->bandwidthKhz;
    32e2:	f890 4160 	ldrb.w	r4, [r0, #352]	; 0x160
    32e6:	f04f 0c01 	mov.w	ip, #1
    32ea:	ed90 6a5a 	vldr	s12, [r0, #360]	; 0x168
    if(symbolLength >= 16.0) {
    32ee:	eeb3 7a00 	vmov.f32	s14, #48	; 0x41800000  16.0
    float symbolLength = (float)(uint32_t(1) << this->spreadingFactor) / (float)this->bandwidthKhz;
    32f2:	fa0c fc04 	lsl.w	ip, ip, r4
    32f6:	ee07 ca90 	vmov	s15, ip
    32fa:	eef8 7a67 	vcvt.f32.u32	s15, s15
    32fe:	eec7 6a86 	vdiv.f32	s13, s15, s12
    if(symbolLength >= 16.0) {
    3302:	eef4 6ac7 	vcmpe.f32	s13, s14
    3306:	eef1 fa10 	vmrs	APSR_nzcv, fpscr
    330a:	bfac      	ite	ge
    330c:	f04f 0c01 	movge.w	ip, #1
    3310:	f04f 0c00 	movlt.w	ip, #0
  uint8_t data[4] = {sf, bw, cr, this->ldrOptimize};
    3314:	f88d 100c 	strb.w	r1, [sp, #12]
  return(this->mod->SPIwriteStream(RADIOLIB_SX126X_CMD_SET_MODULATION_PARAMS, data, 4));
    3318:	2101      	movs	r1, #1
      this->ldrOptimize = RADIOLIB_SX126X_LORA_LOW_DATA_RATE_OPTIMIZE_OFF;
    331a:	f880 c162 	strb.w	ip, [r0, #354]	; 0x162
  uint8_t data[4] = {sf, bw, cr, this->ldrOptimize};
    331e:	f88d 200d 	strb.w	r2, [sp, #13]
  return(this->mod->SPIwriteStream(RADIOLIB_SX126X_CMD_SET_MODULATION_PARAMS, data, 4));
    3322:	aa03      	add	r2, sp, #12
  uint8_t data[4] = {sf, bw, cr, this->ldrOptimize};
    3324:	f88d 300e 	strb.w	r3, [sp, #14]
  return(this->mod->SPIwriteStream(RADIOLIB_SX126X_CMD_SET_MODULATION_PARAMS, data, 4));
    3328:	2304      	movs	r3, #4
    332a:	f8d0 015c 	ldr.w	r0, [r0, #348]	; 0x15c
  uint8_t data[4] = {sf, bw, cr, this->ldrOptimize};
    332e:	f88d c00f 	strb.w	ip, [sp, #15]
  return(this->mod->SPIwriteStream(RADIOLIB_SX126X_CMD_SET_MODULATION_PARAMS, data, 4));
    3332:	e9cd 1100 	strd	r1, r1, [sp]
    3336:	218b      	movs	r1, #139	; 0x8b
    3338:	f7fd fc7a 	bl	c30 <Module::SPIwriteStream(unsigned short, unsigned char*, unsigned int, bool, bool)>
}
    333c:	b004      	add	sp, #16
    333e:	bd10      	pop	{r4, pc}

00003340 <SX126x::setBandwidth(float)>:
int16_t SX126x::setBandwidth(float bw) {
    3340:	b530      	push	{r4, r5, lr}
  this->mod->SPIreadStream(RADIOLIB_SX126X_CMD_GET_PACKET_TYPE, &data, 1);
    3342:	2301      	movs	r3, #1
  uint8_t data = 0xFF;
    3344:	22ff      	movs	r2, #255	; 0xff
int16_t SX126x::setBandwidth(float bw) {
    3346:	4604      	mov	r4, r0
  this->mod->SPIreadStream(RADIOLIB_SX126X_CMD_GET_PACKET_TYPE, &data, 1);
    3348:	2111      	movs	r1, #17
int16_t SX126x::setBandwidth(float bw) {
    334a:	ed2d 8b02 	vpush	{d8}
    334e:	b087      	sub	sp, #28
    3350:	eeb0 8a40 	vmov.f32	s16, s0
  this->mod->SPIreadStream(RADIOLIB_SX126X_CMD_GET_PACKET_TYPE, &data, 1);
    3354:	e9cd 3300 	strd	r3, r3, [sp]
  uint8_t data = 0xFF;
    3358:	f88d 2017 	strb.w	r2, [sp, #23]
  this->mod->SPIreadStream(RADIOLIB_SX126X_CMD_GET_PACKET_TYPE, &data, 1);
    335c:	f10d 0217 	add.w	r2, sp, #23
    3360:	f8d0 015c 	ldr.w	r0, [r0, #348]	; 0x15c
    3364:	f7fd fc22 	bl	bac <Module::SPIreadStream(unsigned short, unsigned char*, unsigned int, bool, bool)>
  return(data);
    3368:	f89d 2017 	ldrb.w	r2, [sp, #23]
  if(getPacketType() != RADIOLIB_SX126X_PACKET_TYPE_LORA) {
    336c:	2a01      	cmp	r2, #1
    336e:	d16f      	bne.n	3450 <SX126x::setBandwidth(float)+0x110>
  RADIOLIB_CHECK_RANGE(bw, 0.0, 510.0, RADIOLIB_ERR_INVALID_BANDWIDTH);
    3370:	eeb5 8ac0 	vcmpe.f32	s16, #0.0
    3374:	eef1 fa10 	vmrs	APSR_nzcv, fpscr
    3378:	db3d      	blt.n	33f6 <SX126x::setBandwidth(float)+0xb6>
    337a:	eddf 7a39 	vldr	s15, [pc, #228]	; 3460 <SX126x::setBandwidth(float)+0x120>
    337e:	eeb4 8ae7 	vcmpe.f32	s16, s15
    3382:	eef1 fa10 	vmrs	APSR_nzcv, fpscr
    3386:	d836      	bhi.n	33f6 <SX126x::setBandwidth(float)+0xb6>
  uint8_t bw_div2 = bw / 2 + 0.01;
    3388:	eeb6 7a00 	vmov.f32	s14, #96	; 0x3f000000  0.5
    338c:	ed9f 6b32 	vldr	d6, [pc, #200]	; 3458 <SX126x::setBandwidth(float)+0x118>
    3390:	ee28 7a07 	vmul.f32	s14, s16, s14
    3394:	eeb7 7ac7 	vcvt.f64.f32	d7, s14
    3398:	ee37 7b06 	vadd.f64	d7, d7, d6
    339c:	eefc 7bc7 	vcvt.u32.f64	s15, d7
    33a0:	edcd 7a03 	vstr	s15, [sp, #12]
    33a4:	f89d 300c 	ldrb.w	r3, [sp, #12]
  switch (bw_div2)  {
    33a8:	2b3e      	cmp	r3, #62	; 0x3e
    33aa:	d82a      	bhi.n	3402 <SX126x::setBandwidth(float)+0xc2>
    33ac:	2b02      	cmp	r3, #2
    33ae:	d922      	bls.n	33f6 <SX126x::setBandwidth(float)+0xb6>
    33b0:	3b03      	subs	r3, #3
    33b2:	2b3b      	cmp	r3, #59	; 0x3b
    33b4:	d81f      	bhi.n	33f6 <SX126x::setBandwidth(float)+0xb6>
    33b6:	e8df f003 	tbb	[pc, r3]
    33ba:	1e49      	.short	0x1e49
    33bc:	1e291e47 	.word	0x1e291e47
    33c0:	1e1e3f1e 	.word	0x1e1e3f1e
    33c4:	1e411e1e 	.word	0x1e411e1e
    33c8:	431e1e1e 	.word	0x431e1e1e
    33cc:	1e1e1e1e 	.word	0x1e1e1e1e
    33d0:	1e1e1e1e 	.word	0x1e1e1e1e
    33d4:	1e451e1e 	.word	0x1e451e1e
    33d8:	1e1e1e1e 	.word	0x1e1e1e1e
    33dc:	1e1e1e1e 	.word	0x1e1e1e1e
    33e0:	1e1e1e1e 	.word	0x1e1e1e1e
    33e4:	1e1e1e1e 	.word	0x1e1e1e1e
    33e8:	1e1e1e1e 	.word	0x1e1e1e1e
    33ec:	1e1e1e1e 	.word	0x1e1e1e1e
    33f0:	1e1e1e1e 	.word	0x1e1e1e1e
    33f4:	3d1e      	.short	0x3d1e
    33f6:	f06f 0007 	mvn.w	r0, #7
}
    33fa:	b007      	add	sp, #28
    33fc:	ecbd 8b02 	vpop	{d8}
    3400:	bd30      	pop	{r4, r5, pc}
  switch (bw_div2)  {
    3402:	2b7d      	cmp	r3, #125	; 0x7d
    3404:	d014      	beq.n	3430 <SX126x::setBandwidth(float)+0xf0>
    3406:	2bfa      	cmp	r3, #250	; 0xfa
    3408:	d1f5      	bne.n	33f6 <SX126x::setBandwidth(float)+0xb6>
    340a:	2206      	movs	r2, #6
  return(setModulationParams(this->spreadingFactor, this->bandwidth, this->codingRate, this->ldrOptimize));
    340c:	f894 5162 	ldrb.w	r5, [r4, #354]	; 0x162
    3410:	4620      	mov	r0, r4
    3412:	f894 3161 	ldrb.w	r3, [r4, #353]	; 0x161
    3416:	f894 1160 	ldrb.w	r1, [r4, #352]	; 0x160
      this->bandwidth = RADIOLIB_SX126X_LORA_BW_7_8;
    341a:	f884 2150 	strb.w	r2, [r4, #336]	; 0x150
  this->bandwidthKhz = bw;
    341e:	ed84 8a5a 	vstr	s16, [r4, #360]	; 0x168
  return(setModulationParams(this->spreadingFactor, this->bandwidth, this->codingRate, this->ldrOptimize));
    3422:	9500      	str	r5, [sp, #0]
    3424:	f7ff ff56 	bl	32d4 <SX126x::setModulationParams(unsigned char, unsigned char, unsigned char, unsigned char)>
}
    3428:	b007      	add	sp, #28
    342a:	ecbd 8b02 	vpop	{d8}
    342e:	bd30      	pop	{r4, r5, pc}
  switch (bw_div2)  {
    3430:	2205      	movs	r2, #5
    3432:	e7eb      	b.n	340c <SX126x::setBandwidth(float)+0xcc>
      break;
    3434:	2204      	movs	r2, #4
    3436:	e7e9      	b.n	340c <SX126x::setBandwidth(float)+0xcc>
      break;
    3438:	2209      	movs	r2, #9
    343a:	e7e7      	b.n	340c <SX126x::setBandwidth(float)+0xcc>
      break;
    343c:	2202      	movs	r2, #2
    343e:	e7e5      	b.n	340c <SX126x::setBandwidth(float)+0xcc>
      break;
    3440:	220a      	movs	r2, #10
    3442:	e7e3      	b.n	340c <SX126x::setBandwidth(float)+0xcc>
      break;
    3444:	2203      	movs	r2, #3
    3446:	e7e1      	b.n	340c <SX126x::setBandwidth(float)+0xcc>
  switch (bw_div2)  {
    3448:	2208      	movs	r2, #8
    344a:	e7df      	b.n	340c <SX126x::setBandwidth(float)+0xcc>
    344c:	2200      	movs	r2, #0
    344e:	e7dd      	b.n	340c <SX126x::setBandwidth(float)+0xcc>
    return(RADIOLIB_ERR_WRONG_MODEM);
    3450:	f06f 0013 	mvn.w	r0, #19
    3454:	e7d1      	b.n	33fa <SX126x::setBandwidth(float)+0xba>
    3456:	bf00      	nop
    3458:	47ae147b 	.word	0x47ae147b
    345c:	3f847ae1 	.word	0x3f847ae1
    3460:	43ff0000 	.word	0x43ff0000

00003464 <SX126x::setSpreadingFactor(unsigned char)>:
int16_t SX126x::setSpreadingFactor(uint8_t sf) {
    3464:	b570      	push	{r4, r5, r6, lr}
  this->mod->SPIreadStream(RADIOLIB_SX126X_CMD_GET_PACKET_TYPE, &data, 1);
    3466:	2301      	movs	r3, #1
int16_t SX126x::setSpreadingFactor(uint8_t sf) {
    3468:	b084      	sub	sp, #16
  uint8_t data = 0xFF;
    346a:	22ff      	movs	r2, #255	; 0xff
int16_t SX126x::setSpreadingFactor(uint8_t sf) {
    346c:	4604      	mov	r4, r0
    346e:	460d      	mov	r5, r1
  this->mod->SPIreadStream(RADIOLIB_SX126X_CMD_GET_PACKET_TYPE, &data, 1);
    3470:	2111      	movs	r1, #17
  uint8_t data = 0xFF;
    3472:	f88d 200f 	strb.w	r2, [sp, #15]
  this->mod->SPIreadStream(RADIOLIB_SX126X_CMD_GET_PACKET_TYPE, &data, 1);
    3476:	f10d 020f 	add.w	r2, sp, #15
    347a:	e9cd 3300 	strd	r3, r3, [sp]
    347e:	f8d0 015c 	ldr.w	r0, [r0, #348]	; 0x15c
    3482:	f7fd fb93 	bl	bac <Module::SPIreadStream(unsigned short, unsigned char*, unsigned int, bool, bool)>
  return(data);
    3486:	f89d 300f 	ldrb.w	r3, [sp, #15]
  if(getPacketType() != RADIOLIB_SX126X_PACKET_TYPE_LORA) {
    348a:	2b01      	cmp	r3, #1
    348c:	d114      	bne.n	34b8 <SX126x::setSpreadingFactor(unsigned char)+0x54>
  RADIOLIB_CHECK_RANGE(sf, 5, 12, RADIOLIB_ERR_INVALID_SPREADING_FACTOR);
    348e:	1f6b      	subs	r3, r5, #5
    3490:	2b07      	cmp	r3, #7
    3492:	d80e      	bhi.n	34b2 <SX126x::setSpreadingFactor(unsigned char)+0x4e>
  return(setModulationParams(this->spreadingFactor, this->bandwidth, this->codingRate, this->ldrOptimize));
    3494:	f894 6162 	ldrb.w	r6, [r4, #354]	; 0x162
    3498:	4629      	mov	r1, r5
    349a:	f894 3161 	ldrb.w	r3, [r4, #353]	; 0x161
    349e:	4620      	mov	r0, r4
    34a0:	f894 2150 	ldrb.w	r2, [r4, #336]	; 0x150
  this->spreadingFactor = sf;
    34a4:	f884 5160 	strb.w	r5, [r4, #352]	; 0x160
  return(setModulationParams(this->spreadingFactor, this->bandwidth, this->codingRate, this->ldrOptimize));
    34a8:	9600      	str	r6, [sp, #0]
    34aa:	f7ff ff13 	bl	32d4 <SX126x::setModulationParams(unsigned char, unsigned char, unsigned char, unsigned char)>
}
    34ae:	b004      	add	sp, #16
    34b0:	bd70      	pop	{r4, r5, r6, pc}
  RADIOLIB_CHECK_RANGE(sf, 5, 12, RADIOLIB_ERR_INVALID_SPREADING_FACTOR);
    34b2:	f06f 0008 	mvn.w	r0, #8
    34b6:	e7fa      	b.n	34ae <SX126x::setSpreadingFactor(unsigned char)+0x4a>
    return(RADIOLIB_ERR_WRONG_MODEM);
    34b8:	f06f 0013 	mvn.w	r0, #19
    34bc:	e7f7      	b.n	34ae <SX126x::setSpreadingFactor(unsigned char)+0x4a>
    34be:	bf00      	nop

000034c0 <SX126x::setCodingRate(unsigned char)>:
int16_t SX126x::setCodingRate(uint8_t cr) {
    34c0:	b530      	push	{r4, r5, lr}
  this->mod->SPIreadStream(RADIOLIB_SX126X_CMD_GET_PACKET_TYPE, &data, 1);
    34c2:	2301      	movs	r3, #1
int16_t SX126x::setCodingRate(uint8_t cr) {
    34c4:	b085      	sub	sp, #20
  uint8_t data = 0xFF;
    34c6:	22ff      	movs	r2, #255	; 0xff
int16_t SX126x::setCodingRate(uint8_t cr) {
    34c8:	4605      	mov	r5, r0
    34ca:	460c      	mov	r4, r1
  this->mod->SPIreadStream(RADIOLIB_SX126X_CMD_GET_PACKET_TYPE, &data, 1);
    34cc:	2111      	movs	r1, #17
  uint8_t data = 0xFF;
    34ce:	f88d 200f 	strb.w	r2, [sp, #15]
  this->mod->SPIreadStream(RADIOLIB_SX126X_CMD_GET_PACKET_TYPE, &data, 1);
    34d2:	f10d 020f 	add.w	r2, sp, #15
    34d6:	e9cd 3300 	strd	r3, r3, [sp]
    34da:	f8d0 015c 	ldr.w	r0, [r0, #348]	; 0x15c
    34de:	f7fd fb65 	bl	bac <Module::SPIreadStream(unsigned short, unsigned char*, unsigned int, bool, bool)>
  return(data);
    34e2:	f89d 300f 	ldrb.w	r3, [sp, #15]
  if(getPacketType() != RADIOLIB_SX126X_PACKET_TYPE_LORA) {
    34e6:	2b01      	cmp	r3, #1
    34e8:	d115      	bne.n	3516 <SX126x::setCodingRate(unsigned char)+0x56>
  RADIOLIB_CHECK_RANGE(cr, 5, 8, RADIOLIB_ERR_INVALID_CODING_RATE);
    34ea:	1f63      	subs	r3, r4, #5
    34ec:	2b03      	cmp	r3, #3
    34ee:	d80f      	bhi.n	3510 <SX126x::setCodingRate(unsigned char)+0x50>
  this->codingRate = cr - 4;
    34f0:	1f23      	subs	r3, r4, #4
  return(setModulationParams(this->spreadingFactor, this->bandwidth, this->codingRate, this->ldrOptimize));
    34f2:	f895 0162 	ldrb.w	r0, [r5, #354]	; 0x162
    34f6:	f895 2150 	ldrb.w	r2, [r5, #336]	; 0x150
  this->codingRate = cr - 4;
    34fa:	b2db      	uxtb	r3, r3
  return(setModulationParams(this->spreadingFactor, this->bandwidth, this->codingRate, this->ldrOptimize));
    34fc:	f895 1160 	ldrb.w	r1, [r5, #352]	; 0x160
    3500:	9000      	str	r0, [sp, #0]
    3502:	4628      	mov	r0, r5
  this->codingRate = cr - 4;
    3504:	f885 3161 	strb.w	r3, [r5, #353]	; 0x161
  return(setModulationParams(this->spreadingFactor, this->bandwidth, this->codingRate, this->ldrOptimize));
    3508:	f7ff fee4 	bl	32d4 <SX126x::setModulationParams(unsigned char, unsigned char, unsigned char, unsigned char)>
}
    350c:	b005      	add	sp, #20
    350e:	bd30      	pop	{r4, r5, pc}
  RADIOLIB_CHECK_RANGE(cr, 5, 8, RADIOLIB_ERR_INVALID_CODING_RATE);
    3510:	f06f 0009 	mvn.w	r0, #9
    3514:	e7fa      	b.n	350c <SX126x::setCodingRate(unsigned char)+0x4c>
    return(RADIOLIB_ERR_WRONG_MODEM);
    3516:	f06f 0013 	mvn.w	r0, #19
    351a:	e7f7      	b.n	350c <SX126x::setCodingRate(unsigned char)+0x4c>

0000351c <SX126x::setDataRate(DataRate_t)>:
int16_t SX126x::setDataRate(DataRate_t dr) {
    351c:	b570      	push	{r4, r5, r6, lr}
    351e:	ed2d 8b02 	vpush	{d8}
    3522:	b088      	sub	sp, #32
  uint8_t data = 0xFF;
    3524:	25ff      	movs	r5, #255	; 0xff
int16_t SX126x::setDataRate(DataRate_t dr) {
    3526:	4604      	mov	r4, r0
    3528:	f10d 0c0c 	add.w	ip, sp, #12
  uint8_t data = 0xFF;
    352c:	f88d 501f 	strb.w	r5, [sp, #31]
int16_t SX126x::setDataRate(DataRate_t dr) {
    3530:	e88c 000e 	stmia.w	ip, {r1, r2, r3}
  this->mod->SPIreadStream(RADIOLIB_SX126X_CMD_GET_PACKET_TYPE, &data, 1);
    3534:	2301      	movs	r3, #1
    3536:	f10d 021f 	add.w	r2, sp, #31
    353a:	2111      	movs	r1, #17
    353c:	ed9d 8a04 	vldr	s16, [sp, #16]
    3540:	e9cd 3300 	strd	r3, r3, [sp]
    3544:	f8d0 015c 	ldr.w	r0, [r0, #348]	; 0x15c
    3548:	f7fd fb30 	bl	bac <Module::SPIreadStream(unsigned short, unsigned char*, unsigned int, bool, bool)>
  return(data);
    354c:	f89d 301f 	ldrb.w	r3, [sp, #31]
  if(modem == RADIOLIB_SX126X_PACKET_TYPE_GFSK) {
    3550:	b98b      	cbnz	r3, 3576 <SX126x::setDataRate(DataRate_t)+0x5a>
    state = this->setBitRate(dr.fsk.bitRate);
    3552:	6823      	ldr	r3, [r4, #0]
    3554:	4620      	mov	r0, r4
    3556:	ed9d 0a03 	vldr	s0, [sp, #12]
    355a:	6b5b      	ldr	r3, [r3, #52]	; 0x34
    355c:	4798      	blx	r3
    RADIOLIB_ASSERT(state);
    355e:	bb28      	cbnz	r0, 35ac <SX126x::setDataRate(DataRate_t)+0x90>
    state = this->setFrequencyDeviation(dr.fsk.freqDev);
    3560:	6823      	ldr	r3, [r4, #0]
    3562:	eeb0 0a48 	vmov.f32	s0, s16
    3566:	4620      	mov	r0, r4
    3568:	6b9b      	ldr	r3, [r3, #56]	; 0x38
}
    356a:	b008      	add	sp, #32
    356c:	ecbd 8b02 	vpop	{d8}
    3570:	e8bd 4070 	ldmia.w	sp!, {r4, r5, r6, lr}
    state = this->setFrequencyDeviation(dr.fsk.freqDev);
    3574:	4718      	bx	r3
  } else if(modem == RADIOLIB_SX126X_PACKET_TYPE_LORA) {
    3576:	2b01      	cmp	r3, #1
    3578:	d01c      	beq.n	35b4 <SX126x::setDataRate(DataRate_t)+0x98>
  } else if(modem == RADIOLIB_SX126X_PACKET_TYPE_LR_FHSS) {
    357a:	2b03      	cmp	r3, #3
    357c:	d14e      	bne.n	361c <SX126x::setDataRate(DataRate_t)+0x100>
    state = this->setLrFhssConfig(dr.lrFhss.bw, dr.lrFhss.cr);
    357e:	f89d 200d 	ldrb.w	r2, [sp, #13]
    3582:	f89d 100c 	ldrb.w	r1, [sp, #12]
  RADIOLIB_CHECK_RANGE((int8_t)cr, (int8_t)RADIOLIB_SX126X_LR_FHSS_CR_5_6, (int8_t)RADIOLIB_SX126X_LR_FHSS_CR_1_3, RADIOLIB_ERR_INVALID_CODING_RATE);
    3586:	2a03      	cmp	r2, #3
    3588:	d84b      	bhi.n	3622 <SX126x::setDataRate(DataRate_t)+0x106>
  RADIOLIB_CHECK_RANGE((int8_t)bw, (int8_t)RADIOLIB_SX126X_LR_FHSS_BW_39_06, (int8_t)RADIOLIB_SX126X_LR_FHSS_BW_1574_2, RADIOLIB_ERR_INVALID_BANDWIDTH);
    358a:	2909      	cmp	r1, #9
  this->lrFhssCr = cr;
    358c:	f884 2199 	strb.w	r2, [r4, #409]	; 0x199
  RADIOLIB_CHECK_RANGE((int8_t)bw, (int8_t)RADIOLIB_SX126X_LR_FHSS_BW_39_06, (int8_t)RADIOLIB_SX126X_LR_FHSS_BW_1574_2, RADIOLIB_ERR_INVALID_BANDWIDTH);
    3590:	d84a      	bhi.n	3628 <SX126x::setDataRate(DataRate_t)+0x10c>
  this->lrFhssHopSeqId = hopSeqId;
    3592:	f44f 7580 	mov.w	r5, #256	; 0x100
    this->lrFhssGridNonFcc = dr.lrFhss.narrowGrid ? RADIOLIB_SX126X_LR_FHSS_GRID_STEP_NON_FCC : RADIOLIB_SX126X_LR_FHSS_GRID_STEP_FCC;
    3596:	f89d 200e 	ldrb.w	r2, [sp, #14]
  return(RADIOLIB_ERR_NONE);
    359a:	2000      	movs	r0, #0
  this->lrFhssBw = bw;
    359c:	f884 119a 	strb.w	r1, [r4, #410]	; 0x19a
  this->lrFhssHdrCount = hdrCount;
    35a0:	f884 319b 	strb.w	r3, [r4, #411]	; 0x19b
  this->lrFhssHopSeqId = hopSeqId;
    35a4:	f8a4 51aa 	strh.w	r5, [r4, #426]	; 0x1aa
    this->lrFhssGridNonFcc = dr.lrFhss.narrowGrid ? RADIOLIB_SX126X_LR_FHSS_GRID_STEP_NON_FCC : RADIOLIB_SX126X_LR_FHSS_GRID_STEP_FCC;
    35a8:	f884 21a0 	strb.w	r2, [r4, #416]	; 0x1a0
}
    35ac:	b008      	add	sp, #32
    35ae:	ecbd 8b02 	vpop	{d8}
    35b2:	bd70      	pop	{r4, r5, r6, pc}
  this->mod->SPIreadStream(RADIOLIB_SX126X_CMD_GET_PACKET_TYPE, &data, 1);
    35b4:	e9cd 3300 	strd	r3, r3, [sp]
    35b8:	f10d 021f 	add.w	r2, sp, #31
    35bc:	2111      	movs	r1, #17
    35be:	f8d4 015c 	ldr.w	r0, [r4, #348]	; 0x15c
    state = this->setSpreadingFactor(dr.lora.spreadingFactor);
    35c2:	f89d 600c 	ldrb.w	r6, [sp, #12]
  uint8_t data = 0xFF;
    35c6:	f88d 501f 	strb.w	r5, [sp, #31]
  this->mod->SPIreadStream(RADIOLIB_SX126X_CMD_GET_PACKET_TYPE, &data, 1);
    35ca:	f7fd faef 	bl	bac <Module::SPIreadStream(unsigned short, unsigned char*, unsigned int, bool, bool)>
  return(data);
    35ce:	f89d 301f 	ldrb.w	r3, [sp, #31]
  if(getPacketType() != RADIOLIB_SX126X_PACKET_TYPE_LORA) {
    35d2:	2b01      	cmp	r3, #1
    35d4:	d12e      	bne.n	3634 <SX126x::setDataRate(DataRate_t)+0x118>
  RADIOLIB_CHECK_RANGE(sf, 5, 12, RADIOLIB_ERR_INVALID_SPREADING_FACTOR);
    35d6:	1f73      	subs	r3, r6, #5
    35d8:	2b07      	cmp	r3, #7
    35da:	d828      	bhi.n	362e <SX126x::setDataRate(DataRate_t)+0x112>
  return(setModulationParams(this->spreadingFactor, this->bandwidth, this->codingRate, this->ldrOptimize));
    35dc:	f894 0162 	ldrb.w	r0, [r4, #354]	; 0x162
    35e0:	4631      	mov	r1, r6
    35e2:	f894 3161 	ldrb.w	r3, [r4, #353]	; 0x161
    35e6:	f894 2150 	ldrb.w	r2, [r4, #336]	; 0x150
  this->spreadingFactor = sf;
    35ea:	f884 6160 	strb.w	r6, [r4, #352]	; 0x160
  return(setModulationParams(this->spreadingFactor, this->bandwidth, this->codingRate, this->ldrOptimize));
    35ee:	9000      	str	r0, [sp, #0]
    35f0:	4620      	mov	r0, r4
    35f2:	f7ff fe6f 	bl	32d4 <SX126x::setModulationParams(unsigned char, unsigned char, unsigned char, unsigned char)>
    RADIOLIB_ASSERT(state);
    35f6:	2800      	cmp	r0, #0
    35f8:	d1d8      	bne.n	35ac <SX126x::setDataRate(DataRate_t)+0x90>
    state = this->setBandwidth(dr.lora.bandwidth);
    35fa:	eeb0 0a48 	vmov.f32	s0, s16
    35fe:	4620      	mov	r0, r4
    3600:	f7ff fe9e 	bl	3340 <SX126x::setBandwidth(float)>
    RADIOLIB_ASSERT(state);
    3604:	2800      	cmp	r0, #0
    3606:	d1d1      	bne.n	35ac <SX126x::setDataRate(DataRate_t)+0x90>
    state = this->setCodingRate(dr.lora.codingRate);
    3608:	f89d 1014 	ldrb.w	r1, [sp, #20]
    360c:	4620      	mov	r0, r4
}
    360e:	b008      	add	sp, #32
    3610:	ecbd 8b02 	vpop	{d8}
    3614:	e8bd 4070 	ldmia.w	sp!, {r4, r5, r6, lr}
    state = this->setCodingRate(dr.lora.codingRate);
    3618:	f7ff bf52 	b.w	34c0 <SX126x::setCodingRate(unsigned char)>
  int16_t state = RADIOLIB_ERR_UNKNOWN;
    361c:	f04f 30ff 	mov.w	r0, #4294967295
    3620:	e7c4      	b.n	35ac <SX126x::setDataRate(DataRate_t)+0x90>
  RADIOLIB_CHECK_RANGE((int8_t)cr, (int8_t)RADIOLIB_SX126X_LR_FHSS_CR_5_6, (int8_t)RADIOLIB_SX126X_LR_FHSS_CR_1_3, RADIOLIB_ERR_INVALID_CODING_RATE);
    3622:	f06f 0009 	mvn.w	r0, #9
    3626:	e7c1      	b.n	35ac <SX126x::setDataRate(DataRate_t)+0x90>
  RADIOLIB_CHECK_RANGE((int8_t)bw, (int8_t)RADIOLIB_SX126X_LR_FHSS_BW_39_06, (int8_t)RADIOLIB_SX126X_LR_FHSS_BW_1574_2, RADIOLIB_ERR_INVALID_BANDWIDTH);
    3628:	f06f 0007 	mvn.w	r0, #7
    362c:	e7be      	b.n	35ac <SX126x::setDataRate(DataRate_t)+0x90>
  RADIOLIB_CHECK_RANGE(sf, 5, 12, RADIOLIB_ERR_INVALID_SPREADING_FACTOR);
    362e:	f06f 0008 	mvn.w	r0, #8
    3632:	e7bb      	b.n	35ac <SX126x::setDataRate(DataRate_t)+0x90>
    return(RADIOLIB_ERR_WRONG_MODEM);
    3634:	f06f 0013 	mvn.w	r0, #19
    3638:	e7b8      	b.n	35ac <SX126x::setDataRate(DataRate_t)+0x90>
    363a:	bf00      	nop
    363c:	0000      	movs	r0, r0
	...

00003640 <SX126x::setFrequencyRaw(float)>:
  uint32_t frf = (this->freqMHz * (uint32_t(1) << RADIOLIB_SX126X_DIV_EXPONENT)) / RADIOLIB_SX126X_CRYSTAL_FREQ;
    3640:	ed9f 7a11 	vldr	s14, [pc, #68]	; 3688 <SX126x::setFrequencyRaw(float)+0x48>
  return(this->mod->SPIwriteStream(RADIOLIB_SX126X_CMD_SET_RF_FREQUENCY, data, 4));
    3644:	2304      	movs	r3, #4
    3646:	2186      	movs	r1, #134	; 0x86
  uint32_t frf = (this->freqMHz * (uint32_t(1) << RADIOLIB_SX126X_DIV_EXPONENT)) / RADIOLIB_SX126X_CRYSTAL_FREQ;
    3648:	ee20 7a07 	vmul.f32	s14, s0, s14
    364c:	ed9f 6b0c 	vldr	d6, [pc, #48]	; 3680 <SX126x::setFrequencyRaw(float)+0x40>
    3650:	eeb7 7ac7 	vcvt.f64.f32	d7, s14
int16_t SX126x::setFrequencyRaw(float freq) {
    3654:	b510      	push	{r4, lr}
  uint32_t frf = (this->freqMHz * (uint32_t(1) << RADIOLIB_SX126X_DIV_EXPONENT)) / RADIOLIB_SX126X_CRYSTAL_FREQ;
    3656:	ee27 7b06 	vmul.f64	d7, d7, d6
int16_t SX126x::setFrequencyRaw(float freq) {
    365a:	b084      	sub	sp, #16
  return(this->mod->SPIwriteStream(RADIOLIB_SX126X_CMD_SET_RF_FREQUENCY, data, 4));
    365c:	2401      	movs	r4, #1
  this->freqMHz = freq;
    365e:	ed80 0a55 	vstr	s0, [r0, #340]	; 0x154
  return(this->mod->SPIwriteStream(RADIOLIB_SX126X_CMD_SET_RF_FREQUENCY, data, 4));
    3662:	f8d0 015c 	ldr.w	r0, [r0, #348]	; 0x15c
    3666:	aa03      	add	r2, sp, #12
    3668:	e9cd 4400 	strd	r4, r4, [sp]
  uint32_t frf = (this->freqMHz * (uint32_t(1) << RADIOLIB_SX126X_DIV_EXPONENT)) / RADIOLIB_SX126X_CRYSTAL_FREQ;
    366c:	eefc 7bc7 	vcvt.u32.f64	s15, d7
    3670:	ee17 4a90 	vmov	r4, s15
    3674:	ba24      	rev	r4, r4
  uint8_t data[] = { (uint8_t)((frf >> 24) & 0xFF), (uint8_t)((frf >> 16) & 0xFF), (uint8_t)((frf >> 8) & 0xFF), (uint8_t)(frf & 0xFF) };
    3676:	9403      	str	r4, [sp, #12]
  return(this->mod->SPIwriteStream(RADIOLIB_SX126X_CMD_SET_RF_FREQUENCY, data, 4));
    3678:	f7fd fada 	bl	c30 <Module::SPIwriteStream(unsigned short, unsigned char*, unsigned int, bool, bool)>
}
    367c:	b004      	add	sp, #16
    367e:	bd10      	pop	{r4, pc}
    3680:	00000000 	.word	0x00000000
    3684:	3fa00000 	.word	0x3fa00000
    3688:	4c000000 	.word	0x4c000000
    368c:	00000000 	.word	0x00000000

00003690 <SX126x::fixSensitivity()>:
int16_t SX126x::fixSensitivity() {
    3690:	b530      	push	{r4, r5, lr}
  uint8_t sensitivityConfig = 0;
    3692:	2100      	movs	r1, #0
int16_t SX126x::fixSensitivity() {
    3694:	b085      	sub	sp, #20
    3696:	4604      	mov	r4, r0
  this->mod->SPIreadRegisterBurst(addr, numBytes, data);
    3698:	2201      	movs	r2, #1
    369a:	f10d 030e 	add.w	r3, sp, #14
    369e:	f8d0 015c 	ldr.w	r0, [r0, #348]	; 0x15c
  uint8_t sensitivityConfig = 0;
    36a2:	f88d 100e 	strb.w	r1, [sp, #14]
  this->mod->SPIreadRegisterBurst(addr, numBytes, data);
    36a6:	f640 0189 	movw	r1, #2185	; 0x889
    36aa:	f7fd f84b 	bl	744 <Module::SPIreadRegisterBurst(unsigned long, unsigned int, unsigned char*)>
  int16_t state = this->mod->SPIcheckStream();
    36ae:	f8d4 015c 	ldr.w	r0, [r4, #348]	; 0x15c
    36b2:	f7fd fa3b 	bl	b2c <Module::SPIcheckStream()>
  RADIOLIB_ASSERT(state);
    36b6:	4605      	mov	r5, r0
    36b8:	b110      	cbz	r0, 36c0 <SX126x::fixSensitivity()+0x30>
}
    36ba:	4628      	mov	r0, r5
    36bc:	b005      	add	sp, #20
    36be:	bd30      	pop	{r4, r5, pc}
  this->mod->SPIreadStream(RADIOLIB_SX126X_CMD_GET_PACKET_TYPE, &data, 1);
    36c0:	2301      	movs	r3, #1
  uint8_t data = 0xFF;
    36c2:	22ff      	movs	r2, #255	; 0xff
  this->mod->SPIreadStream(RADIOLIB_SX126X_CMD_GET_PACKET_TYPE, &data, 1);
    36c4:	2111      	movs	r1, #17
  uint8_t data = 0xFF;
    36c6:	f88d 200f 	strb.w	r2, [sp, #15]
  this->mod->SPIreadStream(RADIOLIB_SX126X_CMD_GET_PACKET_TYPE, &data, 1);
    36ca:	f10d 020f 	add.w	r2, sp, #15
    36ce:	e9cd 3300 	strd	r3, r3, [sp]
    36d2:	f8d4 015c 	ldr.w	r0, [r4, #348]	; 0x15c
    36d6:	f7fd fa69 	bl	bac <Module::SPIreadStream(unsigned short, unsigned char*, unsigned int, bool, bool)>
  return(data);
    36da:	f89d 300f 	ldrb.w	r3, [sp, #15]
    sensitivityConfig &= 0xFB;
    36de:	f89d 100e 	ldrb.w	r1, [sp, #14]
  if((getPacketType() == RADIOLIB_SX126X_PACKET_TYPE_LORA) && (fabsf(this->bandwidthKhz - 500.0) <= 0.001)) {
    36e2:	2b01      	cmp	r3, #1
    36e4:	d00f      	beq.n	3706 <SX126x::fixSensitivity()+0x76>
    sensitivityConfig |= 0x04;
    36e6:	f041 0104 	orr.w	r1, r1, #4
  this->mod->SPIwriteRegisterBurst(addr, data, numBytes);
    36ea:	f8d4 015c 	ldr.w	r0, [r4, #348]	; 0x15c
    36ee:	2301      	movs	r3, #1
    36f0:	f88d 100e 	strb.w	r1, [sp, #14]
    36f4:	f10d 020e 	add.w	r2, sp, #14
    36f8:	f640 0189 	movw	r1, #2185	; 0x889
    36fc:	f7fd f8d4 	bl	8a8 <Module::SPIwriteRegisterBurst(unsigned long, unsigned char*, unsigned int)>
}
    3700:	4628      	mov	r0, r5
    3702:	b005      	add	sp, #20
    3704:	bd30      	pop	{r4, r5, pc}
  if((getPacketType() == RADIOLIB_SX126X_PACKET_TYPE_LORA) && (fabsf(this->bandwidthKhz - 500.0) <= 0.001)) {
    3706:	eddf 7a0c 	vldr	s15, [pc, #48]	; 3738 <SX126x::fixSensitivity()+0xa8>
    370a:	ed94 7a5a 	vldr	s14, [r4, #360]	; 0x168
    370e:	ee37 7a67 	vsub.f32	s14, s14, s15
    3712:	ed9f 6b07 	vldr	d6, [pc, #28]	; 3730 <SX126x::fixSensitivity()+0xa0>
    3716:	eeb0 7ac7 	vabs.f32	s14, s14
    371a:	eeb7 7ac7 	vcvt.f64.f32	d7, s14
    371e:	eeb4 7bc6 	vcmpe.f64	d7, d6
    3722:	eef1 fa10 	vmrs	APSR_nzcv, fpscr
    3726:	d8de      	bhi.n	36e6 <SX126x::fixSensitivity()+0x56>
    sensitivityConfig &= 0xFB;
    3728:	f001 01fb 	and.w	r1, r1, #251	; 0xfb
    372c:	e7dd      	b.n	36ea <SX126x::fixSensitivity()+0x5a>
    372e:	bf00      	nop
    3730:	d2f1a9fc 	.word	0xd2f1a9fc
    3734:	3f50624d 	.word	0x3f50624d
    3738:	43fa0000 	.word	0x43fa0000

0000373c <SX126x::fixPaClamping(bool)>:
int16_t SX126x::fixPaClamping(bool enable) {
    373c:	b570      	push	{r4, r5, r6, lr}
  uint8_t clampConfig = 0;
    373e:	2200      	movs	r2, #0
int16_t SX126x::fixPaClamping(bool enable) {
    3740:	b082      	sub	sp, #8
    3742:	4604      	mov	r4, r0
    3744:	460e      	mov	r6, r1
  this->mod->SPIreadRegisterBurst(addr, numBytes, data);
    3746:	f10d 0307 	add.w	r3, sp, #7
    374a:	f640 01d8 	movw	r1, #2264	; 0x8d8
    374e:	f8d0 015c 	ldr.w	r0, [r0, #348]	; 0x15c
  uint8_t clampConfig = 0;
    3752:	f88d 2007 	strb.w	r2, [sp, #7]
  this->mod->SPIreadRegisterBurst(addr, numBytes, data);
    3756:	2201      	movs	r2, #1
    3758:	f7fc fff4 	bl	744 <Module::SPIreadRegisterBurst(unsigned long, unsigned int, unsigned char*)>
  int16_t state = this->mod->SPIcheckStream();
    375c:	f8d4 015c 	ldr.w	r0, [r4, #348]	; 0x15c
    3760:	f7fd f9e4 	bl	b2c <Module::SPIcheckStream()>
  RADIOLIB_ASSERT(state);
    3764:	4605      	mov	r5, r0
    3766:	b988      	cbnz	r0, 378c <SX126x::fixPaClamping(bool)+0x50>
    clampConfig |= 0x1E;
    3768:	f89d 1007 	ldrb.w	r1, [sp, #7]
  if (enable)
    376c:	b98e      	cbnz	r6, 3792 <SX126x::fixPaClamping(bool)+0x56>
    clampConfig = (clampConfig & ~0x1E) | 0x08;
    376e:	f021 011e 	bic.w	r1, r1, #30
    3772:	f041 0108 	orr.w	r1, r1, #8
    3776:	f88d 1007 	strb.w	r1, [sp, #7]
  this->mod->SPIwriteRegisterBurst(addr, data, numBytes);
    377a:	2301      	movs	r3, #1
    377c:	f10d 0207 	add.w	r2, sp, #7
    3780:	f8d4 015c 	ldr.w	r0, [r4, #348]	; 0x15c
    3784:	f640 01d8 	movw	r1, #2264	; 0x8d8
    3788:	f7fd f88e 	bl	8a8 <Module::SPIwriteRegisterBurst(unsigned long, unsigned char*, unsigned int)>
}
    378c:	4628      	mov	r0, r5
    378e:	b002      	add	sp, #8
    3790:	bd70      	pop	{r4, r5, r6, pc}
    clampConfig |= 0x1E;
    3792:	f041 011e 	orr.w	r1, r1, #30
    3796:	e7ee      	b.n	3776 <SX126x::fixPaClamping(bool)+0x3a>

00003798 <SX126x::fixImplicitTimeout()>:
int16_t SX126x::fixImplicitTimeout() {
    3798:	b570      	push	{r4, r5, r6, lr}
  if(!((this->headerType == RADIOLIB_SX126X_LORA_HEADER_IMPLICIT) && (getPacketType() == RADIOLIB_SX126X_PACKET_TYPE_LORA))) {
    379a:	f890 3164 	ldrb.w	r3, [r0, #356]	; 0x164
int16_t SX126x::fixImplicitTimeout() {
    379e:	b084      	sub	sp, #16
  if(!((this->headerType == RADIOLIB_SX126X_LORA_HEADER_IMPLICIT) && (getPacketType() == RADIOLIB_SX126X_PACKET_TYPE_LORA))) {
    37a0:	2b01      	cmp	r3, #1
    37a2:	d142      	bne.n	382a <SX126x::fixImplicitTimeout()+0x92>
  uint8_t data = 0xFF;
    37a4:	22ff      	movs	r2, #255	; 0xff
    37a6:	4604      	mov	r4, r0
  this->mod->SPIreadStream(RADIOLIB_SX126X_CMD_GET_PACKET_TYPE, &data, 1);
    37a8:	2111      	movs	r1, #17
  uint8_t data = 0xFF;
    37aa:	f88d 200f 	strb.w	r2, [sp, #15]
  this->mod->SPIreadStream(RADIOLIB_SX126X_CMD_GET_PACKET_TYPE, &data, 1);
    37ae:	f10d 020f 	add.w	r2, sp, #15
    37b2:	e9cd 3300 	strd	r3, r3, [sp]
    37b6:	f8d0 015c 	ldr.w	r0, [r0, #348]	; 0x15c
    37ba:	f7fd f9f7 	bl	bac <Module::SPIreadStream(unsigned short, unsigned char*, unsigned int, bool, bool)>
  return(data);
    37be:	f89d 600f 	ldrb.w	r6, [sp, #15]
  if(!((this->headerType == RADIOLIB_SX126X_LORA_HEADER_IMPLICIT) && (getPacketType() == RADIOLIB_SX126X_PACKET_TYPE_LORA))) {
    37c2:	2e01      	cmp	r6, #1
    37c4:	d131      	bne.n	382a <SX126x::fixImplicitTimeout()+0x92>
  uint8_t rtcStop = 0x00;
    37c6:	2500      	movs	r5, #0
  this->mod->SPIwriteRegisterBurst(addr, data, numBytes);
    37c8:	4633      	mov	r3, r6
    37ca:	f10d 020e 	add.w	r2, sp, #14
    37ce:	f640 1102 	movw	r1, #2306	; 0x902
    37d2:	f8d4 015c 	ldr.w	r0, [r4, #348]	; 0x15c
  uint8_t rtcStop = 0x00;
    37d6:	f88d 500e 	strb.w	r5, [sp, #14]
  this->mod->SPIwriteRegisterBurst(addr, data, numBytes);
    37da:	f7fd f865 	bl	8a8 <Module::SPIwriteRegisterBurst(unsigned long, unsigned char*, unsigned int)>
  this->mod->SPIreadRegisterBurst(addr, numBytes, data);
    37de:	f10d 030f 	add.w	r3, sp, #15
    37e2:	4632      	mov	r2, r6
    37e4:	f640 1144 	movw	r1, #2372	; 0x944
    37e8:	f8d4 015c 	ldr.w	r0, [r4, #348]	; 0x15c
  uint8_t rtcEvent = 0;
    37ec:	f88d 500f 	strb.w	r5, [sp, #15]
  this->mod->SPIreadRegisterBurst(addr, numBytes, data);
    37f0:	f7fc ffa8 	bl	744 <Module::SPIreadRegisterBurst(unsigned long, unsigned int, unsigned char*)>
  int16_t state = this->mod->SPIcheckStream();
    37f4:	f8d4 015c 	ldr.w	r0, [r4, #348]	; 0x15c
    37f8:	f7fd f998 	bl	b2c <Module::SPIcheckStream()>
  RADIOLIB_ASSERT(state);
    37fc:	4605      	mov	r5, r0
    37fe:	b110      	cbz	r0, 3806 <SX126x::fixImplicitTimeout()+0x6e>
}
    3800:	4628      	mov	r0, r5
    3802:	b004      	add	sp, #16
    3804:	bd70      	pop	{r4, r5, r6, pc}
  rtcEvent |= 0x02;
    3806:	f89d 100f 	ldrb.w	r1, [sp, #15]
  this->mod->SPIwriteRegisterBurst(addr, data, numBytes);
    380a:	4633      	mov	r3, r6
    380c:	f8d4 015c 	ldr.w	r0, [r4, #348]	; 0x15c
    3810:	f10d 020f 	add.w	r2, sp, #15
  rtcEvent |= 0x02;
    3814:	f041 0102 	orr.w	r1, r1, #2
    3818:	f88d 100f 	strb.w	r1, [sp, #15]
  this->mod->SPIwriteRegisterBurst(addr, data, numBytes);
    381c:	f640 1144 	movw	r1, #2372	; 0x944
    3820:	f7fd f842 	bl	8a8 <Module::SPIwriteRegisterBurst(unsigned long, unsigned char*, unsigned int)>
}
    3824:	4628      	mov	r0, r5
    3826:	b004      	add	sp, #16
    3828:	bd70      	pop	{r4, r5, r6, pc}
    return(RADIOLIB_ERR_WRONG_MODEM);
    382a:	f06f 0513 	mvn.w	r5, #19
    382e:	e7e7      	b.n	3800 <SX126x::fixImplicitTimeout()+0x68>

00003830 <SX126x::receive(unsigned char*, unsigned int)>:
  int16_t state = standby();
    3830:	6803      	ldr	r3, [r0, #0]
int16_t SX126x::receive(uint8_t* data, size_t len) {
    3832:	e92d 41f0 	stmdb	sp!, {r4, r5, r6, r7, r8, lr}
  int16_t state = standby();
    3836:	689b      	ldr	r3, [r3, #8]
int16_t SX126x::receive(uint8_t* data, size_t len) {
    3838:	b084      	sub	sp, #16
    383a:	4604      	mov	r4, r0
    383c:	4688      	mov	r8, r1
    383e:	4617      	mov	r7, r2
  int16_t state = standby();
    3840:	4798      	blx	r3
  RADIOLIB_ASSERT(state);
    3842:	b110      	cbz	r0, 384a <SX126x::receive(unsigned char*, unsigned int)+0x1a>
}
    3844:	b004      	add	sp, #16
    3846:	e8bd 81f0 	ldmia.w	sp!, {r4, r5, r6, r7, r8, pc}
  this->mod->SPIreadStream(RADIOLIB_SX126X_CMD_GET_PACKET_TYPE, &data, 1);
    384a:	2301      	movs	r3, #1
  uint8_t data = 0xFF;
    384c:	22ff      	movs	r2, #255	; 0xff
  this->mod->SPIreadStream(RADIOLIB_SX126X_CMD_GET_PACKET_TYPE, &data, 1);
    384e:	2111      	movs	r1, #17
  uint8_t data = 0xFF;
    3850:	f88d 200c 	strb.w	r2, [sp, #12]
  this->mod->SPIreadStream(RADIOLIB_SX126X_CMD_GET_PACKET_TYPE, &data, 1);
    3854:	aa03      	add	r2, sp, #12
    3856:	e9cd 3300 	strd	r3, r3, [sp]
    385a:	f8d4 015c 	ldr.w	r0, [r4, #348]	; 0x15c
    385e:	f7fd f9a5 	bl	bac <Module::SPIreadStream(unsigned short, unsigned char*, unsigned int, bool, bool)>
  return(data);
    3862:	f89d 300c 	ldrb.w	r3, [sp, #12]
  if(modem == RADIOLIB_SX126X_PACKET_TYPE_LORA) {
    3866:	2b01      	cmp	r3, #1
    3868:	f000 8098 	beq.w	399c <SX126x::receive(unsigned char*, unsigned int)+0x16c>
  } else if(modem == RADIOLIB_SX126X_PACKET_TYPE_GFSK) {
    386c:	2b00      	cmp	r3, #0
    386e:	f040 80e3 	bne.w	3a38 <SX126x::receive(unsigned char*, unsigned int)+0x208>
    if(len == 0) {
    3872:	2f00      	cmp	r7, #0
    3874:	f000 808f 	beq.w	3996 <SX126x::receive(unsigned char*, unsigned int)+0x166>
    timeout = (RadioLibTime_t)(((maxLen * 8.0) / brBps) * 1000.0 * 5.0);
    3878:	ee07 7a90 	vmov	s15, r7
    387c:	eeb8 5b67 	vcvt.f64.u32	d5, s15
    3880:	eeb2 7b00 	vmov.f64	d7, #32	; 0x41000000  8.0
    3884:	ee25 5b07 	vmul.f64	d5, d5, d7
    float brBps = ((float)(RADIOLIB_SX126X_CRYSTAL_FREQ) * 1000000.0 * 32.0) / (float)this->bitRate;
    3888:	edd4 7a5c 	vldr	s15, [r4, #368]	; 0x170
    388c:	ed9f 7a78 	vldr	s14, [pc, #480]	; 3a70 <SX126x::receive(unsigned char*, unsigned int)+0x240>
    3890:	eef8 7a67 	vcvt.f32.u32	s15, s15
    timeout = (RadioLibTime_t)(((maxLen * 8.0) / brBps) * 1000.0 * 5.0);
    3894:	eeb1 4b04 	vmov.f64	d4, #20	; 0x40a00000  5.0
    float brBps = ((float)(RADIOLIB_SX126X_CRYSTAL_FREQ) * 1000000.0 * 32.0) / (float)this->bitRate;
    3898:	ee87 6a27 	vdiv.f32	s12, s14, s15
    timeout = (RadioLibTime_t)(((maxLen * 8.0) / brBps) * 1000.0 * 5.0);
    389c:	ed9f 3b6c 	vldr	d3, [pc, #432]	; 3a50 <SX126x::receive(unsigned char*, unsigned int)+0x220>
    38a0:	eeb7 6ac6 	vcvt.f64.f32	d6, s12
    38a4:	ee85 7b06 	vdiv.f64	d7, d5, d6
    38a8:	ee27 7b03 	vmul.f64	d7, d7, d3
    38ac:	ee27 7b04 	vmul.f64	d7, d7, d4
    38b0:	eefc 7bc7 	vcvt.u32.f64	s15, d7
    38b4:	ee17 5a90 	vmov	r5, s15
  uint32_t timeoutValue = (uint32_t)(((float)timeout * 1000.0) / 15.625);
    38b8:	ee07 5a90 	vmov	s15, r5
  state = startReceive(timeoutValue);
    38bc:	6823      	ldr	r3, [r4, #0]
    38be:	2200      	movs	r2, #0
    38c0:	4620      	mov	r0, r4
  uint32_t timeoutValue = (uint32_t)(((float)timeout * 1000.0) / 15.625);
    38c2:	eeb8 7a67 	vcvt.f32.u32	s14, s15
  state = startReceive(timeoutValue);
    38c6:	9200      	str	r2, [sp, #0]
    38c8:	f240 2272 	movw	r2, #626	; 0x272
    38cc:	695e      	ldr	r6, [r3, #20]
    38ce:	2302      	movs	r3, #2
  uint32_t timeoutValue = (uint32_t)(((float)timeout * 1000.0) / 15.625);
    38d0:	eeb7 7ac7 	vcvt.f64.f32	d7, s14
    38d4:	ed9f 6b5e 	vldr	d6, [pc, #376]	; 3a50 <SX126x::receive(unsigned char*, unsigned int)+0x220>
    38d8:	ed9f 5b5f 	vldr	d5, [pc, #380]	; 3a58 <SX126x::receive(unsigned char*, unsigned int)+0x228>
    38dc:	ee27 7b06 	vmul.f64	d7, d7, d6
    38e0:	ee87 6b05 	vdiv.f64	d6, d7, d5
  state = startReceive(timeoutValue);
    38e4:	eefc 7bc6 	vcvt.u32.f64	s15, d6
    38e8:	ee17 1a90 	vmov	r1, s15
    38ec:	47b0      	blx	r6
  RADIOLIB_ASSERT(state);
    38ee:	2800      	cmp	r0, #0
    38f0:	d1a8      	bne.n	3844 <SX126x::receive(unsigned char*, unsigned int)+0x14>
  RadioLibTime_t start = this->mod->hal->millis();
    38f2:	f8d4 315c 	ldr.w	r3, [r4, #348]	; 0x15c
    38f6:	6818      	ldr	r0, [r3, #0]
    38f8:	6803      	ldr	r3, [r0, #0]
    38fa:	69db      	ldr	r3, [r3, #28]
    38fc:	4798      	blx	r3
    38fe:	4606      	mov	r6, r0
  while(!this->mod->hal->digitalRead(this->mod->getIrq())) {
    3900:	e00e      	b.n	3920 <SX126x::receive(unsigned char*, unsigned int)+0xf0>
    this->mod->hal->yield();
    3902:	f8d4 315c 	ldr.w	r3, [r4, #348]	; 0x15c
    3906:	6818      	ldr	r0, [r3, #0]
    3908:	6803      	ldr	r3, [r0, #0]
    390a:	6cdb      	ldr	r3, [r3, #76]	; 0x4c
    390c:	4798      	blx	r3
    if(this->mod->hal->millis() - start > timeout) {
    390e:	f8d4 315c 	ldr.w	r3, [r4, #348]	; 0x15c
    3912:	6818      	ldr	r0, [r3, #0]
    3914:	6803      	ldr	r3, [r0, #0]
    3916:	69db      	ldr	r3, [r3, #28]
    3918:	4798      	blx	r3
    391a:	1b80      	subs	r0, r0, r6
    391c:	4285      	cmp	r5, r0
    391e:	d353      	bcc.n	39c8 <SX126x::receive(unsigned char*, unsigned int)+0x198>
  while(!this->mod->hal->digitalRead(this->mod->getIrq())) {
    3920:	f8d4 315c 	ldr.w	r3, [r4, #348]	; 0x15c
    3924:	6818      	ldr	r0, [r3, #0]
    3926:	6a59      	ldr	r1, [r3, #36]	; 0x24
    3928:	6803      	ldr	r3, [r0, #0]
    392a:	689b      	ldr	r3, [r3, #8]
    392c:	4798      	blx	r3
    392e:	2800      	cmp	r0, #0
    3930:	d0e7      	beq.n	3902 <SX126x::receive(unsigned char*, unsigned int)+0xd2>
  bool softTimeout = false;
    3932:	2500      	movs	r5, #0
  state = standby();
    3934:	6823      	ldr	r3, [r4, #0]
    3936:	4620      	mov	r0, r4
    3938:	689b      	ldr	r3, [r3, #8]
    393a:	4798      	blx	r3
  if((state != RADIOLIB_ERR_NONE) && (state != RADIOLIB_ERR_SPI_CMD_TIMEOUT)) {
    393c:	b120      	cbz	r0, 3948 <SX126x::receive(unsigned char*, unsigned int)+0x118>
    393e:	f46f 7330 	mvn.w	r3, #704	; 0x2c0
    3942:	4298      	cmp	r0, r3
    3944:	f47f af7e 	bne.w	3844 <SX126x::receive(unsigned char*, unsigned int)+0x14>
  if((getIrqFlags() & RADIOLIB_SX126X_IRQ_TIMEOUT) || softTimeout) {
    3948:	6823      	ldr	r3, [r4, #0]
    394a:	4a4a      	ldr	r2, [pc, #296]	; (3a74 <SX126x::receive(unsigned char*, unsigned int)+0x244>)
    394c:	6f5b      	ldr	r3, [r3, #116]	; 0x74
    394e:	4293      	cmp	r3, r2
    3950:	d13c      	bne.n	39cc <SX126x::receive(unsigned char*, unsigned int)+0x19c>
  this->mod->SPIreadStream(RADIOLIB_SX126X_CMD_GET_IRQ_STATUS, data, 2);
    3952:	2301      	movs	r3, #1
    3954:	aa03      	add	r2, sp, #12
    3956:	2112      	movs	r1, #18
    3958:	e9cd 3300 	strd	r3, r3, [sp]
  uint8_t data[] = { 0x00, 0x00 };
    395c:	2300      	movs	r3, #0
  this->mod->SPIreadStream(RADIOLIB_SX126X_CMD_GET_IRQ_STATUS, data, 2);
    395e:	f8d4 015c 	ldr.w	r0, [r4, #348]	; 0x15c
  uint8_t data[] = { 0x00, 0x00 };
    3962:	f8ad 300c 	strh.w	r3, [sp, #12]
  this->mod->SPIreadStream(RADIOLIB_SX126X_CMD_GET_IRQ_STATUS, data, 2);
    3966:	2302      	movs	r3, #2
    3968:	f7fd f920 	bl	bac <Module::SPIreadStream(unsigned short, unsigned char*, unsigned int, bool, bool)>
  return(((uint32_t)(data[0]) << 8) | data[1]);
    396c:	f8bd 000c 	ldrh.w	r0, [sp, #12]
    3970:	ba40      	rev16	r0, r0
    3972:	b280      	uxth	r0, r0
  if((getIrqFlags() & RADIOLIB_SX126X_IRQ_TIMEOUT) || softTimeout) {
    3974:	0583      	lsls	r3, r0, #22
    3976:	d441      	bmi.n	39fc <SX126x::receive(unsigned char*, unsigned int)+0x1cc>
    3978:	2d00      	cmp	r5, #0
    397a:	d13f      	bne.n	39fc <SX126x::receive(unsigned char*, unsigned int)+0x1cc>
  if(((this->headerType == RADIOLIB_SX126X_LORA_HEADER_IMPLICIT) && (getPacketType() == RADIOLIB_SX126X_PACKET_TYPE_LORA))) {
    397c:	f894 3164 	ldrb.w	r3, [r4, #356]	; 0x164
    3980:	2b01      	cmp	r3, #1
    3982:	d026      	beq.n	39d2 <SX126x::receive(unsigned char*, unsigned int)+0x1a2>
  return(readData(data, len));
    3984:	6823      	ldr	r3, [r4, #0]
    3986:	463a      	mov	r2, r7
    3988:	4641      	mov	r1, r8
    398a:	4620      	mov	r0, r4
    398c:	6a5b      	ldr	r3, [r3, #36]	; 0x24
}
    398e:	b004      	add	sp, #16
    3990:	e8bd 41f0 	ldmia.w	sp!, {r4, r5, r6, r7, r8, lr}
  return(readData(data, len));
    3994:	4718      	bx	r3
    3996:	ed9f 5b32 	vldr	d5, [pc, #200]	; 3a60 <SX126x::receive(unsigned char*, unsigned int)+0x230>
    399a:	e775      	b.n	3888 <SX126x::receive(unsigned char*, unsigned int)+0x58>
    float symbolLength = (float)(uint32_t(1) << this->spreadingFactor) / (float)this->bandwidthKhz;
    399c:	f894 2160 	ldrb.w	r2, [r4, #352]	; 0x160
    39a0:	edd4 5a5a 	vldr	s11, [r4, #360]	; 0x168
    39a4:	4093      	lsls	r3, r2
    39a6:	ee07 3a90 	vmov	s15, r3
    39aa:	eef8 7a67 	vcvt.f32.u32	s15, s15
    timeout = (RadioLibTime_t)(symbolLength * 100.0);
    39ae:	ed9f 6b2e 	vldr	d6, [pc, #184]	; 3a68 <SX126x::receive(unsigned char*, unsigned int)+0x238>
    float symbolLength = (float)(uint32_t(1) << this->spreadingFactor) / (float)this->bandwidthKhz;
    39b2:	ee87 7aa5 	vdiv.f32	s14, s15, s11
    timeout = (RadioLibTime_t)(symbolLength * 100.0);
    39b6:	eeb7 7ac7 	vcvt.f64.f32	d7, s14
    39ba:	ee27 7b06 	vmul.f64	d7, d7, d6
    39be:	eefc 7bc7 	vcvt.u32.f64	s15, d7
    39c2:	ee17 5a90 	vmov	r5, s15
    39c6:	e777      	b.n	38b8 <SX126x::receive(unsigned char*, unsigned int)+0x88>
      softTimeout = true;
    39c8:	2501      	movs	r5, #1
    39ca:	e7b3      	b.n	3934 <SX126x::receive(unsigned char*, unsigned int)+0x104>
  if((getIrqFlags() & RADIOLIB_SX126X_IRQ_TIMEOUT) || softTimeout) {
    39cc:	4620      	mov	r0, r4
    39ce:	4798      	blx	r3
    39d0:	e7d0      	b.n	3974 <SX126x::receive(unsigned char*, unsigned int)+0x144>
  uint8_t data = 0xFF;
    39d2:	21ff      	movs	r1, #255	; 0xff
  this->mod->SPIreadStream(RADIOLIB_SX126X_CMD_GET_PACKET_TYPE, &data, 1);
    39d4:	aa03      	add	r2, sp, #12
    39d6:	e9cd 3300 	strd	r3, r3, [sp]
  uint8_t data = 0xFF;
    39da:	f88d 100c 	strb.w	r1, [sp, #12]
  this->mod->SPIreadStream(RADIOLIB_SX126X_CMD_GET_PACKET_TYPE, &data, 1);
    39de:	2111      	movs	r1, #17
    39e0:	f8d4 015c 	ldr.w	r0, [r4, #348]	; 0x15c
    39e4:	f7fd f8e2 	bl	bac <Module::SPIreadStream(unsigned short, unsigned char*, unsigned int, bool, bool)>
  return(data);
    39e8:	f89d 300c 	ldrb.w	r3, [sp, #12]
  if(((this->headerType == RADIOLIB_SX126X_LORA_HEADER_IMPLICIT) && (getPacketType() == RADIOLIB_SX126X_PACKET_TYPE_LORA))) {
    39ec:	2b01      	cmp	r3, #1
    39ee:	d1c9      	bne.n	3984 <SX126x::receive(unsigned char*, unsigned int)+0x154>
    state = fixImplicitTimeout();
    39f0:	4620      	mov	r0, r4
    39f2:	f7ff fed1 	bl	3798 <SX126x::fixImplicitTimeout()>
    RADIOLIB_ASSERT(state);
    39f6:	2800      	cmp	r0, #0
    39f8:	d0c4      	beq.n	3984 <SX126x::receive(unsigned char*, unsigned int)+0x154>
    39fa:	e723      	b.n	3844 <SX126x::receive(unsigned char*, unsigned int)+0x14>
    standby();
    39fc:	6823      	ldr	r3, [r4, #0]
    39fe:	4620      	mov	r0, r4
    3a00:	689b      	ldr	r3, [r3, #8]
    3a02:	4798      	blx	r3
    fixImplicitTimeout();
    3a04:	4620      	mov	r0, r4
    3a06:	f7ff fec7 	bl	3798 <SX126x::fixImplicitTimeout()>
    clearIrqStatus();
    3a0a:	6823      	ldr	r3, [r4, #0]
    3a0c:	4a1a      	ldr	r2, [pc, #104]	; (3a78 <SX126x::receive(unsigned char*, unsigned int)+0x248>)
    3a0e:	f8d3 30c8 	ldr.w	r3, [r3, #200]	; 0xc8
    3a12:	4293      	cmp	r3, r2
    3a14:	d113      	bne.n	3a3e <SX126x::receive(unsigned char*, unsigned int)+0x20e>
  return(this->mod->SPIwriteStream(RADIOLIB_SX126X_CMD_CLEAR_IRQ_STATUS, data, 2));
    3a16:	2101      	movs	r1, #1
    3a18:	2302      	movs	r3, #2
  uint8_t data[] = { (uint8_t)((clearIrqParams >> 8) & 0xFF), (uint8_t)(clearIrqParams & 0xFF) };
    3a1a:	f64f 7543 	movw	r5, #65347	; 0xff43
  return(this->mod->SPIwriteStream(RADIOLIB_SX126X_CMD_CLEAR_IRQ_STATUS, data, 2));
    3a1e:	f8d4 015c 	ldr.w	r0, [r4, #348]	; 0x15c
    3a22:	aa03      	add	r2, sp, #12
  uint8_t data[] = { (uint8_t)((clearIrqParams >> 8) & 0xFF), (uint8_t)(clearIrqParams & 0xFF) };
    3a24:	f8ad 500c 	strh.w	r5, [sp, #12]
  return(this->mod->SPIwriteStream(RADIOLIB_SX126X_CMD_CLEAR_IRQ_STATUS, data, 2));
    3a28:	e9cd 1100 	strd	r1, r1, [sp]
    3a2c:	4619      	mov	r1, r3
    3a2e:	f7fd f8ff 	bl	c30 <Module::SPIwriteStream(unsigned short, unsigned char*, unsigned int, bool, bool)>
    return(RADIOLIB_ERR_RX_TIMEOUT);
    3a32:	f06f 0005 	mvn.w	r0, #5
  return(this->mod->SPIwriteStream(RADIOLIB_SX126X_CMD_CLEAR_IRQ_STATUS, data, 2));
    3a36:	e705      	b.n	3844 <SX126x::receive(unsigned char*, unsigned int)+0x14>
    return(RADIOLIB_ERR_UNKNOWN);
    3a38:	f04f 30ff 	mov.w	r0, #4294967295
    3a3c:	e702      	b.n	3844 <SX126x::receive(unsigned char*, unsigned int)+0x14>
    clearIrqStatus();
    3a3e:	f244 31ff 	movw	r1, #17407	; 0x43ff
    3a42:	4620      	mov	r0, r4
    3a44:	4798      	blx	r3
    return(RADIOLIB_ERR_RX_TIMEOUT);
    3a46:	f06f 0005 	mvn.w	r0, #5
    3a4a:	e6fb      	b.n	3844 <SX126x::receive(unsigned char*, unsigned int)+0x14>
    3a4c:	f3af 8000 	nop.w
    3a50:	00000000 	.word	0x00000000
    3a54:	408f4000 	.word	0x408f4000
    3a58:	00000000 	.word	0x00000000
    3a5c:	402f4000 	.word	0x402f4000
    3a60:	00000000 	.word	0x00000000
    3a64:	409fe000 	.word	0x409fe000
    3a68:	00000000 	.word	0x00000000
    3a6c:	40590000 	.word	0x40590000
    3a70:	4e742400 	.word	0x4e742400
    3a74:	000015d1 	.word	0x000015d1
    3a78:	000015ad 	.word	0x000015ad

00003a7c <SX126x::fixInvertedIQ(unsigned char)>:
int16_t SX126x::fixInvertedIQ(uint8_t iqConfig) {
    3a7c:	b570      	push	{r4, r5, r6, lr}
  uint8_t iqConfigCurrent = 0;
    3a7e:	2200      	movs	r2, #0
int16_t SX126x::fixInvertedIQ(uint8_t iqConfig) {
    3a80:	b082      	sub	sp, #8
    3a82:	4604      	mov	r4, r0
    3a84:	460e      	mov	r6, r1
  this->mod->SPIreadRegisterBurst(addr, numBytes, data);
    3a86:	f10d 0307 	add.w	r3, sp, #7
    3a8a:	f240 7136 	movw	r1, #1846	; 0x736
    3a8e:	f8d0 015c 	ldr.w	r0, [r0, #348]	; 0x15c
  uint8_t iqConfigCurrent = 0;
    3a92:	f88d 2007 	strb.w	r2, [sp, #7]
  this->mod->SPIreadRegisterBurst(addr, numBytes, data);
    3a96:	2201      	movs	r2, #1
    3a98:	f7fc fe54 	bl	744 <Module::SPIreadRegisterBurst(unsigned long, unsigned int, unsigned char*)>
  int16_t state = this->mod->SPIcheckStream();
    3a9c:	f8d4 015c 	ldr.w	r0, [r4, #348]	; 0x15c
    3aa0:	f7fd f844 	bl	b2c <Module::SPIcheckStream()>
  RADIOLIB_ASSERT(state);
    3aa4:	4605      	mov	r5, r0
    3aa6:	b998      	cbnz	r0, 3ad0 <SX126x::fixInvertedIQ(unsigned char)+0x54>
    iqConfigCurrent &= 0xFB;
    3aa8:	f89d 1007 	ldrb.w	r1, [sp, #7]
  if(iqConfig == RADIOLIB_SX126X_LORA_IQ_INVERTED) {
    3aac:	2e01      	cmp	r6, #1
  this->mod->SPIwriteRegisterBurst(addr, data, numBytes);
    3aae:	f04f 0301 	mov.w	r3, #1
    3ab2:	f10d 0207 	add.w	r2, sp, #7
    iqConfigCurrent &= 0xFB;
    3ab6:	bf0c      	ite	eq
    3ab8:	f001 01fb 	andeq.w	r1, r1, #251	; 0xfb
    iqConfigCurrent |= 0x04;
    3abc:	f041 0104 	orrne.w	r1, r1, #4
  this->mod->SPIwriteRegisterBurst(addr, data, numBytes);
    3ac0:	f8d4 015c 	ldr.w	r0, [r4, #348]	; 0x15c
    3ac4:	f88d 1007 	strb.w	r1, [sp, #7]
    3ac8:	f240 7136 	movw	r1, #1846	; 0x736
    3acc:	f7fc feec 	bl	8a8 <Module::SPIwriteRegisterBurst(unsigned long, unsigned char*, unsigned int)>
}
    3ad0:	4628      	mov	r0, r5
    3ad2:	b002      	add	sp, #8
    3ad4:	bd70      	pop	{r4, r5, r6, pc}
    3ad6:	bf00      	nop

00003ad8 <SX126x::invertIQ(bool)>:
int16_t SX126x::invertIQ(bool enable) {
    3ad8:	e92d 47f0 	stmdb	sp!, {r4, r5, r6, r7, r8, r9, sl, lr}
  this->mod->SPIreadStream(RADIOLIB_SX126X_CMD_GET_PACKET_TYPE, &data, 1);
    3adc:	2301      	movs	r3, #1
int16_t SX126x::invertIQ(bool enable) {
    3ade:	b084      	sub	sp, #16
  uint8_t data = 0xFF;
    3ae0:	22ff      	movs	r2, #255	; 0xff
int16_t SX126x::invertIQ(bool enable) {
    3ae2:	4604      	mov	r4, r0
    3ae4:	460d      	mov	r5, r1
  this->mod->SPIreadStream(RADIOLIB_SX126X_CMD_GET_PACKET_TYPE, &data, 1);
    3ae6:	2111      	movs	r1, #17
  uint8_t data = 0xFF;
    3ae8:	f88d 2008 	strb.w	r2, [sp, #8]
  this->mod->SPIreadStream(RADIOLIB_SX126X_CMD_GET_PACKET_TYPE, &data, 1);
    3aec:	aa02      	add	r2, sp, #8
    3aee:	e9cd 3300 	strd	r3, r3, [sp]
    3af2:	f8d0 015c 	ldr.w	r0, [r0, #348]	; 0x15c
    3af6:	f7fd f859 	bl	bac <Module::SPIreadStream(unsigned short, unsigned char*, unsigned int, bool, bool)>
  return(data);
    3afa:	f89d a008 	ldrb.w	sl, [sp, #8]
  if(getPacketType() != RADIOLIB_SX126X_PACKET_TYPE_LORA) {
    3afe:	f1ba 0f01 	cmp.w	sl, #1
    3b02:	d125      	bne.n	3b50 <SX126x::invertIQ(bool)+0x78>
  if(enable) {
    3b04:	f8b4 6166 	ldrh.w	r6, [r4, #358]	; 0x166
  int16_t state = fixInvertedIQ(invertIQ);
    3b08:	4629      	mov	r1, r5
    3b0a:	4620      	mov	r0, r4
    3b0c:	f884 5198 	strb.w	r5, [r4, #408]	; 0x198
  return(setPacketParams(this->preambleLengthLoRa, this->crcTypeLoRa, this->implicitLen, this->headerType, this->invertIQEnabled));
    3b10:	ba76      	rev16	r6, r6
    3b12:	f894 7163 	ldrb.w	r7, [r4, #355]	; 0x163
    3b16:	f8d4 8194 	ldr.w	r8, [r4, #404]	; 0x194
    3b1a:	f894 9164 	ldrb.w	r9, [r4, #356]	; 0x164
  int16_t state = fixInvertedIQ(invertIQ);
    3b1e:	f7ff ffad 	bl	3a7c <SX126x::fixInvertedIQ(unsigned char)>
  RADIOLIB_ASSERT(state);
    3b22:	b990      	cbnz	r0, 3b4a <SX126x::invertIQ(bool)+0x72>
  return(this->mod->SPIwriteStream(RADIOLIB_SX126X_CMD_SET_PACKET_PARAMS, data, 6));
    3b24:	f8d4 015c 	ldr.w	r0, [r4, #348]	; 0x15c
    3b28:	aa02      	add	r2, sp, #8
    3b2a:	2306      	movs	r3, #6
    3b2c:	218c      	movs	r1, #140	; 0x8c
  uint8_t data[6] = {(uint8_t)((preambleLen >> 8) & 0xFF), (uint8_t)(preambleLen & 0xFF), hdrType, payloadLen, crcType, invertIQ};
    3b2e:	f8ad 6008 	strh.w	r6, [sp, #8]
    3b32:	f88d 900a 	strb.w	r9, [sp, #10]
  return(setPacketParams(this->preambleLengthLoRa, this->crcTypeLoRa, this->implicitLen, this->headerType, this->invertIQEnabled));
    3b36:	f88d 800b 	strb.w	r8, [sp, #11]
  uint8_t data[6] = {(uint8_t)((preambleLen >> 8) & 0xFF), (uint8_t)(preambleLen & 0xFF), hdrType, payloadLen, crcType, invertIQ};
    3b3a:	f88d 700c 	strb.w	r7, [sp, #12]
    3b3e:	f88d 500d 	strb.w	r5, [sp, #13]
  return(this->mod->SPIwriteStream(RADIOLIB_SX126X_CMD_SET_PACKET_PARAMS, data, 6));
    3b42:	e9cd aa00 	strd	sl, sl, [sp]
    3b46:	f7fd f873 	bl	c30 <Module::SPIwriteStream(unsigned short, unsigned char*, unsigned int, bool, bool)>
}
    3b4a:	b004      	add	sp, #16
    3b4c:	e8bd 87f0 	ldmia.w	sp!, {r4, r5, r6, r7, r8, r9, sl, pc}
    return(RADIOLIB_ERR_WRONG_MODEM);
    3b50:	f06f 0013 	mvn.w	r0, #19
    3b54:	e7f9      	b.n	3b4a <SX126x::invertIQ(bool)+0x72>
    3b56:	bf00      	nop

00003b58 <SX126x::setCRC(unsigned char, unsigned short, unsigned short, bool)>:
int16_t SX126x::setCRC(uint8_t len, uint16_t initial, uint16_t polynomial, bool inverted) {
    3b58:	e92d 4ff0 	stmdb	sp!, {r4, r5, r6, r7, r8, r9, sl, fp, lr}
  this->mod->SPIreadStream(RADIOLIB_SX126X_CMD_GET_PACKET_TYPE, &data, 1);
    3b5c:	2601      	movs	r6, #1
int16_t SX126x::setCRC(uint8_t len, uint16_t initial, uint16_t polynomial, bool inverted) {
    3b5e:	b087      	sub	sp, #28
    3b60:	460d      	mov	r5, r1
  uint8_t data = 0xFF;
    3b62:	21ff      	movs	r1, #255	; 0xff
int16_t SX126x::setCRC(uint8_t len, uint16_t initial, uint16_t polynomial, bool inverted) {
    3b64:	4604      	mov	r4, r0
    3b66:	4690      	mov	r8, r2
  uint8_t data = 0xFF;
    3b68:	f88d 100c 	strb.w	r1, [sp, #12]
int16_t SX126x::setCRC(uint8_t len, uint16_t initial, uint16_t polynomial, bool inverted) {
    3b6c:	4699      	mov	r9, r3
  this->mod->SPIreadStream(RADIOLIB_SX126X_CMD_GET_PACKET_TYPE, &data, 1);
    3b6e:	aa03      	add	r2, sp, #12
    3b70:	4633      	mov	r3, r6
    3b72:	2111      	movs	r1, #17
int16_t SX126x::setCRC(uint8_t len, uint16_t initial, uint16_t polynomial, bool inverted) {
    3b74:	f89d a040 	ldrb.w	sl, [sp, #64]	; 0x40
  this->mod->SPIreadStream(RADIOLIB_SX126X_CMD_GET_PACKET_TYPE, &data, 1);
    3b78:	e9cd 6600 	strd	r6, r6, [sp]
    3b7c:	f8d0 015c 	ldr.w	r0, [r0, #348]	; 0x15c
    3b80:	f7fd f814 	bl	bac <Module::SPIreadStream(unsigned short, unsigned char*, unsigned int, bool, bool)>
  return(data);
    3b84:	f89d 700c 	ldrb.w	r7, [sp, #12]
  if(modem == RADIOLIB_SX126X_PACKET_TYPE_GFSK) {
    3b88:	b95f      	cbnz	r7, 3ba2 <SX126x::setCRC(unsigned char, unsigned short, unsigned short, bool)+0x4a>
    switch(len) {
    3b8a:	42b5      	cmp	r5, r6
    3b8c:	f000 8086 	beq.w	3c9c <SX126x::setCRC(unsigned char, unsigned short, unsigned short, bool)+0x144>
    3b90:	2d02      	cmp	r5, #2
    3b92:	d07e      	beq.n	3c92 <SX126x::setCRC(unsigned char, unsigned short, unsigned short, bool)+0x13a>
    3b94:	b3a5      	cbz	r5, 3c00 <SX126x::setCRC(unsigned char, unsigned short, unsigned short, bool)+0xa8>
    3b96:	f46f 762f 	mvn.w	r6, #700	; 0x2bc
}
    3b9a:	4630      	mov	r0, r6
    3b9c:	b007      	add	sp, #28
    3b9e:	e8bd 8ff0 	ldmia.w	sp!, {r4, r5, r6, r7, r8, r9, sl, fp, pc}
  } else if(modem == RADIOLIB_SX126X_PACKET_TYPE_LORA) {
    3ba2:	2f01      	cmp	r7, #1
    3ba4:	d17f      	bne.n	3ca6 <SX126x::setCRC(unsigned char, unsigned short, unsigned short, bool)+0x14e>
      this->crcTypeLoRa = RADIOLIB_SX126X_LORA_CRC_ON;
    3ba6:	3d00      	subs	r5, #0
    return(setPacketParams(this->preambleLengthLoRa, this->crcTypeLoRa, this->implicitLen, this->headerType, this->invertIQEnabled));
    3ba8:	f894 9198 	ldrb.w	r9, [r4, #408]	; 0x198
    3bac:	f8b4 8166 	ldrh.w	r8, [r4, #358]	; 0x166
  int16_t state = fixInvertedIQ(invertIQ);
    3bb0:	4620      	mov	r0, r4
      this->crcTypeLoRa = RADIOLIB_SX126X_LORA_CRC_ON;
    3bb2:	bf18      	it	ne
    3bb4:	2501      	movne	r5, #1
  int16_t state = fixInvertedIQ(invertIQ);
    3bb6:	4649      	mov	r1, r9
    return(setPacketParams(this->preambleLengthLoRa, this->crcTypeLoRa, this->implicitLen, this->headerType, this->invertIQEnabled));
    3bb8:	f8d4 a194 	ldr.w	sl, [r4, #404]	; 0x194
    3bbc:	fa98 f898 	rev16.w	r8, r8
    3bc0:	f884 5163 	strb.w	r5, [r4, #355]	; 0x163
    3bc4:	f894 b164 	ldrb.w	fp, [r4, #356]	; 0x164
  int16_t state = fixInvertedIQ(invertIQ);
    3bc8:	f7ff ff58 	bl	3a7c <SX126x::fixInvertedIQ(unsigned char)>
  RADIOLIB_ASSERT(state);
    3bcc:	4606      	mov	r6, r0
    3bce:	b998      	cbnz	r0, 3bf8 <SX126x::setCRC(unsigned char, unsigned short, unsigned short, bool)+0xa0>
  return(this->mod->SPIwriteStream(RADIOLIB_SX126X_CMD_SET_PACKET_PARAMS, data, 6));
    3bd0:	f8d4 015c 	ldr.w	r0, [r4, #348]	; 0x15c
    3bd4:	aa03      	add	r2, sp, #12
    3bd6:	2306      	movs	r3, #6
    3bd8:	218c      	movs	r1, #140	; 0x8c
  uint8_t data[6] = {(uint8_t)((preambleLen >> 8) & 0xFF), (uint8_t)(preambleLen & 0xFF), hdrType, payloadLen, crcType, invertIQ};
    3bda:	f8ad 800c 	strh.w	r8, [sp, #12]
    3bde:	f88d b00e 	strb.w	fp, [sp, #14]
    return(setPacketParams(this->preambleLengthLoRa, this->crcTypeLoRa, this->implicitLen, this->headerType, this->invertIQEnabled));
    3be2:	f88d a00f 	strb.w	sl, [sp, #15]
  uint8_t data[6] = {(uint8_t)((preambleLen >> 8) & 0xFF), (uint8_t)(preambleLen & 0xFF), hdrType, payloadLen, crcType, invertIQ};
    3be6:	f88d 5010 	strb.w	r5, [sp, #16]
    3bea:	f88d 9011 	strb.w	r9, [sp, #17]
  return(this->mod->SPIwriteStream(RADIOLIB_SX126X_CMD_SET_PACKET_PARAMS, data, 6));
    3bee:	e9cd 7700 	strd	r7, r7, [sp]
    3bf2:	f7fd f81d 	bl	c30 <Module::SPIwriteStream(unsigned short, unsigned char*, unsigned int, bool, bool)>
    3bf6:	4606      	mov	r6, r0
}
    3bf8:	4630      	mov	r0, r6
    3bfa:	b007      	add	sp, #28
    3bfc:	e8bd 8ff0 	ldmia.w	sp!, {r4, r5, r6, r7, r8, r9, sl, fp, pc}
    switch(len) {
    3c00:	4635      	mov	r5, r6
  return(this->mod->SPIwriteStream(RADIOLIB_SX126X_CMD_SET_PACKET_PARAMS, data, 9));
    3c02:	2301      	movs	r3, #1
        this->crcTypeFSK = RADIOLIB_SX126X_GFSK_CRC_OFF;
    3c04:	f884 517b 	strb.w	r5, [r4, #379]	; 0x17b
  return(this->mod->SPIwriteStream(RADIOLIB_SX126X_CMD_SET_PACKET_PARAMS, data, 9));
    3c08:	218c      	movs	r1, #140	; 0x8c
                     packType, payloadLen, crcType, whiten};
    3c0a:	f88d 5013 	strb.w	r5, [sp, #19]
  return(this->mod->SPIwriteStream(RADIOLIB_SX126X_CMD_SET_PACKET_PARAMS, data, 9));
    3c0e:	e9cd 3300 	strd	r3, r3, [sp]
                     packType, payloadLen, crcType, whiten};
    3c12:	f8b4 2180 	ldrh.w	r2, [r4, #384]	; 0x180
  return(this->mod->SPIwriteStream(RADIOLIB_SX126X_CMD_SET_PACKET_PARAMS, data, 9));
    3c16:	2309      	movs	r3, #9
    3c18:	f8d4 015c 	ldr.w	r0, [r4, #348]	; 0x15c
                     packType, payloadLen, crcType, whiten};
    3c1c:	ba52      	rev16	r2, r2
    3c1e:	f8ad 200c 	strh.w	r2, [sp, #12]
    int16_t state = setPacketParamsFSK(this->preambleLengthFSK, this->preambleDetLength, this->crcTypeFSK, this->syncWordLength, RADIOLIB_SX126X_GFSK_ADDRESS_FILT_OFF, this->whitening, this->packetType);
    3c22:	f894 2178 	ldrb.w	r2, [r4, #376]	; 0x178
                     packType, payloadLen, crcType, whiten};
    3c26:	f88d 200e 	strb.w	r2, [sp, #14]
    int16_t state = setPacketParamsFSK(this->preambleLengthFSK, this->preambleDetLength, this->crcTypeFSK, this->syncWordLength, RADIOLIB_SX126X_GFSK_ADDRESS_FILT_OFF, this->whitening, this->packetType);
    3c2a:	f894 217c 	ldrb.w	r2, [r4, #380]	; 0x17c
                     packType, payloadLen, crcType, whiten};
    3c2e:	f88d 200f 	strb.w	r2, [sp, #15]
    int16_t state = setPacketParamsFSK(this->preambleLengthFSK, this->preambleDetLength, this->crcTypeFSK, this->syncWordLength, RADIOLIB_SX126X_GFSK_ADDRESS_FILT_OFF, this->whitening, this->packetType);
    3c32:	f894 217d 	ldrb.w	r2, [r4, #381]	; 0x17d
                     packType, payloadLen, crcType, whiten};
    3c36:	f88d 2014 	strb.w	r2, [sp, #20]
    int16_t state = setPacketParamsFSK(this->preambleLengthFSK, this->preambleDetLength, this->crcTypeFSK, this->syncWordLength, RADIOLIB_SX126X_GFSK_ADDRESS_FILT_OFF, this->whitening, this->packetType);
    3c3a:	f894 217e 	ldrb.w	r2, [r4, #382]	; 0x17e
                     packType, payloadLen, crcType, whiten};
    3c3e:	f88d 2011 	strb.w	r2, [sp, #17]
    3c42:	2200      	movs	r2, #0
    3c44:	f88d 2010 	strb.w	r2, [sp, #16]
    3c48:	22ff      	movs	r2, #255	; 0xff
    3c4a:	f88d 2012 	strb.w	r2, [sp, #18]
  return(this->mod->SPIwriteStream(RADIOLIB_SX126X_CMD_SET_PACKET_PARAMS, data, 9));
    3c4e:	aa03      	add	r2, sp, #12
    3c50:	f7fc ffee 	bl	c30 <Module::SPIwriteStream(unsigned short, unsigned char*, unsigned int, bool, bool)>
    RADIOLIB_ASSERT(state);
    3c54:	4606      	mov	r6, r0
    3c56:	2800      	cmp	r0, #0
    3c58:	d1ce      	bne.n	3bf8 <SX126x::setCRC(unsigned char, unsigned short, unsigned short, bool)+0xa0>
    uint8_t data[2] = {(uint8_t)((initial >> 8) & 0xFF), (uint8_t)(initial & 0xFF)};
    3c5a:	fa98 f898 	rev16.w	r8, r8
  this->mod->SPIwriteRegisterBurst(addr, data, numBytes);
    3c5e:	aa03      	add	r2, sp, #12
    3c60:	f8d4 015c 	ldr.w	r0, [r4, #348]	; 0x15c
    3c64:	2302      	movs	r3, #2
    3c66:	f240 61bc 	movw	r1, #1724	; 0x6bc
    data[0] = (uint8_t)((polynomial >> 8) & 0xFF);
    3c6a:	fa99 f999 	rev16.w	r9, r9
    uint8_t data[2] = {(uint8_t)((initial >> 8) & 0xFF), (uint8_t)(initial & 0xFF)};
    3c6e:	f8ad 800c 	strh.w	r8, [sp, #12]
  this->mod->SPIwriteRegisterBurst(addr, data, numBytes);
    3c72:	f7fc fe19 	bl	8a8 <Module::SPIwriteRegisterBurst(unsigned long, unsigned char*, unsigned int)>
    3c76:	f8d4 015c 	ldr.w	r0, [r4, #348]	; 0x15c
    3c7a:	2302      	movs	r3, #2
    3c7c:	aa03      	add	r2, sp, #12
    3c7e:	f240 61be 	movw	r1, #1726	; 0x6be
    data[0] = (uint8_t)((polynomial >> 8) & 0xFF);
    3c82:	f8ad 900c 	strh.w	r9, [sp, #12]
  this->mod->SPIwriteRegisterBurst(addr, data, numBytes);
    3c86:	f7fc fe0f 	bl	8a8 <Module::SPIwriteRegisterBurst(unsigned long, unsigned char*, unsigned int)>
}
    3c8a:	4630      	mov	r0, r6
    3c8c:	b007      	add	sp, #28
    3c8e:	e8bd 8ff0 	ldmia.w	sp!, {r4, r5, r6, r7, r8, r9, sl, fp, pc}
        if(inverted) {
    3c92:	f1ba 0f00 	cmp.w	sl, #0
    3c96:	bf18      	it	ne
    3c98:	2506      	movne	r5, #6
    3c9a:	e7b2      	b.n	3c02 <SX126x::setCRC(unsigned char, unsigned short, unsigned short, bool)+0xaa>
        if(inverted) {
    3c9c:	ea4f 0a8a 	mov.w	sl, sl, lsl #2
    3ca0:	fa5f f58a 	uxtb.w	r5, sl
    3ca4:	e7ad      	b.n	3c02 <SX126x::setCRC(unsigned char, unsigned short, unsigned short, bool)+0xaa>
  return(RADIOLIB_ERR_UNKNOWN);
    3ca6:	f04f 36ff 	mov.w	r6, #4294967295
    3caa:	e7a5      	b.n	3bf8 <SX126x::setCRC(unsigned char, unsigned short, unsigned short, bool)+0xa0>

00003cac <SX126x::setPreambleLength(unsigned int)>:
int16_t SX126x::setPreambleLength(size_t preambleLength) {
    3cac:	e92d 47f0 	stmdb	sp!, {r4, r5, r6, r7, r8, r9, sl, lr}
  this->mod->SPIreadStream(RADIOLIB_SX126X_CMD_GET_PACKET_TYPE, &data, 1);
    3cb0:	2301      	movs	r3, #1
int16_t SX126x::setPreambleLength(size_t preambleLength) {
    3cb2:	b086      	sub	sp, #24
  uint8_t data = 0xFF;
    3cb4:	22ff      	movs	r2, #255	; 0xff
int16_t SX126x::setPreambleLength(size_t preambleLength) {
    3cb6:	4604      	mov	r4, r0
    3cb8:	460d      	mov	r5, r1
  this->mod->SPIreadStream(RADIOLIB_SX126X_CMD_GET_PACKET_TYPE, &data, 1);
    3cba:	2111      	movs	r1, #17
  uint8_t data = 0xFF;
    3cbc:	f88d 200c 	strb.w	r2, [sp, #12]
  this->mod->SPIreadStream(RADIOLIB_SX126X_CMD_GET_PACKET_TYPE, &data, 1);
    3cc0:	aa03      	add	r2, sp, #12
    3cc2:	e9cd 3300 	strd	r3, r3, [sp]
    3cc6:	f8d0 015c 	ldr.w	r0, [r0, #348]	; 0x15c
    3cca:	f7fc ff6f 	bl	bac <Module::SPIreadStream(unsigned short, unsigned char*, unsigned int, bool, bool)>
  return(data);
    3cce:	f89d 600c 	ldrb.w	r6, [sp, #12]
  if(modem == RADIOLIB_SX126X_PACKET_TYPE_LORA) {
    3cd2:	2e01      	cmp	r6, #1
    3cd4:	d03e      	beq.n	3d54 <SX126x::setPreambleLength(unsigned int)+0xa8>
  } else if(modem == RADIOLIB_SX126X_PACKET_TYPE_GFSK) {
    3cd6:	2e00      	cmp	r6, #0
    3cd8:	d165      	bne.n	3da6 <SX126x::setPreambleLength(unsigned int)+0xfa>
    uint8_t maxDetLen = RADIOLIB_MIN(this->syncWordLength, this->preambleLengthFSK);
    3cda:	b2ab      	uxth	r3, r5
    3cdc:	f894 217c 	ldrb.w	r2, [r4, #380]	; 0x17c
    this->preambleLengthFSK = preambleLength;
    3ce0:	f8a4 5180 	strh.w	r5, [r4, #384]	; 0x180
    uint8_t maxDetLen = RADIOLIB_MIN(this->syncWordLength, this->preambleLengthFSK);
    3ce4:	4293      	cmp	r3, r2
    3ce6:	bfa8      	it	ge
    3ce8:	4613      	movge	r3, r2
    this->preambleDetLength = maxDetLen >= 32 ? RADIOLIB_SX126X_GFSK_PREAMBLE_DETECT_32 :
    3cea:	2b1f      	cmp	r3, #31
    3cec:	dd28      	ble.n	3d40 <SX126x::setPreambleLength(unsigned int)+0x94>
    3cee:	2107      	movs	r1, #7
                     packType, payloadLen, crcType, whiten};
    3cf0:	ba6d      	rev16	r5, r5
  return(this->mod->SPIwriteStream(RADIOLIB_SX126X_CMD_SET_PACKET_PARAMS, data, 9));
    3cf2:	2301      	movs	r3, #1
    this->preambleDetLength = maxDetLen >= 32 ? RADIOLIB_SX126X_GFSK_PREAMBLE_DETECT_32 :
    3cf4:	f884 1178 	strb.w	r1, [r4, #376]	; 0x178
                     packType, payloadLen, crcType, whiten};
    3cf8:	2000      	movs	r0, #0
    3cfa:	f8ad 500c 	strh.w	r5, [sp, #12]
    3cfe:	f88d 100e 	strb.w	r1, [sp, #14]
    3d02:	21ff      	movs	r1, #255	; 0xff
    3d04:	f88d 0010 	strb.w	r0, [sp, #16]
    3d08:	f88d 200f 	strb.w	r2, [sp, #15]
  return(this->mod->SPIwriteStream(RADIOLIB_SX126X_CMD_SET_PACKET_PARAMS, data, 9));
    3d0c:	aa03      	add	r2, sp, #12
                     packType, payloadLen, crcType, whiten};
    3d0e:	f88d 1012 	strb.w	r1, [sp, #18]
  return(this->mod->SPIwriteStream(RADIOLIB_SX126X_CMD_SET_PACKET_PARAMS, data, 9));
    3d12:	218c      	movs	r1, #140	; 0x8c
    3d14:	e9cd 3300 	strd	r3, r3, [sp]
    return(setPacketParamsFSK(this->preambleLengthFSK, this->preambleDetLength, this->crcTypeFSK, this->syncWordLength, RADIOLIB_SX126X_GFSK_ADDRESS_FILT_OFF, this->whitening, this->packetType));
    3d18:	f894 517b 	ldrb.w	r5, [r4, #379]	; 0x17b
  return(this->mod->SPIwriteStream(RADIOLIB_SX126X_CMD_SET_PACKET_PARAMS, data, 9));
    3d1c:	2309      	movs	r3, #9
    3d1e:	f8d4 015c 	ldr.w	r0, [r4, #348]	; 0x15c
                     packType, payloadLen, crcType, whiten};
    3d22:	f88d 5013 	strb.w	r5, [sp, #19]
    return(setPacketParamsFSK(this->preambleLengthFSK, this->preambleDetLength, this->crcTypeFSK, this->syncWordLength, RADIOLIB_SX126X_GFSK_ADDRESS_FILT_OFF, this->whitening, this->packetType));
    3d26:	f894 517d 	ldrb.w	r5, [r4, #381]	; 0x17d
    3d2a:	f894 417e 	ldrb.w	r4, [r4, #382]	; 0x17e
                     packType, payloadLen, crcType, whiten};
    3d2e:	f88d 5014 	strb.w	r5, [sp, #20]
    3d32:	f88d 4011 	strb.w	r4, [sp, #17]
  return(this->mod->SPIwriteStream(RADIOLIB_SX126X_CMD_SET_PACKET_PARAMS, data, 9));
    3d36:	f7fc ff7b 	bl	c30 <Module::SPIwriteStream(unsigned short, unsigned char*, unsigned int, bool, bool)>
}
    3d3a:	b006      	add	sp, #24
    3d3c:	e8bd 87f0 	ldmia.w	sp!, {r4, r5, r6, r7, r8, r9, sl, pc}
    this->preambleDetLength = maxDetLen >= 32 ? RADIOLIB_SX126X_GFSK_PREAMBLE_DETECT_32 :
    3d40:	2b17      	cmp	r3, #23
    uint8_t maxDetLen = RADIOLIB_MIN(this->syncWordLength, this->preambleLengthFSK);
    3d42:	b2d9      	uxtb	r1, r3
    this->preambleDetLength = maxDetLen >= 32 ? RADIOLIB_SX126X_GFSK_PREAMBLE_DETECT_32 :
    3d44:	dc2b      	bgt.n	3d9e <SX126x::setPreambleLength(unsigned int)+0xf2>
    3d46:	290f      	cmp	r1, #15
    3d48:	d82b      	bhi.n	3da2 <SX126x::setPreambleLength(unsigned int)+0xf6>
    3d4a:	3900      	subs	r1, #0
    3d4c:	bf18      	it	ne
    3d4e:	2101      	movne	r1, #1
    3d50:	0089      	lsls	r1, r1, #2
    3d52:	e7cd      	b.n	3cf0 <SX126x::setPreambleLength(unsigned int)+0x44>
    return(setPacketParams(this->preambleLengthLoRa, this->crcTypeLoRa, this->implicitLen, this->headerType, this->invertIQEnabled));
    3d54:	f894 a198 	ldrb.w	sl, [r4, #408]	; 0x198
  int16_t state = fixInvertedIQ(invertIQ);
    3d58:	4620      	mov	r0, r4
    this->preambleLengthLoRa = preambleLength;
    3d5a:	f8a4 5166 	strh.w	r5, [r4, #358]	; 0x166
  int16_t state = fixInvertedIQ(invertIQ);
    3d5e:	4651      	mov	r1, sl
    return(setPacketParams(this->preambleLengthLoRa, this->crcTypeLoRa, this->implicitLen, this->headerType, this->invertIQEnabled));
    3d60:	f894 7163 	ldrb.w	r7, [r4, #355]	; 0x163
    3d64:	f8d4 8194 	ldr.w	r8, [r4, #404]	; 0x194
    3d68:	f894 9164 	ldrb.w	r9, [r4, #356]	; 0x164
  int16_t state = fixInvertedIQ(invertIQ);
    3d6c:	f7ff fe86 	bl	3a7c <SX126x::fixInvertedIQ(unsigned char)>
  RADIOLIB_ASSERT(state);
    3d70:	2800      	cmp	r0, #0
    3d72:	d1e2      	bne.n	3d3a <SX126x::setPreambleLength(unsigned int)+0x8e>
  uint8_t data[6] = {(uint8_t)((preambleLen >> 8) & 0xFF), (uint8_t)(preambleLen & 0xFF), hdrType, payloadLen, crcType, invertIQ};
    3d74:	ba6d      	rev16	r5, r5
  return(this->mod->SPIwriteStream(RADIOLIB_SX126X_CMD_SET_PACKET_PARAMS, data, 6));
    3d76:	f8d4 015c 	ldr.w	r0, [r4, #348]	; 0x15c
    3d7a:	2306      	movs	r3, #6
    3d7c:	aa03      	add	r2, sp, #12
    3d7e:	218c      	movs	r1, #140	; 0x8c
  uint8_t data[6] = {(uint8_t)((preambleLen >> 8) & 0xFF), (uint8_t)(preambleLen & 0xFF), hdrType, payloadLen, crcType, invertIQ};
    3d80:	f88d 900e 	strb.w	r9, [sp, #14]
    return(setPacketParams(this->preambleLengthLoRa, this->crcTypeLoRa, this->implicitLen, this->headerType, this->invertIQEnabled));
    3d84:	f88d 800f 	strb.w	r8, [sp, #15]
  uint8_t data[6] = {(uint8_t)((preambleLen >> 8) & 0xFF), (uint8_t)(preambleLen & 0xFF), hdrType, payloadLen, crcType, invertIQ};
    3d88:	f88d 7010 	strb.w	r7, [sp, #16]
    3d8c:	f8ad 500c 	strh.w	r5, [sp, #12]
    3d90:	f88d a011 	strb.w	sl, [sp, #17]
  return(this->mod->SPIwriteStream(RADIOLIB_SX126X_CMD_SET_PACKET_PARAMS, data, 6));
    3d94:	e9cd 6600 	strd	r6, r6, [sp]
    3d98:	f7fc ff4a 	bl	c30 <Module::SPIwriteStream(unsigned short, unsigned char*, unsigned int, bool, bool)>
    3d9c:	e7cd      	b.n	3d3a <SX126x::setPreambleLength(unsigned int)+0x8e>
    this->preambleDetLength = maxDetLen >= 32 ? RADIOLIB_SX126X_GFSK_PREAMBLE_DETECT_32 :
    3d9e:	2106      	movs	r1, #6
    3da0:	e7a6      	b.n	3cf0 <SX126x::setPreambleLength(unsigned int)+0x44>
    3da2:	2105      	movs	r1, #5
    3da4:	e7a4      	b.n	3cf0 <SX126x::setPreambleLength(unsigned int)+0x44>
  return(RADIOLIB_ERR_UNKNOWN);
    3da6:	f04f 30ff 	mov.w	r0, #4294967295
    3daa:	e7c6      	b.n	3d3a <SX126x::setPreambleLength(unsigned int)+0x8e>

00003dac <SX126x::startTransmit(unsigned char const*, unsigned int, unsigned char)>:
  if(len > RADIOLIB_SX126X_MAX_PACKET_LENGTH) {
    3dac:	2aff      	cmp	r2, #255	; 0xff
int16_t SX126x::startTransmit(const uint8_t* data, size_t len, uint8_t addr) {
    3dae:	e92d 4ff0 	stmdb	sp!, {r4, r5, r6, r7, r8, r9, sl, fp, lr}
    3db2:	b0c9      	sub	sp, #292	; 0x124
  if(len > RADIOLIB_SX126X_MAX_PACKET_LENGTH) {
    3db4:	f200 815f 	bhi.w	4076 <SX126x::startTransmit(unsigned char const*, unsigned int, unsigned char)+0x2ca>
  this->mod->SPIreadStream(RADIOLIB_SX126X_CMD_GET_PACKET_TYPE, &data, 1);
    3db8:	2401      	movs	r4, #1
  uint8_t data = 0xFF;
    3dba:	23ff      	movs	r3, #255	; 0xff
    3dbc:	4690      	mov	r8, r2
    3dbe:	4605      	mov	r5, r0
    3dc0:	f88d 3020 	strb.w	r3, [sp, #32]
  this->mod->SPIreadStream(RADIOLIB_SX126X_CMD_GET_PACKET_TYPE, &data, 1);
    3dc4:	460f      	mov	r7, r1
    3dc6:	4623      	mov	r3, r4
    3dc8:	aa08      	add	r2, sp, #32
    3dca:	2111      	movs	r1, #17
    3dcc:	e9cd 4400 	strd	r4, r4, [sp]
    3dd0:	f8d0 015c 	ldr.w	r0, [r0, #348]	; 0x15c
    3dd4:	f7fc feea 	bl	bac <Module::SPIreadStream(unsigned short, unsigned char*, unsigned int, bool, bool)>
  return(data);
    3dd8:	f89d 6020 	ldrb.w	r6, [sp, #32]
  if(modem == RADIOLIB_SX126X_PACKET_TYPE_LORA) {
    3ddc:	42a6      	cmp	r6, r4
    3dde:	f000 8122 	beq.w	4026 <SX126x::startTransmit(unsigned char const*, unsigned int, unsigned char)+0x27a>
  } else if(modem == RADIOLIB_SX126X_PACKET_TYPE_GFSK) {
    3de2:	2e00      	cmp	r6, #0
    3de4:	d07e      	beq.n	3ee4 <SX126x::startTransmit(unsigned char const*, unsigned int, unsigned char)+0x138>
  } else if(modem != RADIOLIB_SX126X_PACKET_TYPE_LR_FHSS) {
    3de6:	2e03      	cmp	r6, #3
    3de8:	f040 8148 	bne.w	407c <SX126x::startTransmit(unsigned char const*, unsigned int, unsigned char)+0x2d0>
                     (uint8_t)((dio3Mask >> 8) & 0xFF), (uint8_t)(dio3Mask & 0xFF)};
    3dec:	49a5      	ldr	r1, [pc, #660]	; (4084 <SX126x::startTransmit(unsigned char const*, unsigned int, unsigned char)+0x2d8>)
    3dee:	2200      	movs	r2, #0
  return(this->mod->SPIwriteStream(RADIOLIB_SX126X_CMD_SET_DIO_IRQ_PARAMS, data, 8));
    3df0:	2308      	movs	r3, #8
    3df2:	e9cd 4400 	strd	r4, r4, [sp]
                     (uint8_t)((dio3Mask >> 8) & 0xFF), (uint8_t)(dio3Mask & 0xFF)};
    3df6:	e9cd 1208 	strd	r1, r2, [sp, #32]
  return(this->mod->SPIwriteStream(RADIOLIB_SX126X_CMD_SET_DIO_IRQ_PARAMS, data, 8));
    3dfa:	aa08      	add	r2, sp, #32
    3dfc:	4619      	mov	r1, r3
    3dfe:	f8d5 015c 	ldr.w	r0, [r5, #348]	; 0x15c
    3e02:	f7fc ff15 	bl	c30 <Module::SPIwriteStream(unsigned short, unsigned char*, unsigned int, bool, bool)>
    3e06:	4604      	mov	r4, r0
  RADIOLIB_ASSERT(state);
    3e08:	b11c      	cbz	r4, 3e12 <SX126x::startTransmit(unsigned char const*, unsigned int, unsigned char)+0x66>
}
    3e0a:	4620      	mov	r0, r4
    3e0c:	b049      	add	sp, #292	; 0x124
    3e0e:	e8bd 8ff0 	ldmia.w	sp!, {r4, r5, r6, r7, r8, r9, sl, fp, pc}
  return(this->mod->SPIwriteStream(RADIOLIB_SX126X_CMD_SET_BUFFER_BASE_ADDRESS, data, 2));
    3e12:	f04f 0901 	mov.w	r9, #1
    3e16:	2302      	movs	r3, #2
    3e18:	aa08      	add	r2, sp, #32
    3e1a:	218f      	movs	r1, #143	; 0x8f
  uint8_t data[2] = {txBaseAddress, rxBaseAddress};
    3e1c:	f8ad 4020 	strh.w	r4, [sp, #32]
  return(this->mod->SPIwriteStream(RADIOLIB_SX126X_CMD_SET_BUFFER_BASE_ADDRESS, data, 2));
    3e20:	e9cd 9900 	strd	r9, r9, [sp]
    3e24:	f8d5 015c 	ldr.w	r0, [r5, #348]	; 0x15c
    3e28:	f7fc ff02 	bl	c30 <Module::SPIwriteStream(unsigned short, unsigned char*, unsigned int, bool, bool)>
  RADIOLIB_ASSERT(state);
    3e2c:	4604      	mov	r4, r0
    3e2e:	2800      	cmp	r0, #0
    3e30:	d1eb      	bne.n	3e0a <SX126x::startTransmit(unsigned char const*, unsigned int, unsigned char)+0x5e>
  if(modem != RADIOLIB_SX126X_PACKET_TYPE_LR_FHSS) {
    3e32:	2e03      	cmp	r6, #3
    3e34:	f000 8088 	beq.w	3f48 <SX126x::startTransmit(unsigned char const*, unsigned int, unsigned char)+0x19c>
  uint8_t cmd[] = { RADIOLIB_SX126X_CMD_WRITE_BUFFER, offset };
    3e38:	210e      	movs	r1, #14
  return(this->mod->SPIwriteStream(cmd, 2, data, numBytes));
    3e3a:	f8cd 8000 	str.w	r8, [sp]
    3e3e:	463b      	mov	r3, r7
    3e40:	2202      	movs	r2, #2
  uint8_t cmd[] = { RADIOLIB_SX126X_CMD_WRITE_BUFFER, offset };
    3e42:	f8ad 1020 	strh.w	r1, [sp, #32]
  return(this->mod->SPIwriteStream(cmd, 2, data, numBytes));
    3e46:	a908      	add	r1, sp, #32
    3e48:	e9cd 9901 	strd	r9, r9, [sp, #4]
    3e4c:	f8d5 015c 	ldr.w	r0, [r5, #348]	; 0x15c
    3e50:	f7fc fe50 	bl	af4 <Module::SPIwriteStream(unsigned char*, unsigned char, unsigned char*, unsigned int, bool, bool)>
  RADIOLIB_ASSERT(state);
    3e54:	4604      	mov	r4, r0
    3e56:	2800      	cmp	r0, #0
    3e58:	d1d7      	bne.n	3e0a <SX126x::startTransmit(unsigned char const*, unsigned int, unsigned char)+0x5e>
  state = clearIrqStatus();
    3e5a:	682b      	ldr	r3, [r5, #0]
    3e5c:	4a8a      	ldr	r2, [pc, #552]	; (4088 <SX126x::startTransmit(unsigned char const*, unsigned int, unsigned char)+0x2dc>)
    3e5e:	f8d3 30c8 	ldr.w	r3, [r3, #200]	; 0xc8
    3e62:	4293      	cmp	r3, r2
    3e64:	f040 8101 	bne.w	406a <SX126x::startTransmit(unsigned char const*, unsigned int, unsigned char)+0x2be>
  return(this->mod->SPIwriteStream(RADIOLIB_SX126X_CMD_CLEAR_IRQ_STATUS, data, 2));
    3e68:	2201      	movs	r2, #1
    3e6a:	2302      	movs	r3, #2
  uint8_t data[] = { (uint8_t)((clearIrqParams >> 8) & 0xFF), (uint8_t)(clearIrqParams & 0xFF) };
    3e6c:	f64f 7143 	movw	r1, #65347	; 0xff43
  return(this->mod->SPIwriteStream(RADIOLIB_SX126X_CMD_CLEAR_IRQ_STATUS, data, 2));
    3e70:	e9cd 2200 	strd	r2, r2, [sp]
  uint8_t data[] = { (uint8_t)((clearIrqParams >> 8) & 0xFF), (uint8_t)(clearIrqParams & 0xFF) };
    3e74:	f8ad 1020 	strh.w	r1, [sp, #32]
  return(this->mod->SPIwriteStream(RADIOLIB_SX126X_CMD_CLEAR_IRQ_STATUS, data, 2));
    3e78:	aa08      	add	r2, sp, #32
    3e7a:	4619      	mov	r1, r3
    3e7c:	f8d5 015c 	ldr.w	r0, [r5, #348]	; 0x15c
    3e80:	f7fc fed6 	bl	c30 <Module::SPIwriteStream(unsigned short, unsigned char*, unsigned int, bool, bool)>
    3e84:	4604      	mov	r4, r0
  RADIOLIB_ASSERT(state);
    3e86:	2c00      	cmp	r4, #0
    3e88:	d1bf      	bne.n	3e0a <SX126x::startTransmit(unsigned char const*, unsigned int, unsigned char)+0x5e>
  state = fixSensitivity();
    3e8a:	4628      	mov	r0, r5
    3e8c:	f7ff fc00 	bl	3690 <SX126x::fixSensitivity()>
  RADIOLIB_ASSERT(state);
    3e90:	4604      	mov	r4, r0
    3e92:	2800      	cmp	r0, #0
    3e94:	d1b9      	bne.n	3e0a <SX126x::startTransmit(unsigned char const*, unsigned int, unsigned char)+0x5e>
  this->mod->setRfSwitchState(this->txMode);
    3e96:	f895 1158 	ldrb.w	r1, [r5, #344]	; 0x158
    3e9a:	f8d5 015c 	ldr.w	r0, [r5, #348]	; 0x15c
    3e9e:	f7fc ff49 	bl	d34 <Module::setRfSwitchState(unsigned char)>
  return(this->mod->SPIwriteStream(RADIOLIB_SX126X_CMD_SET_TX, data, 3));
    3ea2:	2201      	movs	r2, #1
    3ea4:	2303      	movs	r3, #3
    3ea6:	2183      	movs	r1, #131	; 0x83
  uint8_t data[] = { (uint8_t)((timeout >> 16) & 0xFF), (uint8_t)((timeout >> 8) & 0xFF), (uint8_t)(timeout & 0xFF)} ;
    3ea8:	f8ad 4020 	strh.w	r4, [sp, #32]
    3eac:	f88d 4022 	strb.w	r4, [sp, #34]	; 0x22
  return(this->mod->SPIwriteStream(RADIOLIB_SX126X_CMD_SET_TX, data, 3));
    3eb0:	e9cd 2200 	strd	r2, r2, [sp]
    3eb4:	aa08      	add	r2, sp, #32
    3eb6:	f8d5 015c 	ldr.w	r0, [r5, #348]	; 0x15c
    3eba:	f7fc feb9 	bl	c30 <Module::SPIwriteStream(unsigned short, unsigned char*, unsigned int, bool, bool)>
  RADIOLIB_ASSERT(state);
    3ebe:	4604      	mov	r4, r0
    3ec0:	b130      	cbz	r0, 3ed0 <SX126x::startTransmit(unsigned char const*, unsigned int, unsigned char)+0x124>
    3ec2:	e7a2      	b.n	3e0a <SX126x::startTransmit(unsigned char const*, unsigned int, unsigned char)+0x5e>
    this->mod->hal->yield();
    3ec4:	f8d5 315c 	ldr.w	r3, [r5, #348]	; 0x15c
    3ec8:	6818      	ldr	r0, [r3, #0]
    3eca:	6803      	ldr	r3, [r0, #0]
    3ecc:	6cdb      	ldr	r3, [r3, #76]	; 0x4c
    3ece:	4798      	blx	r3
  while(this->mod->hal->digitalRead(this->mod->getGpio())) {
    3ed0:	f8d5 315c 	ldr.w	r3, [r5, #348]	; 0x15c
    3ed4:	6818      	ldr	r0, [r3, #0]
    3ed6:	6ad9      	ldr	r1, [r3, #44]	; 0x2c
    3ed8:	6803      	ldr	r3, [r0, #0]
    3eda:	689b      	ldr	r3, [r3, #8]
    3edc:	4798      	blx	r3
    3ede:	2800      	cmp	r0, #0
    3ee0:	d1f0      	bne.n	3ec4 <SX126x::startTransmit(unsigned char const*, unsigned int, unsigned char)+0x118>
    3ee2:	e792      	b.n	3e0a <SX126x::startTransmit(unsigned char const*, unsigned int, unsigned char)+0x5e>
  return(this->mod->SPIwriteStream(RADIOLIB_SX126X_CMD_SET_PACKET_PARAMS, data, 9));
    3ee4:	e9cd 4400 	strd	r4, r4, [sp]
                     packType, payloadLen, crcType, whiten};
    3ee8:	f8b5 3180 	ldrh.w	r3, [r5, #384]	; 0x180
    3eec:	f88d 6024 	strb.w	r6, [sp, #36]	; 0x24
    3ef0:	ba5b      	rev16	r3, r3
    state = setPacketParamsFSK(this->preambleLengthFSK, this->preambleDetLength, this->crcTypeFSK, this->syncWordLength, RADIOLIB_SX126X_GFSK_ADDRESS_FILT_OFF, this->whitening, this->packetType, len);
    3ef2:	f88d 8026 	strb.w	r8, [sp, #38]	; 0x26
                     packType, payloadLen, crcType, whiten};
    3ef6:	f8ad 3020 	strh.w	r3, [sp, #32]
    state = setPacketParamsFSK(this->preambleLengthFSK, this->preambleDetLength, this->crcTypeFSK, this->syncWordLength, RADIOLIB_SX126X_GFSK_ADDRESS_FILT_OFF, this->whitening, this->packetType, len);
    3efa:	f895 3178 	ldrb.w	r3, [r5, #376]	; 0x178
                     packType, payloadLen, crcType, whiten};
    3efe:	f88d 3022 	strb.w	r3, [sp, #34]	; 0x22
    state = setPacketParamsFSK(this->preambleLengthFSK, this->preambleDetLength, this->crcTypeFSK, this->syncWordLength, RADIOLIB_SX126X_GFSK_ADDRESS_FILT_OFF, this->whitening, this->packetType, len);
    3f02:	f895 317b 	ldrb.w	r3, [r5, #379]	; 0x17b
                     packType, payloadLen, crcType, whiten};
    3f06:	f88d 3027 	strb.w	r3, [sp, #39]	; 0x27
    state = setPacketParamsFSK(this->preambleLengthFSK, this->preambleDetLength, this->crcTypeFSK, this->syncWordLength, RADIOLIB_SX126X_GFSK_ADDRESS_FILT_OFF, this->whitening, this->packetType, len);
    3f0a:	f895 317c 	ldrb.w	r3, [r5, #380]	; 0x17c
                     packType, payloadLen, crcType, whiten};
    3f0e:	f88d 3023 	strb.w	r3, [sp, #35]	; 0x23
    state = setPacketParamsFSK(this->preambleLengthFSK, this->preambleDetLength, this->crcTypeFSK, this->syncWordLength, RADIOLIB_SX126X_GFSK_ADDRESS_FILT_OFF, this->whitening, this->packetType, len);
    3f12:	f895 317d 	ldrb.w	r3, [r5, #381]	; 0x17d
                     packType, payloadLen, crcType, whiten};
    3f16:	f88d 3028 	strb.w	r3, [sp, #40]	; 0x28
    state = setPacketParamsFSK(this->preambleLengthFSK, this->preambleDetLength, this->crcTypeFSK, this->syncWordLength, RADIOLIB_SX126X_GFSK_ADDRESS_FILT_OFF, this->whitening, this->packetType, len);
    3f1a:	f895 317e 	ldrb.w	r3, [r5, #382]	; 0x17e
                     packType, payloadLen, crcType, whiten};
    3f1e:	f88d 3025 	strb.w	r3, [sp, #37]	; 0x25
  return(this->mod->SPIwriteStream(RADIOLIB_SX126X_CMD_SET_PACKET_PARAMS, data, 9));
    3f22:	2309      	movs	r3, #9
    3f24:	aa08      	add	r2, sp, #32
    3f26:	218c      	movs	r1, #140	; 0x8c
    3f28:	f8d5 015c 	ldr.w	r0, [r5, #348]	; 0x15c
    3f2c:	f7fc fe80 	bl	c30 <Module::SPIwriteStream(unsigned short, unsigned char*, unsigned int, bool, bool)>
    3f30:	4604      	mov	r4, r0
  RADIOLIB_ASSERT(state);
    3f32:	2800      	cmp	r0, #0
    3f34:	f47f af69 	bne.w	3e0a <SX126x::startTransmit(unsigned char const*, unsigned int, unsigned char)+0x5e>
  return(this->mod->SPIwriteStream(RADIOLIB_SX126X_CMD_SET_DIO_IRQ_PARAMS, data, 8));
    3f38:	2301      	movs	r3, #1
                     (uint8_t)((dio3Mask >> 8) & 0xFF), (uint8_t)(dio3Mask & 0xFF)};
    3f3a:	4a54      	ldr	r2, [pc, #336]	; (408c <SX126x::startTransmit(unsigned char const*, unsigned int, unsigned char)+0x2e0>)
    3f3c:	9409      	str	r4, [sp, #36]	; 0x24
    3f3e:	9208      	str	r2, [sp, #32]
  return(this->mod->SPIwriteStream(RADIOLIB_SX126X_CMD_SET_DIO_IRQ_PARAMS, data, 8));
    3f40:	e9cd 3300 	strd	r3, r3, [sp]
    3f44:	2308      	movs	r3, #8
    3f46:	e758      	b.n	3dfa <SX126x::startTransmit(unsigned char const*, unsigned int, unsigned char)+0x4e>
    state = resetLRFHSS();
    3f48:	4628      	mov	r0, r5
    3f4a:	f000 ff11 	bl	4d70 <SX126x::resetLRFHSS()>
    RADIOLIB_ASSERT(state);
    3f4e:	4604      	mov	r4, r0
    3f50:	2800      	cmp	r0, #0
    3f52:	f47f af5a 	bne.w	3e0a <SX126x::startTransmit(unsigned char const*, unsigned int, unsigned char)+0x5e>
    for(int i = 0; i < 4 - this->lrFhssHdrCount; ++i ) {
    3f56:	f895 319b 	ldrb.w	r3, [r5, #411]	; 0x19b
    3f5a:	2b04      	cmp	r3, #4
    3f5c:	da09      	bge.n	3f72 <SX126x::startTransmit(unsigned char const*, unsigned int, unsigned char)+0x1c6>
      stepLRFHSS();
    3f5e:	4628      	mov	r0, r5
    for(int i = 0; i < 4 - this->lrFhssHdrCount; ++i ) {
    3f60:	3401      	adds	r4, #1
      stepLRFHSS();
    3f62:	f000 ffe5 	bl	4f30 <SX126x::stepLRFHSS()>
    for(int i = 0; i < 4 - this->lrFhssHdrCount; ++i ) {
    3f66:	f895 319b 	ldrb.w	r3, [r5, #411]	; 0x19b
    3f6a:	f1c3 0304 	rsb	r3, r3, #4
    3f6e:	42a3      	cmp	r3, r4
    3f70:	dcf5      	bgt.n	3f5e <SX126x::startTransmit(unsigned char const*, unsigned int, unsigned char)+0x1b2>
    uint8_t frame[RADIOLIB_SX126X_MAX_PACKET_LENGTH] = { 0 };
    3f72:	2400      	movs	r4, #0
    3f74:	22fb      	movs	r2, #251	; 0xfb
    3f76:	a809      	add	r0, sp, #36	; 0x24
    size_t frameLen = 0;
    3f78:	ae07      	add	r6, sp, #28
    uint8_t frame[RADIOLIB_SX126X_MAX_PACKET_LENGTH] = { 0 };
    3f7a:	4621      	mov	r1, r4
    3f7c:	9408      	str	r4, [sp, #32]
    3f7e:	f004 fb4f 	bl	8620 <memset>
    state = buildLRFHSSPacket(const_cast<uint8_t*>(data), len, frame, &frameLen, &this->lrFhssFrameBitsRem, &this->lrFhssFrameHopsRem);
    3f82:	f505 73d8 	add.w	r3, r5, #432	; 0x1b0
    this->lrFhssHopNum = 0;
    3f86:	f8c5 41b4 	str.w	r4, [r5, #436]	; 0x1b4
    state = buildLRFHSSPacket(const_cast<uint8_t*>(data), len, frame, &frameLen, &this->lrFhssFrameBitsRem, &this->lrFhssFrameHopsRem);
    3f8a:	4642      	mov	r2, r8
    3f8c:	4639      	mov	r1, r7
    3f8e:	4628      	mov	r0, r5
    size_t frameLen = 0;
    3f90:	9407      	str	r4, [sp, #28]
    this->lrFhssFrameHopsRem = 0;
    3f92:	e9c5 446b 	strd	r4, r4, [r5, #428]	; 0x1ac
    state = buildLRFHSSPacket(const_cast<uint8_t*>(data), len, frame, &frameLen, &this->lrFhssFrameBitsRem, &this->lrFhssFrameHopsRem);
    3f96:	9302      	str	r3, [sp, #8]
    3f98:	f505 73d6 	add.w	r3, r5, #428	; 0x1ac
    3f9c:	9600      	str	r6, [sp, #0]
    3f9e:	9301      	str	r3, [sp, #4]
    3fa0:	ab08      	add	r3, sp, #32
    3fa2:	f000 fbfb 	bl	479c <SX126x::buildLRFHSSPacket(unsigned char const*, unsigned int, unsigned char*, unsigned int*, unsigned int*, unsigned int*)>
    RADIOLIB_ASSERT(state);
    3fa6:	4604      	mov	r4, r0
    3fa8:	2800      	cmp	r0, #0
    3faa:	f47f af2e 	bne.w	3e0a <SX126x::startTransmit(unsigned char const*, unsigned int, unsigned char)+0x5e>
  uint8_t cmd[] = { RADIOLIB_SX126X_CMD_WRITE_BUFFER, offset };
    3fae:	230e      	movs	r3, #14
  return(this->mod->SPIwriteStream(cmd, 2, data, numBytes));
    3fb0:	2701      	movs	r7, #1
    3fb2:	2202      	movs	r2, #2
    3fb4:	a906      	add	r1, sp, #24
  uint8_t cmd[] = { RADIOLIB_SX126X_CMD_WRITE_BUFFER, offset };
    3fb6:	f8ad 3018 	strh.w	r3, [sp, #24]
  return(this->mod->SPIwriteStream(cmd, 2, data, numBytes));
    3fba:	f89d 301c 	ldrb.w	r3, [sp, #28]
    3fbe:	e9cd 7701 	strd	r7, r7, [sp, #4]
    3fc2:	9300      	str	r3, [sp, #0]
    3fc4:	ab08      	add	r3, sp, #32
    3fc6:	f8d5 015c 	ldr.w	r0, [r5, #348]	; 0x15c
    3fca:	f7fc fd93 	bl	af4 <Module::SPIwriteStream(unsigned char*, unsigned char, unsigned char*, unsigned int, bool, bool)>
    RADIOLIB_ASSERT(state);
    3fce:	4604      	mov	r4, r0
    3fd0:	2800      	cmp	r0, #0
    3fd2:	f47f af1a 	bne.w	3e0a <SX126x::startTransmit(unsigned char const*, unsigned int, unsigned char)+0x5e>
    uint8_t hopCfg[] = { RADIOLIB_SX126X_HOPPING_ENABLED, (uint8_t)frameLen, (uint8_t)this->lrFhssFrameHopsRem };
    3fd6:	9b07      	ldr	r3, [sp, #28]
  this->mod->SPIwriteRegisterBurst(addr, data, numBytes);
    3fd8:	aa06      	add	r2, sp, #24
    3fda:	f240 3185 	movw	r1, #901	; 0x385
    3fde:	f8d5 015c 	ldr.w	r0, [r5, #348]	; 0x15c
    uint8_t hopCfg[] = { RADIOLIB_SX126X_HOPPING_ENABLED, (uint8_t)frameLen, (uint8_t)this->lrFhssFrameHopsRem };
    3fe2:	f88d 3019 	strb.w	r3, [sp, #25]
    3fe6:	f8d5 31b0 	ldr.w	r3, [r5, #432]	; 0x1b0
    3fea:	f88d 7018 	strb.w	r7, [sp, #24]
    3fee:	f88d 301a 	strb.w	r3, [sp, #26]
  this->mod->SPIwriteRegisterBurst(addr, data, numBytes);
    3ff2:	2303      	movs	r3, #3
    3ff4:	f7fc fc58 	bl	8a8 <Module::SPIwriteRegisterBurst(unsigned long, unsigned char*, unsigned int)>
    uint8_t initHops = this->lrFhssFrameHopsRem;
    3ff8:	f895 31b0 	ldrb.w	r3, [r5, #432]	; 0x1b0
    for(size_t i = 0; i < initHops; i++) {
    3ffc:	2b10      	cmp	r3, #16
    3ffe:	461f      	mov	r7, r3
    4000:	bf28      	it	cs
    4002:	2710      	movcs	r7, #16
    4004:	2b00      	cmp	r3, #0
    4006:	f43f af28 	beq.w	3e5a <SX126x::startTransmit(unsigned char const*, unsigned int, unsigned char)+0xae>
    400a:	4626      	mov	r6, r4
    400c:	e002      	b.n	4014 <SX126x::startTransmit(unsigned char const*, unsigned int, unsigned char)+0x268>
    400e:	42b7      	cmp	r7, r6
    4010:	f43f af23 	beq.w	3e5a <SX126x::startTransmit(unsigned char const*, unsigned int, unsigned char)+0xae>
      state = this->setLRFHSSHop(i);
    4014:	b2f1      	uxtb	r1, r6
    4016:	4628      	mov	r0, r5
    4018:	f000 ffa6 	bl	4f68 <SX126x::setLRFHSSHop(unsigned char)>
    for(size_t i = 0; i < initHops; i++) {
    401c:	3601      	adds	r6, #1
      RADIOLIB_ASSERT(state);
    401e:	4604      	mov	r4, r0
    4020:	2800      	cmp	r0, #0
    4022:	d0f4      	beq.n	400e <SX126x::startTransmit(unsigned char const*, unsigned int, unsigned char)+0x262>
    4024:	e6f1      	b.n	3e0a <SX126x::startTransmit(unsigned char const*, unsigned int, unsigned char)+0x5e>
    state = setPacketParams(this->preambleLengthLoRa, this->crcTypeLoRa, len, this->headerType, this->invertIQEnabled);
    4026:	f895 a198 	ldrb.w	sl, [r5, #408]	; 0x198
  int16_t state = fixInvertedIQ(invertIQ);
    402a:	4628      	mov	r0, r5
    402c:	f8b5 9166 	ldrh.w	r9, [r5, #358]	; 0x166
    state = setPacketParams(this->preambleLengthLoRa, this->crcTypeLoRa, len, this->headerType, this->invertIQEnabled);
    4030:	f895 3163 	ldrb.w	r3, [r5, #355]	; 0x163
  int16_t state = fixInvertedIQ(invertIQ);
    4034:	4651      	mov	r1, sl
    state = setPacketParams(this->preambleLengthLoRa, this->crcTypeLoRa, len, this->headerType, this->invertIQEnabled);
    4036:	f895 b164 	ldrb.w	fp, [r5, #356]	; 0x164
    403a:	fa99 f999 	rev16.w	r9, r9
    403e:	9305      	str	r3, [sp, #20]
  int16_t state = fixInvertedIQ(invertIQ);
    4040:	f7ff fd1c 	bl	3a7c <SX126x::fixInvertedIQ(unsigned char)>
  RADIOLIB_ASSERT(state);
    4044:	4604      	mov	r4, r0
    4046:	2800      	cmp	r0, #0
    4048:	f47f aedf 	bne.w	3e0a <SX126x::startTransmit(unsigned char const*, unsigned int, unsigned char)+0x5e>
  uint8_t data[6] = {(uint8_t)((preambleLen >> 8) & 0xFF), (uint8_t)(preambleLen & 0xFF), hdrType, payloadLen, crcType, invertIQ};
    404c:	9b05      	ldr	r3, [sp, #20]
    404e:	f8ad 9020 	strh.w	r9, [sp, #32]
    4052:	f88d 3024 	strb.w	r3, [sp, #36]	; 0x24
  return(this->mod->SPIwriteStream(RADIOLIB_SX126X_CMD_SET_PACKET_PARAMS, data, 6));
    4056:	2306      	movs	r3, #6
  uint8_t data[6] = {(uint8_t)((preambleLen >> 8) & 0xFF), (uint8_t)(preambleLen & 0xFF), hdrType, payloadLen, crcType, invertIQ};
    4058:	f88d b022 	strb.w	fp, [sp, #34]	; 0x22
    405c:	f88d a025 	strb.w	sl, [sp, #37]	; 0x25
    state = setPacketParams(this->preambleLengthLoRa, this->crcTypeLoRa, len, this->headerType, this->invertIQEnabled);
    4060:	f88d 8023 	strb.w	r8, [sp, #35]	; 0x23
  return(this->mod->SPIwriteStream(RADIOLIB_SX126X_CMD_SET_PACKET_PARAMS, data, 6));
    4064:	e9cd 6600 	strd	r6, r6, [sp]
    4068:	e75c      	b.n	3f24 <SX126x::startTransmit(unsigned char const*, unsigned int, unsigned char)+0x178>
  state = clearIrqStatus();
    406a:	f244 31ff 	movw	r1, #17407	; 0x43ff
    406e:	4628      	mov	r0, r5
    4070:	4798      	blx	r3
    4072:	4604      	mov	r4, r0
    4074:	e707      	b.n	3e86 <SX126x::startTransmit(unsigned char const*, unsigned int, unsigned char)+0xda>
    return(RADIOLIB_ERR_PACKET_TOO_LONG);
    4076:	f06f 0403 	mvn.w	r4, #3
    407a:	e6c6      	b.n	3e0a <SX126x::startTransmit(unsigned char const*, unsigned int, unsigned char)+0x5e>
    return(RADIOLIB_ERR_UNKNOWN);
    407c:	f04f 34ff 	mov.w	r4, #4294967295
    4080:	e6c3      	b.n	3e0a <SX126x::startTransmit(unsigned char const*, unsigned int, unsigned char)+0x5e>
    4082:	bf00      	nop
    4084:	01400140 	.word	0x01400140
    4088:	000015ad 	.word	0x000015ad
    408c:	01000102 	.word	0x01000102

00004090 <SX126x::startReceiveCommon(unsigned long, unsigned long, unsigned long)>:
int16_t SX126x::startReceiveCommon(uint32_t timeout, RadioLibIrqFlags_t irqFlags, RadioLibIrqFlags_t irqMask) {
    4090:	e92d 47f0 	stmdb	sp!, {r4, r5, r6, r7, r8, r9, sl, lr}
    4094:	461d      	mov	r5, r3
  int16_t state = standby();
    4096:	6803      	ldr	r3, [r0, #0]
int16_t SX126x::startReceiveCommon(uint32_t timeout, RadioLibIrqFlags_t irqFlags, RadioLibIrqFlags_t irqMask) {
    4098:	b086      	sub	sp, #24
    409a:	4604      	mov	r4, r0
  int16_t state = standby();
    409c:	689b      	ldr	r3, [r3, #8]
int16_t SX126x::startReceiveCommon(uint32_t timeout, RadioLibIrqFlags_t irqFlags, RadioLibIrqFlags_t irqMask) {
    409e:	460f      	mov	r7, r1
    40a0:	4616      	mov	r6, r2
  int16_t state = standby();
    40a2:	4798      	blx	r3
  RADIOLIB_ASSERT(state);
    40a4:	bb10      	cbnz	r0, 40ec <SX126x::startReceiveCommon(unsigned long, unsigned long, unsigned long)+0x5c>
  if(timeout != RADIOLIB_SX126X_RX_TIMEOUT_INF) {
    40a6:	f06f 437f 	mvn.w	r3, #4278190080	; 0xff000000
  state = setDioIrqParams(getIrqMapped(irqFlags), getIrqMapped(irqMask));
    40aa:	4631      	mov	r1, r6
    40ac:	4620      	mov	r0, r4
  return(this->mod->SPIwriteStream(RADIOLIB_SX126X_CMD_SET_DIO_IRQ_PARAMS, data, 8));
    40ae:	2601      	movs	r6, #1
  if(timeout != RADIOLIB_SX126X_RX_TIMEOUT_INF) {
    40b0:	429f      	cmp	r7, r3
    irqMask |= (1UL << RADIOLIB_IRQ_TIMEOUT);
    40b2:	bf18      	it	ne
    40b4:	f445 7500 	orrne.w	r5, r5, #512	; 0x200
  state = setDioIrqParams(getIrqMapped(irqFlags), getIrqMapped(irqMask));
    40b8:	f001 f8e4 	bl	5284 <PhysicalLayer::getIrqMapped(unsigned long)>
    40bc:	4603      	mov	r3, r0
    40be:	4620      	mov	r0, r4
    40c0:	4629      	mov	r1, r5
    40c2:	461d      	mov	r5, r3
    40c4:	f001 f8de 	bl	5284 <PhysicalLayer::getIrqMapped(unsigned long)>
                     (uint8_t)((dio3Mask >> 8) & 0xFF), (uint8_t)(dio3Mask & 0xFF)};
    40c8:	2200      	movs	r2, #0
    40ca:	ba40      	rev16	r0, r0
  return(this->mod->SPIwriteStream(RADIOLIB_SX126X_CMD_SET_DIO_IRQ_PARAMS, data, 8));
    40cc:	2308      	movs	r3, #8
                     (uint8_t)((dio3Mask >> 8) & 0xFF), (uint8_t)(dio3Mask & 0xFF)};
    40ce:	ba6d      	rev16	r5, r5
    40d0:	9204      	str	r2, [sp, #16]
  return(this->mod->SPIwriteStream(RADIOLIB_SX126X_CMD_SET_DIO_IRQ_PARAMS, data, 8));
    40d2:	aa03      	add	r2, sp, #12
                     (uint8_t)((dio3Mask >> 8) & 0xFF), (uint8_t)(dio3Mask & 0xFF)};
    40d4:	f8ad 000e 	strh.w	r0, [sp, #14]
  return(this->mod->SPIwriteStream(RADIOLIB_SX126X_CMD_SET_DIO_IRQ_PARAMS, data, 8));
    40d8:	4619      	mov	r1, r3
                     (uint8_t)((dio3Mask >> 8) & 0xFF), (uint8_t)(dio3Mask & 0xFF)};
    40da:	f8ad 500c 	strh.w	r5, [sp, #12]
  return(this->mod->SPIwriteStream(RADIOLIB_SX126X_CMD_SET_DIO_IRQ_PARAMS, data, 8));
    40de:	e9cd 6600 	strd	r6, r6, [sp]
    40e2:	f8d4 015c 	ldr.w	r0, [r4, #348]	; 0x15c
    40e6:	f7fc fda3 	bl	c30 <Module::SPIwriteStream(unsigned short, unsigned char*, unsigned int, bool, bool)>
  RADIOLIB_ASSERT(state);
    40ea:	b110      	cbz	r0, 40f2 <SX126x::startReceiveCommon(unsigned long, unsigned long, unsigned long)+0x62>
}
    40ec:	b006      	add	sp, #24
    40ee:	e8bd 87f0 	ldmia.w	sp!, {r4, r5, r6, r7, r8, r9, sl, pc}
  return(this->mod->SPIwriteStream(RADIOLIB_SX126X_CMD_SET_BUFFER_BASE_ADDRESS, data, 2));
    40f2:	e9cd 6600 	strd	r6, r6, [sp]
  uint8_t data[2] = {txBaseAddress, rxBaseAddress};
    40f6:	f8ad 000c 	strh.w	r0, [sp, #12]
  return(this->mod->SPIwriteStream(RADIOLIB_SX126X_CMD_SET_BUFFER_BASE_ADDRESS, data, 2));
    40fa:	2302      	movs	r3, #2
    40fc:	aa03      	add	r2, sp, #12
    40fe:	218f      	movs	r1, #143	; 0x8f
    4100:	f8d4 015c 	ldr.w	r0, [r4, #348]	; 0x15c
    4104:	f7fc fd94 	bl	c30 <Module::SPIwriteStream(unsigned short, unsigned char*, unsigned int, bool, bool)>
  RADIOLIB_ASSERT(state);
    4108:	2800      	cmp	r0, #0
    410a:	d1ef      	bne.n	40ec <SX126x::startReceiveCommon(unsigned long, unsigned long, unsigned long)+0x5c>
  state = clearIrqStatus();
    410c:	6823      	ldr	r3, [r4, #0]
    410e:	4a3d      	ldr	r2, [pc, #244]	; (4204 <SX126x::startReceiveCommon(unsigned long, unsigned long, unsigned long)+0x174>)
    4110:	f8d3 30c8 	ldr.w	r3, [r3, #200]	; 0xc8
    4114:	4293      	cmp	r3, r2
    4116:	d148      	bne.n	41aa <SX126x::startReceiveCommon(unsigned long, unsigned long, unsigned long)+0x11a>
  uint8_t data[] = { (uint8_t)((clearIrqParams >> 8) & 0xFF), (uint8_t)(clearIrqParams & 0xFF) };
    4118:	f64f 7143 	movw	r1, #65347	; 0xff43
  return(this->mod->SPIwriteStream(RADIOLIB_SX126X_CMD_CLEAR_IRQ_STATUS, data, 2));
    411c:	2302      	movs	r3, #2
    411e:	aa03      	add	r2, sp, #12
  uint8_t data[] = { (uint8_t)((clearIrqParams >> 8) & 0xFF), (uint8_t)(clearIrqParams & 0xFF) };
    4120:	f8ad 100c 	strh.w	r1, [sp, #12]
  return(this->mod->SPIwriteStream(RADIOLIB_SX126X_CMD_CLEAR_IRQ_STATUS, data, 2));
    4124:	4619      	mov	r1, r3
    4126:	e9cd 6600 	strd	r6, r6, [sp]
    412a:	f8d4 015c 	ldr.w	r0, [r4, #348]	; 0x15c
    412e:	f7fc fd7f 	bl	c30 <Module::SPIwriteStream(unsigned short, unsigned char*, unsigned int, bool, bool)>
  this->mod->SPIreadStream(RADIOLIB_SX126X_CMD_GET_PACKET_TYPE, &data, 1);
    4132:	2501      	movs	r5, #1
  uint8_t data = 0xFF;
    4134:	27ff      	movs	r7, #255	; 0xff
  this->mod->SPIreadStream(RADIOLIB_SX126X_CMD_GET_PACKET_TYPE, &data, 1);
    4136:	aa03      	add	r2, sp, #12
    4138:	2111      	movs	r1, #17
    413a:	462b      	mov	r3, r5
  uint8_t data = 0xFF;
    413c:	f88d 700c 	strb.w	r7, [sp, #12]
  this->mod->SPIreadStream(RADIOLIB_SX126X_CMD_GET_PACKET_TYPE, &data, 1);
    4140:	e9cd 5500 	strd	r5, r5, [sp]
    4144:	f8d4 015c 	ldr.w	r0, [r4, #348]	; 0x15c
    4148:	f7fc fd30 	bl	bac <Module::SPIreadStream(unsigned short, unsigned char*, unsigned int, bool, bool)>
  return(data);
    414c:	f89d 600c 	ldrb.w	r6, [sp, #12]
  if(modem == RADIOLIB_SX126X_PACKET_TYPE_LORA) {
    4150:	42ae      	cmp	r6, r5
    4152:	d02f      	beq.n	41b4 <SX126x::startReceiveCommon(unsigned long, unsigned long, unsigned long)+0x124>
  } else if(modem == RADIOLIB_SX126X_PACKET_TYPE_GFSK) {
    4154:	2e00      	cmp	r6, #0
    4156:	d152      	bne.n	41fe <SX126x::startReceiveCommon(unsigned long, unsigned long, unsigned long)+0x16e>
  return(this->mod->SPIwriteStream(RADIOLIB_SX126X_CMD_SET_PACKET_PARAMS, data, 9));
    4158:	2309      	movs	r3, #9
    415a:	aa03      	add	r2, sp, #12
    415c:	218c      	movs	r1, #140	; 0x8c
                     packType, payloadLen, crcType, whiten};
    415e:	f88d 6010 	strb.w	r6, [sp, #16]
    4162:	f88d 7012 	strb.w	r7, [sp, #18]
  return(this->mod->SPIwriteStream(RADIOLIB_SX126X_CMD_SET_PACKET_PARAMS, data, 9));
    4166:	e9cd 5500 	strd	r5, r5, [sp]
                     packType, payloadLen, crcType, whiten};
    416a:	f8b4 5180 	ldrh.w	r5, [r4, #384]	; 0x180
  return(this->mod->SPIwriteStream(RADIOLIB_SX126X_CMD_SET_PACKET_PARAMS, data, 9));
    416e:	f8d4 015c 	ldr.w	r0, [r4, #348]	; 0x15c
                     packType, payloadLen, crcType, whiten};
    4172:	ba6d      	rev16	r5, r5
    4174:	f8ad 500c 	strh.w	r5, [sp, #12]
    state = setPacketParamsFSK(this->preambleLengthFSK, this->preambleDetLength, this->crcTypeFSK, this->syncWordLength, RADIOLIB_SX126X_GFSK_ADDRESS_FILT_OFF, this->whitening, this->packetType);
    4178:	f894 5178 	ldrb.w	r5, [r4, #376]	; 0x178
                     packType, payloadLen, crcType, whiten};
    417c:	f88d 500e 	strb.w	r5, [sp, #14]
    state = setPacketParamsFSK(this->preambleLengthFSK, this->preambleDetLength, this->crcTypeFSK, this->syncWordLength, RADIOLIB_SX126X_GFSK_ADDRESS_FILT_OFF, this->whitening, this->packetType);
    4180:	f894 517b 	ldrb.w	r5, [r4, #379]	; 0x17b
                     packType, payloadLen, crcType, whiten};
    4184:	f88d 5013 	strb.w	r5, [sp, #19]
    state = setPacketParamsFSK(this->preambleLengthFSK, this->preambleDetLength, this->crcTypeFSK, this->syncWordLength, RADIOLIB_SX126X_GFSK_ADDRESS_FILT_OFF, this->whitening, this->packetType);
    4188:	f894 517c 	ldrb.w	r5, [r4, #380]	; 0x17c
                     packType, payloadLen, crcType, whiten};
    418c:	f88d 500f 	strb.w	r5, [sp, #15]
    state = setPacketParamsFSK(this->preambleLengthFSK, this->preambleDetLength, this->crcTypeFSK, this->syncWordLength, RADIOLIB_SX126X_GFSK_ADDRESS_FILT_OFF, this->whitening, this->packetType);
    4190:	f894 517d 	ldrb.w	r5, [r4, #381]	; 0x17d
    4194:	f894 417e 	ldrb.w	r4, [r4, #382]	; 0x17e
                     packType, payloadLen, crcType, whiten};
    4198:	f88d 5014 	strb.w	r5, [sp, #20]
    419c:	f88d 4011 	strb.w	r4, [sp, #17]
  return(this->mod->SPIwriteStream(RADIOLIB_SX126X_CMD_SET_PACKET_PARAMS, data, 9));
    41a0:	f7fc fd46 	bl	c30 <Module::SPIwriteStream(unsigned short, unsigned char*, unsigned int, bool, bool)>
}
    41a4:	b006      	add	sp, #24
    41a6:	e8bd 87f0 	ldmia.w	sp!, {r4, r5, r6, r7, r8, r9, sl, pc}
  state = clearIrqStatus();
    41aa:	f244 31ff 	movw	r1, #17407	; 0x43ff
    41ae:	4620      	mov	r0, r4
    41b0:	4798      	blx	r3
    41b2:	e7be      	b.n	4132 <SX126x::startReceiveCommon(unsigned long, unsigned long, unsigned long)+0xa2>
    state = setPacketParams(this->preambleLengthLoRa, this->crcTypeLoRa, this->implicitLen, this->headerType, this->invertIQEnabled);
    41b4:	f894 a198 	ldrb.w	sl, [r4, #408]	; 0x198
  int16_t state = fixInvertedIQ(invertIQ);
    41b8:	4620      	mov	r0, r4
    41ba:	f8b4 5166 	ldrh.w	r5, [r4, #358]	; 0x166
    41be:	4651      	mov	r1, sl
    state = setPacketParams(this->preambleLengthLoRa, this->crcTypeLoRa, this->implicitLen, this->headerType, this->invertIQEnabled);
    41c0:	f894 7163 	ldrb.w	r7, [r4, #355]	; 0x163
    41c4:	ba6d      	rev16	r5, r5
    41c6:	f8d4 8194 	ldr.w	r8, [r4, #404]	; 0x194
    41ca:	f894 9164 	ldrb.w	r9, [r4, #356]	; 0x164
  int16_t state = fixInvertedIQ(invertIQ);
    41ce:	f7ff fc55 	bl	3a7c <SX126x::fixInvertedIQ(unsigned char)>
  RADIOLIB_ASSERT(state);
    41d2:	2800      	cmp	r0, #0
    41d4:	d18a      	bne.n	40ec <SX126x::startReceiveCommon(unsigned long, unsigned long, unsigned long)+0x5c>
  return(this->mod->SPIwriteStream(RADIOLIB_SX126X_CMD_SET_PACKET_PARAMS, data, 6));
    41d6:	f8d4 015c 	ldr.w	r0, [r4, #348]	; 0x15c
    41da:	aa03      	add	r2, sp, #12
    41dc:	2306      	movs	r3, #6
    41de:	218c      	movs	r1, #140	; 0x8c
  uint8_t data[6] = {(uint8_t)((preambleLen >> 8) & 0xFF), (uint8_t)(preambleLen & 0xFF), hdrType, payloadLen, crcType, invertIQ};
    41e0:	f8ad 500c 	strh.w	r5, [sp, #12]
    41e4:	f88d 900e 	strb.w	r9, [sp, #14]
    state = setPacketParams(this->preambleLengthLoRa, this->crcTypeLoRa, this->implicitLen, this->headerType, this->invertIQEnabled);
    41e8:	f88d 800f 	strb.w	r8, [sp, #15]
  uint8_t data[6] = {(uint8_t)((preambleLen >> 8) & 0xFF), (uint8_t)(preambleLen & 0xFF), hdrType, payloadLen, crcType, invertIQ};
    41ec:	f88d 7010 	strb.w	r7, [sp, #16]
    41f0:	f88d a011 	strb.w	sl, [sp, #17]
  return(this->mod->SPIwriteStream(RADIOLIB_SX126X_CMD_SET_PACKET_PARAMS, data, 6));
    41f4:	e9cd 6600 	strd	r6, r6, [sp]
    41f8:	f7fc fd1a 	bl	c30 <Module::SPIwriteStream(unsigned short, unsigned char*, unsigned int, bool, bool)>
    41fc:	e776      	b.n	40ec <SX126x::startReceiveCommon(unsigned long, unsigned long, unsigned long)+0x5c>
    return(RADIOLIB_ERR_UNKNOWN);
    41fe:	f04f 30ff 	mov.w	r0, #4294967295
    4202:	e773      	b.n	40ec <SX126x::startReceiveCommon(unsigned long, unsigned long, unsigned long)+0x5c>
    4204:	000015ad 	.word	0x000015ad

00004208 <SX126x::startReceive(unsigned long, unsigned long, unsigned long, unsigned int)>:
int16_t SX126x::startReceive(uint32_t timeout, RadioLibIrqFlags_t irqFlags, RadioLibIrqFlags_t irqMask, size_t len) {
    4208:	b570      	push	{r4, r5, r6, lr}
    420a:	460e      	mov	r6, r1
  if((this->headerType == RADIOLIB_SX126X_LORA_HEADER_IMPLICIT) && (len != 0)) {
    420c:	f890 1164 	ldrb.w	r1, [r0, #356]	; 0x164
int16_t SX126x::startReceive(uint32_t timeout, RadioLibIrqFlags_t irqFlags, RadioLibIrqFlags_t irqMask, size_t len) {
    4210:	b084      	sub	sp, #16
    4212:	4605      	mov	r5, r0
  if((this->headerType == RADIOLIB_SX126X_LORA_HEADER_IMPLICIT) && (len != 0)) {
    4214:	2901      	cmp	r1, #1
    4216:	d101      	bne.n	421c <SX126x::startReceive(unsigned long, unsigned long, unsigned long, unsigned int)+0x14>
    4218:	9908      	ldr	r1, [sp, #32]
    421a:	bb01      	cbnz	r1, 425e <SX126x::startReceive(unsigned long, unsigned long, unsigned long, unsigned int)+0x56>
  int16_t state = startReceiveCommon(timeout, irqFlags, irqMask);
    421c:	4631      	mov	r1, r6
    421e:	4628      	mov	r0, r5
    4220:	f7ff ff36 	bl	4090 <SX126x::startReceiveCommon(unsigned long, unsigned long, unsigned long)>
  RADIOLIB_ASSERT(state);
    4224:	4604      	mov	r4, r0
    4226:	b9b8      	cbnz	r0, 4258 <SX126x::startReceive(unsigned long, unsigned long, unsigned long, unsigned int)+0x50>
  this->mod->setRfSwitchState(Module::MODE_RX);
    4228:	2102      	movs	r1, #2
    422a:	f8d5 015c 	ldr.w	r0, [r5, #348]	; 0x15c
    422e:	f7fc fd81 	bl	d34 <Module::setRfSwitchState(unsigned char)>
  return(this->mod->SPIwriteStream(RADIOLIB_SX126X_CMD_SET_RX, data, 3, true, false));
    4232:	2101      	movs	r1, #1
  uint8_t data[] = { (uint8_t)((timeout >> 16) & 0xFF), (uint8_t)((timeout >> 8) & 0xFF), (uint8_t)(timeout & 0xFF) };
    4234:	0c32      	lsrs	r2, r6, #16
  return(this->mod->SPIwriteStream(RADIOLIB_SX126X_CMD_SET_RX, data, 3, true, false));
    4236:	9401      	str	r4, [sp, #4]
    4238:	2303      	movs	r3, #3
    423a:	f8d5 015c 	ldr.w	r0, [r5, #348]	; 0x15c
  uint8_t data[] = { (uint8_t)((timeout >> 16) & 0xFF), (uint8_t)((timeout >> 8) & 0xFF), (uint8_t)(timeout & 0xFF) };
    423e:	f88d 200c 	strb.w	r2, [sp, #12]
    4242:	0a32      	lsrs	r2, r6, #8
  return(this->mod->SPIwriteStream(RADIOLIB_SX126X_CMD_SET_RX, data, 3, true, false));
    4244:	9100      	str	r1, [sp, #0]
    4246:	2182      	movs	r1, #130	; 0x82
  uint8_t data[] = { (uint8_t)((timeout >> 16) & 0xFF), (uint8_t)((timeout >> 8) & 0xFF), (uint8_t)(timeout & 0xFF) };
    4248:	f88d 200d 	strb.w	r2, [sp, #13]
  return(this->mod->SPIwriteStream(RADIOLIB_SX126X_CMD_SET_RX, data, 3, true, false));
    424c:	aa03      	add	r2, sp, #12
  uint8_t data[] = { (uint8_t)((timeout >> 16) & 0xFF), (uint8_t)((timeout >> 8) & 0xFF), (uint8_t)(timeout & 0xFF) };
    424e:	f88d 600e 	strb.w	r6, [sp, #14]
  return(this->mod->SPIwriteStream(RADIOLIB_SX126X_CMD_SET_RX, data, 3, true, false));
    4252:	f7fc fced 	bl	c30 <Module::SPIwriteStream(unsigned short, unsigned char*, unsigned int, bool, bool)>
    4256:	4604      	mov	r4, r0
}
    4258:	4620      	mov	r0, r4
    425a:	b004      	add	sp, #16
    425c:	bd70      	pop	{r4, r5, r6, pc}
    this->implicitLen = len;
    425e:	f8c0 1194 	str.w	r1, [r0, #404]	; 0x194
    4262:	e7db      	b.n	421c <SX126x::startReceive(unsigned long, unsigned long, unsigned long, unsigned int)+0x14>

00004264 <SX126x::startReceive()>:
  return(this->startReceive(RADIOLIB_SX126X_RX_TIMEOUT_INF, RADIOLIB_IRQ_RX_DEFAULT_FLAGS, RADIOLIB_IRQ_RX_DEFAULT_MASK, 0));
    4264:	6802      	ldr	r2, [r0, #0]
    4266:	4b1c      	ldr	r3, [pc, #112]	; (42d8 <SX126x::startReceive()+0x74>)
int16_t SX126x::startReceive() {
    4268:	b570      	push	{r4, r5, r6, lr}
  return(this->startReceive(RADIOLIB_SX126X_RX_TIMEOUT_INF, RADIOLIB_IRQ_RX_DEFAULT_FLAGS, RADIOLIB_IRQ_RX_DEFAULT_MASK, 0));
    426a:	6954      	ldr	r4, [r2, #20]
int16_t SX126x::startReceive() {
    426c:	b084      	sub	sp, #16
    426e:	429c      	cmp	r4, r3
    4270:	d125      	bne.n	42be <SX126x::startReceive()+0x5a>
  int16_t state = startReceiveCommon(timeout, irqFlags, irqMask);
    4272:	2302      	movs	r3, #2
    4274:	f240 2272 	movw	r2, #626	; 0x272
    4278:	f06f 417f 	mvn.w	r1, #4278190080	; 0xff000000
    427c:	4605      	mov	r5, r0
    427e:	f7ff ff07 	bl	4090 <SX126x::startReceiveCommon(unsigned long, unsigned long, unsigned long)>
  RADIOLIB_ASSERT(state);
    4282:	4604      	mov	r4, r0
    4284:	b110      	cbz	r0, 428c <SX126x::startReceive()+0x28>
}
    4286:	4620      	mov	r0, r4
    4288:	b004      	add	sp, #16
    428a:	bd70      	pop	{r4, r5, r6, pc}
  this->mod->setRfSwitchState(Module::MODE_RX);
    428c:	f8d5 015c 	ldr.w	r0, [r5, #348]	; 0x15c
    4290:	2102      	movs	r1, #2
    4292:	f7fc fd4f 	bl	d34 <Module::setRfSwitchState(unsigned char)>
  return(this->mod->SPIwriteStream(RADIOLIB_SX126X_CMD_SET_RX, data, 3, true, false));
    4296:	2601      	movs	r6, #1
  uint8_t data[] = { (uint8_t)((timeout >> 16) & 0xFF), (uint8_t)((timeout >> 8) & 0xFF), (uint8_t)(timeout & 0xFF) };
    4298:	f64f 71ff 	movw	r1, #65535	; 0xffff
  return(this->mod->SPIwriteStream(RADIOLIB_SX126X_CMD_SET_RX, data, 3, true, false));
    429c:	9401      	str	r4, [sp, #4]
    429e:	2303      	movs	r3, #3
    42a0:	f8d5 015c 	ldr.w	r0, [r5, #348]	; 0x15c
  uint8_t data[] = { (uint8_t)((timeout >> 16) & 0xFF), (uint8_t)((timeout >> 8) & 0xFF), (uint8_t)(timeout & 0xFF) };
    42a4:	f8ad 100c 	strh.w	r1, [sp, #12]
  return(this->mod->SPIwriteStream(RADIOLIB_SX126X_CMD_SET_RX, data, 3, true, false));
    42a8:	aa03      	add	r2, sp, #12
  uint8_t data[] = { (uint8_t)((timeout >> 16) & 0xFF), (uint8_t)((timeout >> 8) & 0xFF), (uint8_t)(timeout & 0xFF) };
    42aa:	f88d 100e 	strb.w	r1, [sp, #14]
  return(this->mod->SPIwriteStream(RADIOLIB_SX126X_CMD_SET_RX, data, 3, true, false));
    42ae:	2182      	movs	r1, #130	; 0x82
    42b0:	9600      	str	r6, [sp, #0]
    42b2:	f7fc fcbd 	bl	c30 <Module::SPIwriteStream(unsigned short, unsigned char*, unsigned int, bool, bool)>
    42b6:	4604      	mov	r4, r0
}
    42b8:	4620      	mov	r0, r4
    42ba:	b004      	add	sp, #16
    42bc:	bd70      	pop	{r4, r5, r6, pc}
  return(this->startReceive(RADIOLIB_SX126X_RX_TIMEOUT_INF, RADIOLIB_IRQ_RX_DEFAULT_FLAGS, RADIOLIB_IRQ_RX_DEFAULT_MASK, 0));
    42be:	2100      	movs	r1, #0
    42c0:	2302      	movs	r3, #2
    42c2:	f240 2272 	movw	r2, #626	; 0x272
    42c6:	9100      	str	r1, [sp, #0]
    42c8:	f06f 417f 	mvn.w	r1, #4278190080	; 0xff000000
    42cc:	47a0      	blx	r4
    42ce:	4604      	mov	r4, r0
}
    42d0:	4620      	mov	r0, r4
    42d2:	b004      	add	sp, #16
    42d4:	bd70      	pop	{r4, r5, r6, pc}
    42d6:	bf00      	nop
    42d8:	00004209 	.word	0x00004209

000042dc <SX126x::findChip(char const*)>:

bool SX126x::findChip(const char* verStr) {
    42dc:	b570      	push	{r4, r5, r6, lr}
    42de:	240a      	movs	r4, #10
    42e0:	b084      	sub	sp, #16
    42e2:	4605      	mov	r5, r0
    42e4:	460e      	mov	r6, r1
  uint8_t i = 0;
  bool flagFound = false;
  while((i < 10) && !flagFound) {
    // reset the module
    reset();
    42e6:	2101      	movs	r1, #1
    42e8:	4628      	mov	r0, r5
    42ea:	f7fe f991 	bl	2610 <SX126x::reset(bool)>

    // read the version string
    char version[16];
    this->mod->SPIreadRegisterBurst(RADIOLIB_SX126X_REG_VERSION_STRING, 16, reinterpret_cast<uint8_t*>(version));
    42ee:	466b      	mov	r3, sp
    42f0:	2210      	movs	r2, #16
    42f2:	f44f 7148 	mov.w	r1, #800	; 0x320
    42f6:	f8d5 015c 	ldr.w	r0, [r5, #348]	; 0x15c
    42fa:	f7fc fa23 	bl	744 <Module::SPIreadRegisterBurst(unsigned long, unsigned int, unsigned char*)>

    // check version register
    if(strncmp(verStr, version, 6) == 0) {
    42fe:	4669      	mov	r1, sp
    4300:	2206      	movs	r2, #6
    4302:	4630      	mov	r0, r6
    4304:	f004 f9de 	bl	86c4 <strncmp>
      #if RADIOLIB_DEBUG_BASIC
        RADIOLIB_DEBUG_BASIC_PRINTLN("SX126x not found! (%d of 10 tries) RADIOLIB_SX126X_REG_VERSION_STRING:", i + 1);
        RADIOLIB_DEBUG_BASIC_HEXDUMP(reinterpret_cast<uint8_t*>(version), 16, RADIOLIB_SX126X_REG_VERSION_STRING);
        RADIOLIB_DEBUG_BASIC_PRINTLN("Expected string: %s", verStr);
      #endif
      this->mod->hal->delay(10);
    4308:	210a      	movs	r1, #10
    if(strncmp(verStr, version, 6) == 0) {
    430a:	b910      	cbnz	r0, 4312 <SX126x::findChip(char const*)+0x36>
      flagFound = true;
    430c:	2001      	movs	r0, #1
      i++;
    }
  }

  return(flagFound);
}
    430e:	b004      	add	sp, #16
    4310:	bd70      	pop	{r4, r5, r6, pc}
      this->mod->hal->delay(10);
    4312:	f8d5 315c 	ldr.w	r3, [r5, #348]	; 0x15c
    4316:	6818      	ldr	r0, [r3, #0]
    4318:	6803      	ldr	r3, [r0, #0]
    431a:	695b      	ldr	r3, [r3, #20]
    431c:	4798      	blx	r3
  while((i < 10) && !flagFound) {
    431e:	1e63      	subs	r3, r4, #1
    4320:	f013 04ff 	ands.w	r4, r3, #255	; 0xff
    4324:	d1df      	bne.n	42e6 <SX126x::findChip(char const*)+0xa>
    4326:	4620      	mov	r0, r4
    4328:	e7f1      	b.n	430e <SX126x::findChip(char const*)+0x32>
    432a:	bf00      	nop

0000432c <SX126x::modSetup(float, bool, unsigned char)>:
int16_t SX126x::modSetup(float tcxoVoltage, bool useRegulatorLDO, uint8_t modem) {
    432c:	b5f0      	push	{r4, r5, r6, r7, lr}
    432e:	4604      	mov	r4, r0
  this->mod->init();
    4330:	f8d0 015c 	ldr.w	r0, [r0, #348]	; 0x15c
int16_t SX126x::modSetup(float tcxoVoltage, bool useRegulatorLDO, uint8_t modem) {
    4334:	460d      	mov	r5, r1
    4336:	4616      	mov	r6, r2
  this->mod->spiConfig.statusPos = 1;
    4338:	2701      	movs	r7, #1
int16_t SX126x::modSetup(float tcxoVoltage, bool useRegulatorLDO, uint8_t modem) {
    433a:	ed2d 8b02 	vpush	{d8}
    433e:	b085      	sub	sp, #20
    4340:	eeb0 8a40 	vmov.f32	s16, s0
  this->mod->init();
    4344:	f7fc f8a4 	bl	490 <Module::init()>
  this->mod->hal->pinMode(this->mod->getIrq(), this->mod->hal->GpioModeInput);
    4348:	f8d4 315c 	ldr.w	r3, [r4, #348]	; 0x15c
    434c:	6818      	ldr	r0, [r3, #0]
    434e:	6a59      	ldr	r1, [r3, #36]	; 0x24
    4350:	6803      	ldr	r3, [r0, #0]
    4352:	6842      	ldr	r2, [r0, #4]
    4354:	681b      	ldr	r3, [r3, #0]
    4356:	4798      	blx	r3
  this->mod->hal->pinMode(this->mod->getGpio(), this->mod->hal->GpioModeInput);
    4358:	f8d4 315c 	ldr.w	r3, [r4, #348]	; 0x15c
    435c:	6818      	ldr	r0, [r3, #0]
    435e:	6ad9      	ldr	r1, [r3, #44]	; 0x2c
    4360:	6803      	ldr	r3, [r0, #0]
    4362:	6842      	ldr	r2, [r0, #4]
    4364:	681b      	ldr	r3, [r3, #0]
    4366:	4798      	blx	r3
  this->mod->spiConfig.widths[RADIOLIB_MODULE_SPI_WIDTH_ADDR] = Module::BITS_16;
    4368:	f8d4 315c 	ldr.w	r3, [r4, #348]	; 0x15c
    436c:	f44f 6201 	mov.w	r2, #2064	; 0x810
  this->mod->spiConfig.cmds[RADIOLIB_MODULE_SPI_COMMAND_NOP] = RADIOLIB_SX126X_CMD_NOP;
    4370:	493a      	ldr	r1, [pc, #232]	; (445c <SX126x::modSetup(float, bool, unsigned char)+0x130>)
  this->mod->spiConfig.statusPos = 1;
    4372:	74df      	strb	r7, [r3, #19]
  if(!SX126x::findChip(this->chipType)) {
    4374:	4620      	mov	r0, r4
  this->mod->spiConfig.widths[RADIOLIB_MODULE_SPI_WIDTH_ADDR] = Module::BITS_16;
    4376:	821a      	strh	r2, [r3, #16]
  this->mod->spiConfig.cmds[RADIOLIB_MODULE_SPI_COMMAND_NOP] = RADIOLIB_SX126X_CMD_NOP;
    4378:	f44f 0240 	mov.w	r2, #12582912	; 0xc00000
  this->mod->spiConfig.cmds[RADIOLIB_MODULE_SPI_COMMAND_READ] = RADIOLIB_SX126X_CMD_READ_REGISTER;
    437c:	f8d4 315c 	ldr.w	r3, [r4, #348]	; 0x15c
  this->mod->spiConfig.cmds[RADIOLIB_MODULE_SPI_COMMAND_NOP] = RADIOLIB_SX126X_CMD_NOP;
    4380:	e9c3 1202 	strd	r1, r2, [r3, #8]
  this->mod->spiConfig.parseStatusCb = SPIparseStatus;
    4384:	4a36      	ldr	r2, [pc, #216]	; (4460 <SX126x::modSetup(float, bool, unsigned char)+0x134>)
  if(!SX126x::findChip(this->chipType)) {
    4386:	f8d4 114c 	ldr.w	r1, [r4, #332]	; 0x14c
  this->mod->spiConfig.stream = true;
    438a:	711f      	strb	r7, [r3, #4]
  this->mod->spiConfig.parseStatusCb = SPIparseStatus;
    438c:	615a      	str	r2, [r3, #20]
  if(!SX126x::findChip(this->chipType)) {
    438e:	f7ff ffa5 	bl	42dc <SX126x::findChip(char const*)>
    4392:	2800      	cmp	r0, #0
    4394:	d05a      	beq.n	444c <SX126x::modSetup(float, bool, unsigned char)+0x120>
  int16_t state = reset();
    4396:	4639      	mov	r1, r7
    4398:	4620      	mov	r0, r4
    439a:	f7fe f939 	bl	2610 <SX126x::reset(bool)>
  RADIOLIB_ASSERT(state);
    439e:	4684      	mov	ip, r0
    43a0:	b9e0      	cbnz	r0, 43dc <SX126x::modSetup(float, bool, unsigned char)+0xb0>
  state = standby();
    43a2:	6823      	ldr	r3, [r4, #0]
    43a4:	4620      	mov	r0, r4
    43a6:	689b      	ldr	r3, [r3, #8]
    43a8:	4798      	blx	r3
  RADIOLIB_ASSERT(state);
    43aa:	4684      	mov	ip, r0
    43ac:	b9b0      	cbnz	r0, 43dc <SX126x::modSetup(float, bool, unsigned char)+0xb0>
  if(!this->XTAL && tcxoVoltage > 0.0) {
    43ae:	f894 3149 	ldrb.w	r3, [r4, #329]	; 0x149
    43b2:	b923      	cbnz	r3, 43be <SX126x::modSetup(float, bool, unsigned char)+0x92>
    43b4:	eeb5 8ac0 	vcmpe.f32	s16, #0.0
    43b8:	eef1 fa10 	vmrs	APSR_nzcv, fpscr
    43bc:	dc3b      	bgt.n	4436 <SX126x::modSetup(float, bool, unsigned char)+0x10a>
  uint8_t data[2] = {txBaseAddress, rxBaseAddress};
    43be:	2300      	movs	r3, #0
  return(this->mod->SPIwriteStream(RADIOLIB_SX126X_CMD_SET_BUFFER_BASE_ADDRESS, data, 2));
    43c0:	2701      	movs	r7, #1
    43c2:	aa03      	add	r2, sp, #12
    43c4:	218f      	movs	r1, #143	; 0x8f
  uint8_t data[2] = {txBaseAddress, rxBaseAddress};
    43c6:	f8ad 300c 	strh.w	r3, [sp, #12]
  return(this->mod->SPIwriteStream(RADIOLIB_SX126X_CMD_SET_BUFFER_BASE_ADDRESS, data, 2));
    43ca:	2302      	movs	r3, #2
    43cc:	e9cd 7700 	strd	r7, r7, [sp]
    43d0:	f8d4 015c 	ldr.w	r0, [r4, #348]	; 0x15c
    43d4:	f7fc fc2c 	bl	c30 <Module::SPIwriteStream(unsigned short, unsigned char*, unsigned int, bool, bool)>
  RADIOLIB_ASSERT(state);
    43d8:	4684      	mov	ip, r0
    43da:	b120      	cbz	r0, 43e6 <SX126x::modSetup(float, bool, unsigned char)+0xba>
}
    43dc:	4660      	mov	r0, ip
    43de:	b005      	add	sp, #20
    43e0:	ecbd 8b02 	vpop	{d8}
    43e4:	bdf0      	pop	{r4, r5, r6, r7, pc}
    43e6:	4631      	mov	r1, r6
    43e8:	4620      	mov	r0, r4
    43ea:	f7fd fd21 	bl	1e30 <SX126x::config(unsigned char) [clone .part.0]>
  RADIOLIB_ASSERT(state);
    43ee:	4684      	mov	ip, r0
    43f0:	2800      	cmp	r0, #0
    43f2:	d1f3      	bne.n	43dc <SX126x::modSetup(float, bool, unsigned char)+0xb0>
  return(this->mod->SPIwriteStream(RADIOLIB_SX126X_CMD_SET_REGULATOR_MODE, data, 1));
    43f4:	463b      	mov	r3, r7
    43f6:	aa03      	add	r2, sp, #12
  if (useRegulatorLDO) {
    43f8:	b175      	cbz	r5, 4418 <SX126x::modSetup(float, bool, unsigned char)+0xec>
  return(this->mod->SPIwriteStream(RADIOLIB_SX126X_CMD_SET_REGULATOR_MODE, data, 1));
    43fa:	f8d4 015c 	ldr.w	r0, [r4, #348]	; 0x15c
    43fe:	2196      	movs	r1, #150	; 0x96
  uint8_t data[1] = {mode};
    4400:	f88d c00c 	strb.w	ip, [sp, #12]
  return(this->mod->SPIwriteStream(RADIOLIB_SX126X_CMD_SET_REGULATOR_MODE, data, 1));
    4404:	e9cd 7700 	strd	r7, r7, [sp]
    4408:	f7fc fc12 	bl	c30 <Module::SPIwriteStream(unsigned short, unsigned char*, unsigned int, bool, bool)>
    440c:	4684      	mov	ip, r0
}
    440e:	4660      	mov	r0, ip
    4410:	b005      	add	sp, #20
    4412:	ecbd 8b02 	vpop	{d8}
    4416:	bdf0      	pop	{r4, r5, r6, r7, pc}
  return(this->mod->SPIwriteStream(RADIOLIB_SX126X_CMD_SET_REGULATOR_MODE, data, 1));
    4418:	f8d4 015c 	ldr.w	r0, [r4, #348]	; 0x15c
    441c:	2196      	movs	r1, #150	; 0x96
  uint8_t data[1] = {mode};
    441e:	f88d 700c 	strb.w	r7, [sp, #12]
  return(this->mod->SPIwriteStream(RADIOLIB_SX126X_CMD_SET_REGULATOR_MODE, data, 1));
    4422:	e9cd 7700 	strd	r7, r7, [sp]
    4426:	f7fc fc03 	bl	c30 <Module::SPIwriteStream(unsigned short, unsigned char*, unsigned int, bool, bool)>
    442a:	4684      	mov	ip, r0
}
    442c:	4660      	mov	r0, ip
    442e:	b005      	add	sp, #20
    4430:	ecbd 8b02 	vpop	{d8}
    4434:	bdf0      	pop	{r4, r5, r6, r7, pc}
    state = setTCXO(tcxoVoltage);
    4436:	eeb0 0a48 	vmov.f32	s0, s16
    443a:	f241 3188 	movw	r1, #5000	; 0x1388
    443e:	4620      	mov	r0, r4
    4440:	f7fe fc3a 	bl	2cb8 <SX126x::setTCXO(float, unsigned long)>
    RADIOLIB_ASSERT(state);
    4444:	4684      	mov	ip, r0
    4446:	2800      	cmp	r0, #0
    4448:	d0b9      	beq.n	43be <SX126x::modSetup(float, bool, unsigned char)+0x92>
    444a:	e7c7      	b.n	43dc <SX126x::modSetup(float, bool, unsigned char)+0xb0>
    this->mod->term();
    444c:	f8d4 015c 	ldr.w	r0, [r4, #348]	; 0x15c
    4450:	f7fc f832 	bl	4b8 <Module::term()>
    return(RADIOLIB_ERR_CHIP_NOT_FOUND);
    4454:	f06f 0c01 	mvn.w	ip, #1
    4458:	e7c0      	b.n	43dc <SX126x::modSetup(float, bool, unsigned char)+0xb0>
    445a:	bf00      	nop
    445c:	000d001d 	.word	0x000d001d
    4460:	00001561 	.word	0x00001561

00004464 <SX126x::begin(unsigned char, unsigned char, unsigned short, float, bool)>:
int16_t SX126x::begin(uint8_t cr, uint8_t syncWord, uint16_t preambleLength, float tcxoVoltage, bool useRegulatorLDO) {
    4464:	e92d 43f0 	stmdb	sp!, {r4, r5, r6, r7, r8, r9, lr}
    4468:	461f      	mov	r7, r3
  this->preambleLengthLoRa = preambleLength;
    446a:	f8a0 3166 	strh.w	r3, [r0, #358]	; 0x166
  this->tcxoDelay = 0;
    446e:	2300      	movs	r3, #0
int16_t SX126x::begin(uint8_t cr, uint8_t syncWord, uint16_t preambleLength, float tcxoVoltage, bool useRegulatorLDO) {
    4470:	b085      	sub	sp, #20
  this->implicitLen = 0xFF;
    4472:	f04f 08ff 	mov.w	r8, #255	; 0xff
int16_t SX126x::begin(uint8_t cr, uint8_t syncWord, uint16_t preambleLength, float tcxoVoltage, bool useRegulatorLDO) {
    4476:	460d      	mov	r5, r1
  this->tcxoDelay = 0;
    4478:	f8c0 318c 	str.w	r3, [r0, #396]	; 0x18c
int16_t SX126x::begin(uint8_t cr, uint8_t syncWord, uint16_t preambleLength, float tcxoVoltage, bool useRegulatorLDO) {
    447c:	4616      	mov	r6, r2
  this->headerType = RADIOLIB_SX126X_LORA_HEADER_EXPLICIT;
    447e:	f880 3164 	strb.w	r3, [r0, #356]	; 0x164
  int16_t state = this->modSetup(tcxoVoltage, useRegulatorLDO, RADIOLIB_SX126X_PACKET_TYPE_LORA);
    4482:	2201      	movs	r2, #1
  this->bandwidthKhz = 500.0;
    4484:	4b48      	ldr	r3, [pc, #288]	; (45a8 <SX126x::begin(unsigned char, unsigned char, unsigned short, float, bool)+0x144>)
int16_t SX126x::begin(uint8_t cr, uint8_t syncWord, uint16_t preambleLength, float tcxoVoltage, bool useRegulatorLDO) {
    4486:	4604      	mov	r4, r0
  int16_t state = this->modSetup(tcxoVoltage, useRegulatorLDO, RADIOLIB_SX126X_PACKET_TYPE_LORA);
    4488:	f89d 1030 	ldrb.w	r1, [sp, #48]	; 0x30
  this->bandwidthKhz = 500.0;
    448c:	f8c0 3168 	str.w	r3, [r0, #360]	; 0x168
  this->bandwidth = RADIOLIB_SX126X_LORA_BW_500_0;  // initialized to 500 kHz, since lower values will interfere with LLCC68
    4490:	2306      	movs	r3, #6
  this->implicitLen = 0xFF;
    4492:	f8c0 8194 	str.w	r8, [r0, #404]	; 0x194
  this->bandwidth = RADIOLIB_SX126X_LORA_BW_500_0;  // initialized to 500 kHz, since lower values will interfere with LLCC68
    4496:	f880 3150 	strb.w	r3, [r0, #336]	; 0x150
  this->spreadingFactor = 9;
    449a:	4b44      	ldr	r3, [pc, #272]	; (45ac <SX126x::begin(unsigned char, unsigned char, unsigned short, float, bool)+0x148>)
    449c:	f8c0 3160 	str.w	r3, [r0, #352]	; 0x160
  int16_t state = this->modSetup(tcxoVoltage, useRegulatorLDO, RADIOLIB_SX126X_PACKET_TYPE_LORA);
    44a0:	f7ff ff44 	bl	432c <SX126x::modSetup(float, bool, unsigned char)>
  RADIOLIB_ASSERT(state);
    44a4:	b110      	cbz	r0, 44ac <SX126x::begin(unsigned char, unsigned char, unsigned short, float, bool)+0x48>
}
    44a6:	b005      	add	sp, #20
    44a8:	e8bd 83f0 	ldmia.w	sp!, {r4, r5, r6, r7, r8, r9, pc}
  this->mod->SPIreadStream(RADIOLIB_SX126X_CMD_GET_PACKET_TYPE, &data, 1);
    44ac:	2301      	movs	r3, #1
    44ae:	2111      	movs	r1, #17
    44b0:	aa03      	add	r2, sp, #12
  uint8_t data = 0xFF;
    44b2:	f88d 800c 	strb.w	r8, [sp, #12]
  this->mod->SPIreadStream(RADIOLIB_SX126X_CMD_GET_PACKET_TYPE, &data, 1);
    44b6:	e9cd 3300 	strd	r3, r3, [sp]
    44ba:	f8d4 015c 	ldr.w	r0, [r4, #348]	; 0x15c
    44be:	f7fc fb75 	bl	bac <Module::SPIreadStream(unsigned short, unsigned char*, unsigned int, bool, bool)>
  return(data);
    44c2:	f89d 900c 	ldrb.w	r9, [sp, #12]
  if(getPacketType() != RADIOLIB_SX126X_PACKET_TYPE_LORA) {
    44c6:	f1b9 0f01 	cmp.w	r9, #1
    44ca:	d166      	bne.n	459a <SX126x::begin(unsigned char, unsigned char, unsigned short, float, bool)+0x136>
  RADIOLIB_CHECK_RANGE(cr, 5, 8, RADIOLIB_ERR_INVALID_CODING_RATE);
    44cc:	1f6b      	subs	r3, r5, #5
    44ce:	2b03      	cmp	r3, #3
    44d0:	d866      	bhi.n	45a0 <SX126x::begin(unsigned char, unsigned char, unsigned short, float, bool)+0x13c>
  this->codingRate = cr - 4;
    44d2:	1f2b      	subs	r3, r5, #4
  return(setModulationParams(this->spreadingFactor, this->bandwidth, this->codingRate, this->ldrOptimize));
    44d4:	f894 2162 	ldrb.w	r2, [r4, #354]	; 0x162
    44d8:	4620      	mov	r0, r4
  this->codingRate = cr - 4;
    44da:	b2db      	uxtb	r3, r3
    44dc:	f884 3161 	strb.w	r3, [r4, #353]	; 0x161
  return(setModulationParams(this->spreadingFactor, this->bandwidth, this->codingRate, this->ldrOptimize));
    44e0:	9200      	str	r2, [sp, #0]
    44e2:	f894 2150 	ldrb.w	r2, [r4, #336]	; 0x150
    44e6:	f894 1160 	ldrb.w	r1, [r4, #352]	; 0x160
    44ea:	f7fe fef3 	bl	32d4 <SX126x::setModulationParams(unsigned char, unsigned char, unsigned char, unsigned char)>
  RADIOLIB_ASSERT(state);
    44ee:	2800      	cmp	r0, #0
    44f0:	d1d9      	bne.n	44a6 <SX126x::begin(unsigned char, unsigned char, unsigned short, float, bool)+0x42>
  this->mod->SPIreadStream(RADIOLIB_SX126X_CMD_GET_PACKET_TYPE, &data, 1);
    44f2:	464b      	mov	r3, r9
    44f4:	aa03      	add	r2, sp, #12
    44f6:	2111      	movs	r1, #17
  uint8_t data = 0xFF;
    44f8:	f88d 800c 	strb.w	r8, [sp, #12]
  this->mod->SPIreadStream(RADIOLIB_SX126X_CMD_GET_PACKET_TYPE, &data, 1);
    44fc:	e9cd 9900 	strd	r9, r9, [sp]
    4500:	f8d4 015c 	ldr.w	r0, [r4, #348]	; 0x15c
    4504:	f7fc fb52 	bl	bac <Module::SPIreadStream(unsigned short, unsigned char*, unsigned int, bool, bool)>
  return(data);
    4508:	f89d 500c 	ldrb.w	r5, [sp, #12]
  if(getPacketType() != RADIOLIB_SX126X_PACKET_TYPE_LORA) {
    450c:	2d01      	cmp	r5, #1
    450e:	d144      	bne.n	459a <SX126x::begin(unsigned char, unsigned char, unsigned short, float, bool)+0x136>
  uint8_t data[2] = {(uint8_t)((syncWord & 0xF0) | ((controlBits & 0xF0) >> 4)), (uint8_t)(((syncWord & 0x0F) << 4) | (controlBits & 0x0F))};
    4510:	f026 030f 	bic.w	r3, r6, #15
    4514:	0136      	lsls	r6, r6, #4
  this->mod->SPIwriteRegisterBurst(addr, data, numBytes);
    4516:	f44f 61e8 	mov.w	r1, #1856	; 0x740
    451a:	f8d4 015c 	ldr.w	r0, [r4, #348]	; 0x15c
  uint8_t data[2] = {(uint8_t)((syncWord & 0xF0) | ((controlBits & 0xF0) >> 4)), (uint8_t)(((syncWord & 0x0F) << 4) | (controlBits & 0x0F))};
    451e:	f043 0304 	orr.w	r3, r3, #4
    4522:	f046 0604 	orr.w	r6, r6, #4
  this->mod->SPIwriteRegisterBurst(addr, data, numBytes);
    4526:	aa03      	add	r2, sp, #12
  uint8_t data[2] = {(uint8_t)((syncWord & 0xF0) | ((controlBits & 0xF0) >> 4)), (uint8_t)(((syncWord & 0x0F) << 4) | (controlBits & 0x0F))};
    4528:	f88d 300c 	strb.w	r3, [sp, #12]
  this->mod->SPIwriteRegisterBurst(addr, data, numBytes);
    452c:	2302      	movs	r3, #2
  uint8_t data[2] = {(uint8_t)((syncWord & 0xF0) | ((controlBits & 0xF0) >> 4)), (uint8_t)(((syncWord & 0x0F) << 4) | (controlBits & 0x0F))};
    452e:	f88d 600d 	strb.w	r6, [sp, #13]
  this->mod->SPIwriteRegisterBurst(addr, data, numBytes);
    4532:	f7fc f9b9 	bl	8a8 <Module::SPIwriteRegisterBurst(unsigned long, unsigned char*, unsigned int)>
  state = setPreambleLength(preambleLength);
    4536:	6823      	ldr	r3, [r4, #0]
    4538:	4639      	mov	r1, r7
    453a:	4620      	mov	r0, r4
    453c:	6d5b      	ldr	r3, [r3, #84]	; 0x54
    453e:	4798      	blx	r3
  RADIOLIB_ASSERT(state);
    4540:	2800      	cmp	r0, #0
    4542:	d1b0      	bne.n	44a6 <SX126x::begin(unsigned char, unsigned char, unsigned short, float, bool)+0x42>
  uint8_t rawLimit = (uint8_t)(currentLimit / 2.5);
    4544:	2218      	movs	r2, #24
  this->mod->SPIwriteRegisterBurst(addr, data, numBytes);
    4546:	462b      	mov	r3, r5
    4548:	f640 01e7 	movw	r1, #2279	; 0x8e7
    454c:	f8d4 015c 	ldr.w	r0, [r4, #348]	; 0x15c
  uint8_t rawLimit = (uint8_t)(currentLimit / 2.5);
    4550:	f88d 200c 	strb.w	r2, [sp, #12]
  this->mod->SPIwriteRegisterBurst(addr, data, numBytes);
    4554:	aa03      	add	r2, sp, #12
    4556:	f7fc f9a7 	bl	8a8 <Module::SPIwriteRegisterBurst(unsigned long, unsigned char*, unsigned int)>
  return(this->mod->SPIwriteStream(RADIOLIB_SX126X_CMD_SET_DIO2_AS_RF_SWITCH_CTRL, &data, 1));
    455a:	462b      	mov	r3, r5
    455c:	aa03      	add	r2, sp, #12
    455e:	219d      	movs	r1, #157	; 0x9d
    data = RADIOLIB_SX126X_DIO2_AS_RF_SWITCH;
    4560:	f88d 500c 	strb.w	r5, [sp, #12]
  return(this->mod->SPIwriteStream(RADIOLIB_SX126X_CMD_SET_DIO2_AS_RF_SWITCH_CTRL, &data, 1));
    4564:	e9cd 5500 	strd	r5, r5, [sp]
    4568:	f8d4 015c 	ldr.w	r0, [r4, #348]	; 0x15c
    456c:	f7fc fb60 	bl	c30 <Module::SPIwriteStream(unsigned short, unsigned char*, unsigned int, bool, bool)>
  RADIOLIB_ASSERT(state);
    4570:	2800      	cmp	r0, #0
    4572:	d198      	bne.n	44a6 <SX126x::begin(unsigned char, unsigned char, unsigned short, float, bool)+0x42>
  state = setCRC(2);
    4574:	f241 0321 	movw	r3, #4129	; 0x1021
    4578:	f641 520f 	movw	r2, #7439	; 0x1d0f
    457c:	2102      	movs	r1, #2
    457e:	4620      	mov	r0, r4
    4580:	9500      	str	r5, [sp, #0]
    4582:	f7ff fae9 	bl	3b58 <SX126x::setCRC(unsigned char, unsigned short, unsigned short, bool)>
  RADIOLIB_ASSERT(state);
    4586:	2800      	cmp	r0, #0
    4588:	d18d      	bne.n	44a6 <SX126x::begin(unsigned char, unsigned char, unsigned short, float, bool)+0x42>
  state = invertIQ(false);
    458a:	6823      	ldr	r3, [r4, #0]
    458c:	4601      	mov	r1, r0
    458e:	4620      	mov	r0, r4
    4590:	6c5b      	ldr	r3, [r3, #68]	; 0x44
}
    4592:	b005      	add	sp, #20
    4594:	e8bd 43f0 	ldmia.w	sp!, {r4, r5, r6, r7, r8, r9, lr}
  state = invertIQ(false);
    4598:	4718      	bx	r3
    return(RADIOLIB_ERR_WRONG_MODEM);
    459a:	f06f 0013 	mvn.w	r0, #19
    459e:	e782      	b.n	44a6 <SX126x::begin(unsigned char, unsigned char, unsigned short, float, bool)+0x42>
  RADIOLIB_CHECK_RANGE(cr, 5, 8, RADIOLIB_ERR_INVALID_CODING_RATE);
    45a0:	f06f 0009 	mvn.w	r0, #9
    45a4:	e77f      	b.n	44a6 <SX126x::begin(unsigned char, unsigned char, unsigned short, float, bool)+0x42>
    45a6:	bf00      	nop
    45a8:	43fa0000 	.word	0x43fa0000
    45ac:	01000309 	.word	0x01000309

000045b0 <SX126x::beginFSK(float, float, float, unsigned short, float, bool)>:
int16_t SX126x::beginFSK(float br, float freqDev, float rxBw, uint16_t preambleLength, float tcxoVoltage, bool useRegulatorLDO) {
    45b0:	b530      	push	{r4, r5, lr}
  this->frequencyDev = 52428;                             // 50.0 kHz
    45b2:	f64c 43cc 	movw	r3, #52428	; 0xcccc
int16_t SX126x::beginFSK(float br, float freqDev, float rxBw, uint16_t preambleLength, float tcxoVoltage, bool useRegulatorLDO) {
    45b6:	460d      	mov	r5, r1
  int16_t state = this->modSetup(tcxoVoltage, useRegulatorLDO, RADIOLIB_SX126X_PACKET_TYPE_GFSK);
    45b8:	4611      	mov	r1, r2
  this->frequencyDev = 52428;                             // 50.0 kHz
    45ba:	f245 3255 	movw	r2, #21333	; 0x5355
int16_t SX126x::beginFSK(float br, float freqDev, float rxBw, uint16_t preambleLength, float tcxoVoltage, bool useRegulatorLDO) {
    45be:	4604      	mov	r4, r0
    45c0:	ed2d 8b04 	vpush	{d8-d9}
  this->frequencyDev = 52428;                             // 50.0 kHz
    45c4:	e9c0 235c 	strd	r2, r3, [r0, #368]	; 0x170
  this->rxBandwidthKhz = 156.2;
    45c8:	4b42      	ldr	r3, [pc, #264]	; (46d4 <SX126x::beginFSK(float, float, float, unsigned short, float, bool)+0x124>)
int16_t SX126x::beginFSK(float br, float freqDev, float rxBw, uint16_t preambleLength, float tcxoVoltage, bool useRegulatorLDO) {
    45ca:	eeb0 8a40 	vmov.f32	s16, s0
    45ce:	b085      	sub	sp, #20
  int16_t state = this->modSetup(tcxoVoltage, useRegulatorLDO, RADIOLIB_SX126X_PACKET_TYPE_GFSK);
    45d0:	eeb0 0a61 	vmov.f32	s0, s3
  this->rxBandwidthKhz = 156.2;
    45d4:	f8c0 3184 	str.w	r3, [r0, #388]	; 0x184
  this->rxBandwidth = RADIOLIB_SX126X_GFSK_RX_BW_156_2;
    45d8:	231a      	movs	r3, #26
  int16_t state = this->modSetup(tcxoVoltage, useRegulatorLDO, RADIOLIB_SX126X_PACKET_TYPE_GFSK);
    45da:	2200      	movs	r2, #0
  this->preambleLengthFSK = preambleLength;
    45dc:	f8a0 5180 	strh.w	r5, [r0, #384]	; 0x180
  this->rxBandwidth = RADIOLIB_SX126X_GFSK_RX_BW_156_2;
    45e0:	f880 3179 	strb.w	r3, [r0, #377]	; 0x179
  this->pulseShape = RADIOLIB_SX126X_GFSK_FILTER_GAUSS_0_5;
    45e4:	f240 6309 	movw	r3, #1545	; 0x609
int16_t SX126x::beginFSK(float br, float freqDev, float rxBw, uint16_t preambleLength, float tcxoVoltage, bool useRegulatorLDO) {
    45e8:	eef0 8a60 	vmov.f32	s17, s1
  this->pulseShape = RADIOLIB_SX126X_GFSK_FILTER_GAUSS_0_5;
    45ec:	f8a0 317a 	strh.w	r3, [r0, #378]	; 0x17a
int16_t SX126x::beginFSK(float br, float freqDev, float rxBw, uint16_t preambleLength, float tcxoVoltage, bool useRegulatorLDO) {
    45f0:	eeb0 9a41 	vmov.f32	s18, s2
  int16_t state = this->modSetup(tcxoVoltage, useRegulatorLDO, RADIOLIB_SX126X_PACKET_TYPE_GFSK);
    45f4:	f7ff fe9a 	bl	432c <SX126x::modSetup(float, bool, unsigned char)>
  RADIOLIB_ASSERT(state);
    45f8:	b998      	cbnz	r0, 4622 <SX126x::beginFSK(float, float, float, unsigned short, float, bool)+0x72>
  state = setBitRate(br);
    45fa:	6823      	ldr	r3, [r4, #0]
    45fc:	eeb0 0a48 	vmov.f32	s0, s16
    4600:	4620      	mov	r0, r4
    4602:	6b5b      	ldr	r3, [r3, #52]	; 0x34
    4604:	4798      	blx	r3
  RADIOLIB_ASSERT(state);
    4606:	b960      	cbnz	r0, 4622 <SX126x::beginFSK(float, float, float, unsigned short, float, bool)+0x72>
  state = setFrequencyDeviation(freqDev);
    4608:	6823      	ldr	r3, [r4, #0]
    460a:	eeb0 0a68 	vmov.f32	s0, s17
    460e:	4620      	mov	r0, r4
    4610:	6b9b      	ldr	r3, [r3, #56]	; 0x38
    4612:	4798      	blx	r3
  RADIOLIB_ASSERT(state);
    4614:	b928      	cbnz	r0, 4622 <SX126x::beginFSK(float, float, float, unsigned short, float, bool)+0x72>
  state = setRxBandwidth(rxBw);
    4616:	eeb0 0a49 	vmov.f32	s0, s18
    461a:	4620      	mov	r0, r4
    461c:	f7fe f898 	bl	2750 <SX126x::setRxBandwidth(float)>
  RADIOLIB_ASSERT(state);
    4620:	b118      	cbz	r0, 462a <SX126x::beginFSK(float, float, float, unsigned short, float, bool)+0x7a>
}
    4622:	b005      	add	sp, #20
    4624:	ecbd 8b04 	vpop	{d8-d9}
    4628:	bd30      	pop	{r4, r5, pc}
  uint8_t rawLimit = (uint8_t)(currentLimit / 2.5);
    462a:	2218      	movs	r2, #24
  this->mod->SPIwriteRegisterBurst(addr, data, numBytes);
    462c:	2301      	movs	r3, #1
    462e:	f640 01e7 	movw	r1, #2279	; 0x8e7
    4632:	f8d4 015c 	ldr.w	r0, [r4, #348]	; 0x15c
  uint8_t rawLimit = (uint8_t)(currentLimit / 2.5);
    4636:	f88d 200c 	strb.w	r2, [sp, #12]
  this->mod->SPIwriteRegisterBurst(addr, data, numBytes);
    463a:	aa03      	add	r2, sp, #12
    463c:	f7fc f934 	bl	8a8 <Module::SPIwriteRegisterBurst(unsigned long, unsigned char*, unsigned int)>
  state = setPreambleLength(preambleLength);
    4640:	6823      	ldr	r3, [r4, #0]
    4642:	4629      	mov	r1, r5
    4644:	4620      	mov	r0, r4
    4646:	6d5b      	ldr	r3, [r3, #84]	; 0x54
    4648:	4798      	blx	r3
  RADIOLIB_ASSERT(state);
    464a:	2800      	cmp	r0, #0
    464c:	d1e9      	bne.n	4622 <SX126x::beginFSK(float, float, float, unsigned short, float, bool)+0x72>
  uint8_t sync[] = {0x12, 0xAD};
    464e:	f64a 5012 	movw	r0, #44306	; 0xad12
  state = setSyncWord(sync, 2);
    4652:	6823      	ldr	r3, [r4, #0]
    4654:	2202      	movs	r2, #2
    4656:	a903      	add	r1, sp, #12
  uint8_t sync[] = {0x12, 0xAD};
    4658:	f8ad 000c 	strh.w	r0, [sp, #12]
  state = setSyncWord(sync, 2);
    465c:	4620      	mov	r0, r4
    465e:	6d1b      	ldr	r3, [r3, #80]	; 0x50
    4660:	4798      	blx	r3
  RADIOLIB_ASSERT(state);
    4662:	2800      	cmp	r0, #0
    4664:	d1dd      	bne.n	4622 <SX126x::beginFSK(float, float, float, unsigned short, float, bool)+0x72>
  state = setDataShaping(RADIOLIB_SHAPING_NONE);
    4666:	6823      	ldr	r3, [r4, #0]
    4668:	4601      	mov	r1, r0
    466a:	4620      	mov	r0, r4
    466c:	6bdb      	ldr	r3, [r3, #60]	; 0x3c
    466e:	4798      	blx	r3
  RADIOLIB_ASSERT(state);
    4670:	2800      	cmp	r0, #0
    4672:	d1d6      	bne.n	4622 <SX126x::beginFSK(float, float, float, unsigned short, float, bool)+0x72>
  state = setEncoding(RADIOLIB_ENCODING_NRZ);
    4674:	6823      	ldr	r3, [r4, #0]
  return(setWhitening(encoding));
    4676:	4601      	mov	r1, r0
    4678:	4a17      	ldr	r2, [pc, #92]	; (46d8 <SX126x::beginFSK(float, float, float, unsigned short, float, bool)+0x128>)
  state = setEncoding(RADIOLIB_ENCODING_NRZ);
    467a:	6c1b      	ldr	r3, [r3, #64]	; 0x40
    467c:	4293      	cmp	r3, r2
    467e:	d126      	bne.n	46ce <SX126x::beginFSK(float, float, float, unsigned short, float, bool)+0x11e>
  return(setWhitening(encoding));
    4680:	f240 12ff 	movw	r2, #511	; 0x1ff
    4684:	4620      	mov	r0, r4
    4686:	f7fe fa73 	bl	2b70 <SX126x::setWhitening(bool, unsigned short)>
  RADIOLIB_ASSERT(state);
    468a:	2800      	cmp	r0, #0
    468c:	d1c9      	bne.n	4622 <SX126x::beginFSK(float, float, float, unsigned short, float, bool)+0x72>
  return(setPacketMode(RADIOLIB_SX126X_GFSK_PACKET_VARIABLE, maxLen));
    468e:	22ff      	movs	r2, #255	; 0xff
    4690:	2101      	movs	r1, #1
    4692:	4620      	mov	r0, r4
    4694:	f7fe fddc 	bl	3250 <SX126x::setPacketMode(unsigned char, unsigned char)>
  RADIOLIB_ASSERT(state);
    4698:	2800      	cmp	r0, #0
    469a:	d1c2      	bne.n	4622 <SX126x::beginFSK(float, float, float, unsigned short, float, bool)+0x72>
  state = setCRC(2);
    469c:	2501      	movs	r5, #1
    469e:	f241 0321 	movw	r3, #4129	; 0x1021
    46a2:	f641 520f 	movw	r2, #7439	; 0x1d0f
    46a6:	2102      	movs	r1, #2
    46a8:	4620      	mov	r0, r4
    46aa:	9500      	str	r5, [sp, #0]
    46ac:	f7ff fa54 	bl	3b58 <SX126x::setCRC(unsigned char, unsigned short, unsigned short, bool)>
  RADIOLIB_ASSERT(state);
    46b0:	2800      	cmp	r0, #0
    46b2:	d1b6      	bne.n	4622 <SX126x::beginFSK(float, float, float, unsigned short, float, bool)+0x72>
  return(this->mod->SPIwriteStream(RADIOLIB_SX126X_CMD_SET_DIO2_AS_RF_SWITCH_CTRL, &data, 1));
    46b4:	f8d4 015c 	ldr.w	r0, [r4, #348]	; 0x15c
    46b8:	462b      	mov	r3, r5
    46ba:	f10d 020b 	add.w	r2, sp, #11
    46be:	219d      	movs	r1, #157	; 0x9d
    data = RADIOLIB_SX126X_DIO2_AS_RF_SWITCH;
    46c0:	f88d 500b 	strb.w	r5, [sp, #11]
  return(this->mod->SPIwriteStream(RADIOLIB_SX126X_CMD_SET_DIO2_AS_RF_SWITCH_CTRL, &data, 1));
    46c4:	e9cd 5500 	strd	r5, r5, [sp]
    46c8:	f7fc fab2 	bl	c30 <Module::SPIwriteStream(unsigned short, unsigned char*, unsigned int, bool, bool)>
  RADIOLIB_ASSERT(state);
    46cc:	e7a9      	b.n	4622 <SX126x::beginFSK(float, float, float, unsigned short, float, bool)+0x72>
  state = setEncoding(RADIOLIB_ENCODING_NRZ);
    46ce:	4620      	mov	r0, r4
    46d0:	4798      	blx	r3
    46d2:	e7da      	b.n	468a <SX126x::beginFSK(float, float, float, unsigned short, float, bool)+0xda>
    46d4:	431c3333 	.word	0x431c3333
    46d8:	00002c9d 	.word	0x00002c9d

000046dc <SX126x::beginLRFHSS(unsigned char, unsigned char, bool, float, bool)>:
int16_t SX126x::beginLRFHSS(uint8_t bw, uint8_t cr, bool narrowGrid, float tcxoVoltage, bool useRegulatorLDO) {
    46dc:	b5f0      	push	{r4, r5, r6, r7, lr}
    46de:	b087      	sub	sp, #28
    46e0:	460e      	mov	r6, r1
    46e2:	4615      	mov	r5, r2
  this->lrFhssGridNonFcc = narrowGrid;
    46e4:	f880 31a0 	strb.w	r3, [r0, #416]	; 0x1a0
  int16_t state = this->modSetup(tcxoVoltage, useRegulatorLDO, RADIOLIB_SX126X_PACKET_TYPE_LR_FHSS);
    46e8:	2203      	movs	r2, #3
    46ea:	f89d 1030 	ldrb.w	r1, [sp, #48]	; 0x30
int16_t SX126x::beginLRFHSS(uint8_t bw, uint8_t cr, bool narrowGrid, float tcxoVoltage, bool useRegulatorLDO) {
    46ee:	4604      	mov	r4, r0
  int16_t state = this->modSetup(tcxoVoltage, useRegulatorLDO, RADIOLIB_SX126X_PACKET_TYPE_LR_FHSS);
    46f0:	f7ff fe1c 	bl	432c <SX126x::modSetup(float, bool, unsigned char)>
  RADIOLIB_ASSERT(state);
    46f4:	b108      	cbz	r0, 46fa <SX126x::beginLRFHSS(unsigned char, unsigned char, bool, float, bool)+0x1e>
}
    46f6:	b007      	add	sp, #28
    46f8:	bdf0      	pop	{r4, r5, r6, r7, pc}
  uint8_t rawLimit = (uint8_t)(currentLimit / 2.5);
    46fa:	2318      	movs	r3, #24
  this->mod->SPIwriteRegisterBurst(addr, data, numBytes);
    46fc:	aa03      	add	r2, sp, #12
    46fe:	f640 01e7 	movw	r1, #2279	; 0x8e7
    4702:	f8d4 015c 	ldr.w	r0, [r4, #348]	; 0x15c
  uint8_t rawLimit = (uint8_t)(currentLimit / 2.5);
    4706:	f88d 300c 	strb.w	r3, [sp, #12]
  this->mod->SPIwriteRegisterBurst(addr, data, numBytes);
    470a:	2301      	movs	r3, #1
    data = RADIOLIB_SX126X_DIO2_AS_RF_SWITCH;
    470c:	461f      	mov	r7, r3
  this->mod->SPIwriteRegisterBurst(addr, data, numBytes);
    470e:	f7fc f8cb 	bl	8a8 <Module::SPIwriteRegisterBurst(unsigned long, unsigned char*, unsigned int)>
  return(this->mod->SPIwriteStream(RADIOLIB_SX126X_CMD_SET_DIO2_AS_RF_SWITCH_CTRL, &data, 1));
    4712:	aa03      	add	r2, sp, #12
    4714:	219d      	movs	r1, #157	; 0x9d
    4716:	463b      	mov	r3, r7
    data = RADIOLIB_SX126X_DIO2_AS_RF_SWITCH;
    4718:	f88d 700c 	strb.w	r7, [sp, #12]
  return(this->mod->SPIwriteStream(RADIOLIB_SX126X_CMD_SET_DIO2_AS_RF_SWITCH_CTRL, &data, 1));
    471c:	e9cd 7700 	strd	r7, r7, [sp]
    4720:	f8d4 015c 	ldr.w	r0, [r4, #348]	; 0x15c
    4724:	f7fc fa84 	bl	c30 <Module::SPIwriteStream(unsigned short, unsigned char*, unsigned int, bool, bool)>
  RADIOLIB_ASSERT(state);
    4728:	2800      	cmp	r0, #0
    472a:	d1e4      	bne.n	46f6 <SX126x::beginLRFHSS(unsigned char, unsigned char, bool, float, bool)+0x1a>
                     packType, payloadLen, crcType, whiten};
    472c:	f88d 0014 	strb.w	r0, [sp, #20]
  return(this->mod->SPIwriteStream(RADIOLIB_SX126X_CMD_SET_PACKET_PARAMS, data, 9));
    4730:	aa03      	add	r2, sp, #12
    4732:	2309      	movs	r3, #9
    4734:	218c      	movs	r1, #140	; 0x8c
    4736:	e9cd 7700 	strd	r7, r7, [sp]
                     packType, payloadLen, crcType, whiten};
    473a:	e9cd 0003 	strd	r0, r0, [sp, #12]
  return(this->mod->SPIwriteStream(RADIOLIB_SX126X_CMD_SET_PACKET_PARAMS, data, 9));
    473e:	f8d4 015c 	ldr.w	r0, [r4, #348]	; 0x15c
    4742:	f7fc fa75 	bl	c30 <Module::SPIwriteStream(unsigned short, unsigned char*, unsigned int, bool, bool)>
  RADIOLIB_ASSERT(state);
    4746:	2800      	cmp	r0, #0
    4748:	d1d5      	bne.n	46f6 <SX126x::beginLRFHSS(unsigned char, unsigned char, bool, float, bool)+0x1a>
  this->pulseShape = RADIOLIB_SX126X_GFSK_FILTER_GAUSS_1;
    474a:	230b      	movs	r3, #11
  this->rxBandwidth = 0;
    474c:	f884 0179 	strb.w	r0, [r4, #377]	; 0x179
  this->frequencyDev = 0;
    4750:	f8c4 0174 	str.w	r0, [r4, #372]	; 0x174
  state = setBitRate(0.48828125f);
    4754:	4620      	mov	r0, r4
  this->pulseShape = RADIOLIB_SX126X_GFSK_FILTER_GAUSS_1;
    4756:	f884 317a 	strb.w	r3, [r4, #378]	; 0x17a
  state = setBitRate(0.48828125f);
    475a:	6823      	ldr	r3, [r4, #0]
    475c:	ed9f 0a0e 	vldr	s0, [pc, #56]	; 4798 <SX126x::beginLRFHSS(unsigned char, unsigned char, bool, float, bool)+0xbc>
    4760:	6b5b      	ldr	r3, [r3, #52]	; 0x34
    4762:	4798      	blx	r3
  RADIOLIB_ASSERT(state);
    4764:	2800      	cmp	r0, #0
    4766:	d1c6      	bne.n	46f6 <SX126x::beginLRFHSS(unsigned char, unsigned char, bool, float, bool)+0x1a>
  RADIOLIB_CHECK_RANGE((int8_t)cr, (int8_t)RADIOLIB_SX126X_LR_FHSS_CR_5_6, (int8_t)RADIOLIB_SX126X_LR_FHSS_CR_1_3, RADIOLIB_ERR_INVALID_CODING_RATE);
    4768:	2d03      	cmp	r5, #3
    476a:	d80e      	bhi.n	478a <SX126x::beginLRFHSS(unsigned char, unsigned char, bool, float, bool)+0xae>
  RADIOLIB_CHECK_RANGE((int8_t)bw, (int8_t)RADIOLIB_SX126X_LR_FHSS_BW_39_06, (int8_t)RADIOLIB_SX126X_LR_FHSS_BW_1574_2, RADIOLIB_ERR_INVALID_BANDWIDTH);
    476c:	2e09      	cmp	r6, #9
  this->lrFhssCr = cr;
    476e:	f884 5199 	strb.w	r5, [r4, #409]	; 0x199
  RADIOLIB_CHECK_RANGE((int8_t)bw, (int8_t)RADIOLIB_SX126X_LR_FHSS_BW_39_06, (int8_t)RADIOLIB_SX126X_LR_FHSS_BW_1574_2, RADIOLIB_ERR_INVALID_BANDWIDTH);
    4772:	d80d      	bhi.n	4790 <SX126x::beginLRFHSS(unsigned char, unsigned char, bool, float, bool)+0xb4>
  this->lrFhssHdrCount = hdrCount;
    4774:	2203      	movs	r2, #3
  this->lrFhssHopSeqId = hopSeqId;
    4776:	f44f 7380 	mov.w	r3, #256	; 0x100
  this->lrFhssBw = bw;
    477a:	f884 619a 	strb.w	r6, [r4, #410]	; 0x19a
  this->lrFhssHdrCount = hdrCount;
    477e:	f884 219b 	strb.w	r2, [r4, #411]	; 0x19b
  this->lrFhssHopSeqId = hopSeqId;
    4782:	f8a4 31aa 	strh.w	r3, [r4, #426]	; 0x1aa
}
    4786:	b007      	add	sp, #28
    4788:	bdf0      	pop	{r4, r5, r6, r7, pc}
  RADIOLIB_CHECK_RANGE((int8_t)cr, (int8_t)RADIOLIB_SX126X_LR_FHSS_CR_5_6, (int8_t)RADIOLIB_SX126X_LR_FHSS_CR_1_3, RADIOLIB_ERR_INVALID_CODING_RATE);
    478a:	f06f 0009 	mvn.w	r0, #9
    478e:	e7b2      	b.n	46f6 <SX126x::beginLRFHSS(unsigned char, unsigned char, bool, float, bool)+0x1a>
  RADIOLIB_CHECK_RANGE((int8_t)bw, (int8_t)RADIOLIB_SX126X_LR_FHSS_BW_39_06, (int8_t)RADIOLIB_SX126X_LR_FHSS_BW_1574_2, RADIOLIB_ERR_INVALID_BANDWIDTH);
    4790:	f06f 0007 	mvn.w	r0, #7
    4794:	e7af      	b.n	46f6 <SX126x::beginLRFHSS(unsigned char, unsigned char, bool, float, bool)+0x1a>
    4796:	bf00      	nop
    4798:	3efa0000 	.word	0x3efa0000

0000479c <SX126x::buildLRFHSSPacket(unsigned char const*, unsigned int, unsigned char*, unsigned int*, unsigned int*, unsigned int*)>:
  46, 64, 14, 32, 50, 68, 3,  21,
  39, 57, 75, 7,  25, 43, 61, 79,
  11, 29, 47, 65, 15, 33, 51, 69,
};

int16_t SX126x::buildLRFHSSPacket(const uint8_t* in, size_t in_len, uint8_t* out, size_t* out_len, size_t* out_bits, size_t* out_hops) {
    479c:	e92d 4ff0 	stmdb	sp!, {r4, r5, r6, r7, r8, r9, sl, fp, lr}
    47a0:	f5ad 7d2b 	sub.w	sp, sp, #684	; 0x2ac
    47a4:	461c      	mov	r4, r3
    47a6:	9007      	str	r0, [sp, #28]
  // perform payload whitening
  uint8_t lfsr = 0xFF;
  for(size_t i = 0; i < in_len; i++) {
    47a8:	9208      	str	r2, [sp, #32]
    47aa:	b1ea      	cbz	r2, 47e8 <SX126x::buildLRFHSSPacket(unsigned char const*, unsigned int, unsigned char*, unsigned int*, unsigned int*, unsigned int*)+0x4c>
    47ac:	1e48      	subs	r0, r1, #1
    47ae:	9a08      	ldr	r2, [sp, #32]
    47b0:	1e5d      	subs	r5, r3, #1
  uint8_t lfsr = 0xFF;
    47b2:	23ff      	movs	r3, #255	; 0xff
    47b4:	1886      	adds	r6, r0, r2
    uint8_t u = in[i] ^ lfsr;
    47b6:	f810 1f01 	ldrb.w	r1, [r0, #1]!

    // we really shouldn't reuse the caller's memory in this way ...
    // but since this is a private method it should be at least controlled, if not safe
    out[i] = ((u & 0x0F) << 4 ) | ((u & 0xF0) >> 4);
    lfsr = (lfsr << 1) | (((lfsr & 0x80) >> 7) ^ (((lfsr & 0x20) >> 5) ^ (((lfsr & 0x10) >> 4) ^ ((lfsr & 0x08) >> 3))));
    47ba:	091a      	lsrs	r2, r3, #4
    uint8_t u = in[i] ^ lfsr;
    47bc:	4059      	eors	r1, r3
    lfsr = (lfsr << 1) | (((lfsr & 0x80) >> 7) ^ (((lfsr & 0x20) >> 5) ^ (((lfsr & 0x10) >> 4) ^ ((lfsr & 0x08) >> 3))));
    47be:	ea82 1253 	eor.w	r2, r2, r3, lsr #5
  for(size_t i = 0; i < in_len; i++) {
    47c2:	4286      	cmp	r6, r0
    lfsr = (lfsr << 1) | (((lfsr & 0x80) >> 7) ^ (((lfsr & 0x20) >> 5) ^ (((lfsr & 0x10) >> 4) ^ ((lfsr & 0x08) >> 3))));
    47c4:	ea82 02d3 	eor.w	r2, r2, r3, lsr #3
    out[i] = ((u & 0x0F) << 4 ) | ((u & 0xF0) >> 4);
    47c8:	ea4f 1701 	mov.w	r7, r1, lsl #4
    lfsr = (lfsr << 1) | (((lfsr & 0x80) >> 7) ^ (((lfsr & 0x20) >> 5) ^ (((lfsr & 0x10) >> 4) ^ ((lfsr & 0x08) >> 3))));
    47cc:	f002 0201 	and.w	r2, r2, #1
    out[i] = ((u & 0x0F) << 4 ) | ((u & 0xF0) >> 4);
    47d0:	ea47 1711 	orr.w	r7, r7, r1, lsr #4
    lfsr = (lfsr << 1) | (((lfsr & 0x80) >> 7) ^ (((lfsr & 0x20) >> 5) ^ (((lfsr & 0x10) >> 4) ^ ((lfsr & 0x08) >> 3))));
    47d4:	ea4f 0143 	mov.w	r1, r3, lsl #1
    47d8:	ea82 13d3 	eor.w	r3, r2, r3, lsr #7
    out[i] = ((u & 0x0F) << 4 ) | ((u & 0xF0) >> 4);
    47dc:	f805 7f01 	strb.w	r7, [r5, #1]!
    lfsr = (lfsr << 1) | (((lfsr & 0x80) >> 7) ^ (((lfsr & 0x20) >> 5) ^ (((lfsr & 0x10) >> 4) ^ ((lfsr & 0x08) >> 3))));
    47e0:	b2ca      	uxtb	r2, r1
    47e2:	ea43 0302 	orr.w	r3, r3, r2
  for(size_t i = 0; i < in_len; i++) {
    47e6:	d1e6      	bne.n	47b6 <SX126x::buildLRFHSSPacket(unsigned char const*, unsigned int, unsigned char*, unsigned int*, unsigned int*, unsigned int*)+0x1a>

  // calculate the CRC-16 over the whitened data, looks like something custom
  RadioLibCRCInstance.size = 16;
  RadioLibCRCInstance.poly = 0x755B;
  RadioLibCRCInstance.init = 0xFFFF;
  RadioLibCRCInstance.out = 0x0000;
    47e8:	4a88      	ldr	r2, [pc, #544]	; (4a0c <SX126x::buildLRFHSSPacket(unsigned char const*, unsigned int, unsigned char*, unsigned int*, unsigned int*, unsigned int*)+0x270>)
  RadioLibCRCInstance.size = 16;
    47ea:	2310      	movs	r3, #16
  RadioLibCRCInstance.out = 0x0000;
    47ec:	2700      	movs	r7, #0
  RadioLibCRCInstance.init = 0xFFFF;
    47ee:	f247 5c5b 	movw	ip, #30043	; 0x755b
  uint16_t crc16 = RadioLibCRCInstance.checksum(out, in_len);
    47f2:	9d08      	ldr	r5, [sp, #32]
    47f4:	4621      	mov	r1, r4
  RadioLibCRCInstance.size = 16;
    47f6:	7013      	strb	r3, [r2, #0]
  RadioLibCRCInstance.init = 0xFFFF;
    47f8:	f64f 73ff 	movw	r3, #65535	; 0xffff
  RadioLibCRCInstance.out = 0x0000;
    47fc:	60d7      	str	r7, [r2, #12]
  uint16_t crc16 = RadioLibCRCInstance.checksum(out, in_len);
    47fe:	4883      	ldr	r0, [pc, #524]	; (4a0c <SX126x::buildLRFHSSPacket(unsigned char const*, unsigned int, unsigned char*, unsigned int*, unsigned int*, unsigned int*)+0x270>)
  RadioLibCRCInstance.init = 0xFFFF;
    4800:	e9c2 c301 	strd	ip, r3, [r2, #4]
  uint16_t crc16 = RadioLibCRCInstance.checksum(out, in_len);
    4804:	462a      	mov	r2, r5
    4806:	f000 fd9f 	bl	5348 <RadioLibCRC::checksum(unsigned char const*, unsigned int)>

  // add payload CRC
  out[in_len] = (crc16 >> 8) & 0xFF;
  out[in_len + 1] = crc16 & 0xFF;
  out[in_len + 2] = 0;
    480a:	1cab      	adds	r3, r5, #2
  out[in_len] = (crc16 >> 8) & 0xFF;
    480c:	f3c0 2107 	ubfx	r1, r0, #8, #8
  out[in_len + 1] = crc16 & 0xFF;
    4810:	1962      	adds	r2, r4, r5

  // encode the payload with CRC using convolutional coding with 1/3 rate into a temporary buffer
  uint8_t tmp[RADIOLIB_SX126X_LR_FHSS_MAX_ENC_SIZE] = { 0 };
    4812:	9712      	str	r7, [sp, #72]	; 0x48
  out[in_len] = (crc16 >> 8) & 0xFF;
    4814:	5561      	strb	r1, [r4, r5]
  size_t nb_bits = 0;
  RadioLibConvCodeInstance.begin(3);
  RadioLibConvCodeInstance.encode(out, 8 * (in_len + 2) + 6, tmp, &nb_bits);
    4816:	00dd      	lsls	r5, r3, #3
  out[in_len + 1] = crc16 & 0xFF;
    4818:	7050      	strb	r0, [r2, #1]
  uint8_t tmp[RADIOLIB_SX126X_LR_FHSS_MAX_ENC_SIZE] = { 0 };
    481a:	4639      	mov	r1, r7
    481c:	f44f 7217 	mov.w	r2, #604	; 0x25c
  out[in_len + 2] = 0;
    4820:	54e7      	strb	r7, [r4, r3]
  uint8_t tmp[RADIOLIB_SX126X_LR_FHSS_MAX_ENC_SIZE] = { 0 };
    4822:	a813      	add	r0, sp, #76	; 0x4c
  RadioLibConvCodeInstance.encode(out, 8 * (in_len + 2) + 6, tmp, &nb_bits);
    4824:	9509      	str	r5, [sp, #36]	; 0x24
  uint8_t tmp[RADIOLIB_SX126X_LR_FHSS_MAX_ENC_SIZE] = { 0 };
    4826:	f003 fefb 	bl	8620 <memset>
  RadioLibConvCodeInstance.begin(3);
    482a:	2103      	movs	r1, #3
    482c:	4878      	ldr	r0, [pc, #480]	; (4a10 <SX126x::buildLRFHSSPacket(unsigned char const*, unsigned int, unsigned char*, unsigned int*, unsigned int*, unsigned int*)+0x274>)
  size_t nb_bits = 0;
    482e:	970b      	str	r7, [sp, #44]	; 0x2c
  RadioLibConvCodeInstance.begin(3);
    4830:	f000 fdfa 	bl	5428 <RadioLibConvCode::begin(unsigned char)>
  RadioLibConvCodeInstance.encode(out, 8 * (in_len + 2) + 6, tmp, &nb_bits);
    4834:	ab0b      	add	r3, sp, #44	; 0x2c
    4836:	1daa      	adds	r2, r5, #6
    4838:	4621      	mov	r1, r4
    483a:	4875      	ldr	r0, [pc, #468]	; (4a10 <SX126x::buildLRFHSSPacket(unsigned char const*, unsigned int, unsigned char*, unsigned int*, unsigned int*, unsigned int*)+0x274>)
    483c:	9300      	str	r3, [sp, #0]
    483e:	ab12      	add	r3, sp, #72	; 0x48
    4840:	f000 fdf6 	bl	5430 <RadioLibConvCode::encode(unsigned char const*, unsigned int, unsigned char*, unsigned int*)>
  memset(out, 0, RADIOLIB_SX126X_MAX_PACKET_LENGTH);
    4844:	22ff      	movs	r2, #255	; 0xff
    4846:	4639      	mov	r1, r7
    4848:	4620      	mov	r0, r4
    484a:	f003 fee9 	bl	8620 <memset>

  // for rates other than the 1/3 base, puncture the code
  if(this->lrFhssCr != RADIOLIB_SX126X_LR_FHSS_CR_1_3) {
    484e:	9b07      	ldr	r3, [sp, #28]
    4850:	f893 5199 	ldrb.w	r5, [r3, #409]	; 0x199
    4854:	2d03      	cmp	r5, #3
    4856:	f000 8267 	beq.w	4d28 <SX126x::buildLRFHSSPacket(unsigned char const*, unsigned int, unsigned char*, unsigned int*, unsigned int*, unsigned int*)+0x58c>
    uint32_t matrix_index = 0;
    uint8_t  matrix[15]   = { 1, 1, 0, 0, 1, 0, 1, 0, 0, 0, 1, 0, 1, 0, 0 };
    485a:	4b6e      	ldr	r3, [pc, #440]	; (4a14 <SX126x::buildLRFHSSPacket(unsigned char const*, unsigned int, unsigned char*, unsigned int*, unsigned int*, unsigned int*)+0x278>)
    485c:	ae0e      	add	r6, sp, #56	; 0x38
    485e:	2d02      	cmp	r5, #2
    4860:	46b4      	mov	ip, r6
    4862:	cb0f      	ldmia	r3, {r0, r1, r2, r3}
    4864:	e8ac 0007 	stmia.w	ip!, {r0, r1, r2}
    4868:	f82c 3b02 	strh.w	r3, [ip], #2
    486c:	ea4f 4313 	mov.w	r3, r3, lsr #16
    4870:	f88c 3000 	strb.w	r3, [ip]
    uint8_t  matrix_len   = 0;
    switch(this->lrFhssCr) {
    4874:	d83c      	bhi.n	48f0 <SX126x::buildLRFHSSPacket(unsigned char const*, unsigned int, unsigned char*, unsigned int*, unsigned int*, unsigned int*)+0x154>
    4876:	4b68      	ldr	r3, [pc, #416]	; (4a18 <SX126x::buildLRFHSSPacket(unsigned char const*, unsigned int, unsigned char*, unsigned int*, unsigned int*, unsigned int*)+0x27c>)
    4878:	f813 9005 	ldrb.w	r9, [r3, r5]
        matrix_len = 3;
        break;
    }

    uint32_t j = 0;
    for(uint32_t i = 0; i < nb_bits; i++) {
    487c:	f8dd c02c 	ldr.w	ip, [sp, #44]	; 0x2c
    4880:	f1bc 0f00 	cmp.w	ip, #0
    4884:	f000 8256 	beq.w	4d34 <SX126x::buildLRFHSSPacket(unsigned char const*, unsigned int, unsigned char*, unsigned int*, unsigned int*, unsigned int*)+0x598>
    4888:	2200      	movs	r2, #0
          CLEAR_BIT_IN_ARRAY_LSB(out, j);
        }
        j++;
      }

      if(++matrix_index == matrix_len) {
    488a:	2101      	movs	r1, #1
    uint32_t j = 0;
    488c:	4693      	mov	fp, r2
    uint32_t matrix_index = 0;
    488e:	4613      	mov	r3, r2
          CLEAR_BIT_IN_ARRAY_LSB(out, j);
    4890:	468a      	mov	sl, r1
    4892:	e00e      	b.n	48b2 <SX126x::buildLRFHSSPacket(unsigned char const*, unsigned int, unsigned char*, unsigned int*, unsigned int*, unsigned int*)+0x116>
          SET_BIT_IN_ARRAY_LSB(out, j);
    4894:	f814 000e 	ldrb.w	r0, [r4, lr]
    4898:	4301      	orrs	r1, r0
    489a:	f804 100e 	strb.w	r1, [r4, lr]
        j++;
    489e:	f10b 0b01 	add.w	fp, fp, #1
      if(++matrix_index == matrix_len) {
    48a2:	3301      	adds	r3, #1
    for(uint32_t i = 0; i < nb_bits; i++) {
    48a4:	3201      	adds	r2, #1
        matrix_index = 0;
    48a6:	454b      	cmp	r3, r9
    48a8:	bf08      	it	eq
    48aa:	2300      	moveq	r3, #0
    for(uint32_t i = 0; i < nb_bits; i++) {
    48ac:	4594      	cmp	ip, r2
    48ae:	d021      	beq.n	48f4 <SX126x::buildLRFHSSPacket(unsigned char const*, unsigned int, unsigned char*, unsigned int*, unsigned int*, unsigned int*)+0x158>
      if(matrix[matrix_index]) {
    48b0:	5cf1      	ldrb	r1, [r6, r3]
        if(TEST_BIT_IN_ARRAY_LSB(tmp, i)) {
    48b2:	08d7      	lsrs	r7, r2, #3
    48b4:	43d0      	mvns	r0, r2
      if(matrix[matrix_index]) {
    48b6:	2900      	cmp	r1, #0
    48b8:	d0f3      	beq.n	48a2 <SX126x::buildLRFHSSPacket(unsigned char const*, unsigned int, unsigned char*, unsigned int*, unsigned int*, unsigned int*)+0x106>
        if(TEST_BIT_IN_ARRAY_LSB(tmp, i)) {
    48ba:	f10d 0e48 	add.w	lr, sp, #72	; 0x48
          CLEAR_BIT_IN_ARRAY_LSB(out, j);
    48be:	ea6f 050b 	mvn.w	r5, fp
        if(TEST_BIT_IN_ARRAY_LSB(tmp, i)) {
    48c2:	f000 0007 	and.w	r0, r0, #7
    48c6:	f81e 8007 	ldrb.w	r8, [lr, r7]
          SET_BIT_IN_ARRAY_LSB(out, j);
    48ca:	f005 0107 	and.w	r1, r5, #7
          CLEAR_BIT_IN_ARRAY_LSB(out, j);
    48ce:	ea4f 0edb 	mov.w	lr, fp, lsr #3
        if(TEST_BIT_IN_ARRAY_LSB(tmp, i)) {
    48d2:	fa48 f000 	asr.w	r0, r8, r0
          SET_BIT_IN_ARRAY_LSB(out, j);
    48d6:	fa0a f101 	lsl.w	r1, sl, r1
        if(TEST_BIT_IN_ARRAY_LSB(tmp, i)) {
    48da:	f010 0f01 	tst.w	r0, #1
          CLEAR_BIT_IN_ARRAY_LSB(out, j);
    48de:	460d      	mov	r5, r1
        if(TEST_BIT_IN_ARRAY_LSB(tmp, i)) {
    48e0:	d1d8      	bne.n	4894 <SX126x::buildLRFHSSPacket(unsigned char const*, unsigned int, unsigned char*, unsigned int*, unsigned int*, unsigned int*)+0xf8>
          CLEAR_BIT_IN_ARRAY_LSB(out, j);
    48e2:	f814 100e 	ldrb.w	r1, [r4, lr]
    48e6:	ea21 0105 	bic.w	r1, r1, r5
    48ea:	f804 100e 	strb.w	r1, [r4, lr]
    48ee:	e7d6      	b.n	489e <SX126x::buildLRFHSSPacket(unsigned char const*, unsigned int, unsigned char*, unsigned int*, unsigned int*, unsigned int*)+0x102>
    uint8_t  matrix[15]   = { 1, 1, 0, 0, 1, 0, 1, 0, 0, 0, 1, 0, 1, 0, 0 };
    48f0:	46b9      	mov	r9, r7
    48f2:	e7c3      	b.n	487c <SX126x::buildLRFHSSPacket(unsigned char const*, unsigned int, unsigned char*, unsigned int*, unsigned int*, unsigned int*)+0xe0>
      }
    }

    nb_bits = j;
    memcpy(tmp, out, (nb_bits + 7) / 8);
    48f4:	f10b 0207 	add.w	r2, fp, #7
    48f8:	4621      	mov	r1, r4
    48fa:	a812      	add	r0, sp, #72	; 0x48
    nb_bits = j;
    48fc:	f8cd b02c 	str.w	fp, [sp, #44]	; 0x2c
    memcpy(tmp, out, (nb_bits + 7) / 8);
    4900:	08d2      	lsrs	r2, r2, #3
    4902:	f001 ff0f 	bl	6724 <memcpy>
  }

  // interleave the payload into output buffer
  uint16_t step = 0;
  while((size_t)(step * step) < nb_bits) {
    4906:	f1bb 0f00 	cmp.w	fp, #0
    490a:	f000 8210 	beq.w	4d2e <SX126x::buildLRFHSSPacket(unsigned char const*, unsigned int, unsigned char*, unsigned int*, unsigned int*, unsigned int*)+0x592>
  uint16_t step = 0;
    490e:	2200      	movs	r2, #0
    // probably the silliest sqrt() I ever saw
    step++;
    4910:	3201      	adds	r2, #1
    4912:	b292      	uxth	r2, r2
  while((size_t)(step * step) < nb_bits) {
    4914:	fb02 f302 	mul.w	r3, r2, r2
    4918:	455b      	cmp	r3, fp
    491a:	d3f9      	bcc.n	4910 <SX126x::buildLRFHSSPacket(unsigned char const*, unsigned int, unsigned char*, unsigned int*, unsigned int*, unsigned int*)+0x174>

  uint16_t pos           = 0;
  uint16_t st_idx        = 0;
  uint16_t st_idx_init   = 0;
  int16_t  bits_left     = nb_bits;
  uint16_t out_row_index = RADIOLIB_SX126X_LR_FHSS_HEADER_BITS * this->lrFhssHdrCount;
    491c:	9b07      	ldr	r3, [sp, #28]
  step <<= 1;
    491e:	ea4f 0942 	mov.w	r9, r2, lsl #1
  const uint16_t step_v = step >> 1;
    4922:	0852      	lsrs	r2, r2, #1
  uint16_t out_row_index = RADIOLIB_SX126X_LR_FHSS_HEADER_BITS * this->lrFhssHdrCount;
    4924:	f893 319b 	ldrb.w	r3, [r3, #411]	; 0x19b
  step <<= 1;
    4928:	fa1f f989 	uxth.w	r9, r9
  const uint16_t step_v = step >> 1;
    492c:	9202      	str	r2, [sp, #8]
  uint16_t out_row_index = RADIOLIB_SX126X_LR_FHSS_HEADER_BITS * this->lrFhssHdrCount;
    492e:	ebc3 02c3 	rsb	r2, r3, r3, lsl #3
    4932:	eb03 02c2 	add.w	r2, r3, r2, lsl #3
    4936:	0052      	lsls	r2, r2, #1
    4938:	b292      	uxth	r2, r2
    493a:	9204      	str	r2, [sp, #16]
  int16_t  bits_left     = nb_bits;
    493c:	fa0f f28b 	sxth.w	r2, fp

  while(bits_left > 0) {
    4940:	2a00      	cmp	r2, #0
  int16_t  bits_left     = nb_bits;
    4942:	9205      	str	r2, [sp, #20]
  while(bits_left > 0) {
    4944:	f340 8201 	ble.w	4d4a <SX126x::buildLRFHSSPacket(unsigned char const*, unsigned int, unsigned char*, unsigned int*, unsigned int*, unsigned int*)+0x5ae>
  uint16_t st_idx_init   = 0;
    4948:	2300      	movs	r3, #0
  uint16_t pos           = 0;
    494a:	f8cd b00c 	str.w	fp, [sp, #12]
    if(in_row_width > RADIOLIB_SX126X_LR_FHSS_FRAG_BITS) {
      in_row_width = RADIOLIB_SX126X_LR_FHSS_FRAG_BITS;
    }

    // guard bits
    CLEAR_BIT_IN_ARRAY_LSB(out, out_row_index);
    494e:	2701      	movs	r7, #1
  uint16_t st_idx        = 0;
    4950:	4698      	mov	r8, r3
  uint16_t pos           = 0;
    4952:	469b      	mov	fp, r3
    CLEAR_BIT_IN_ARRAY_LSB(out, out_row_index);
    4954:	9d05      	ldr	r5, [sp, #20]
    4956:	9e04      	ldr	r6, [sp, #16]
    4958:	2d30      	cmp	r5, #48	; 0x30
    495a:	ea6f 0106 	mvn.w	r1, r6
    495e:	ea4f 00d6 	mov.w	r0, r6, lsr #3
    4962:	bfa8      	it	ge
    4964:	2530      	movge	r5, #48	; 0x30
    CLEAR_BIT_IN_ARRAY_LSB(out, out_row_index + 1);
    4966:	1c72      	adds	r2, r6, #1
    CLEAR_BIT_IN_ARRAY_LSB(out, out_row_index);
    4968:	f001 0107 	and.w	r1, r1, #7
    496c:	b2ad      	uxth	r5, r5
    496e:	fa07 f101 	lsl.w	r1, r7, r1
    4972:	9506      	str	r5, [sp, #24]
    4974:	5c25      	ldrb	r5, [r4, r0]
    4976:	ea25 0501 	bic.w	r5, r5, r1
    CLEAR_BIT_IN_ARRAY_LSB(out, out_row_index + 1);
    497a:	43d1      	mvns	r1, r2
    497c:	10d2      	asrs	r2, r2, #3
    497e:	f001 0107 	and.w	r1, r1, #7
    CLEAR_BIT_IN_ARRAY_LSB(out, out_row_index);
    4982:	5425      	strb	r5, [r4, r0]
    CLEAR_BIT_IN_ARRAY_LSB(out, out_row_index + 1);
    4984:	5ca0      	ldrb	r0, [r4, r2]
    4986:	fa07 f101 	lsl.w	r1, r7, r1
    498a:	9d06      	ldr	r5, [sp, #24]
    498c:	ea20 0101 	bic.w	r1, r0, r1
    4990:	f105 3aff 	add.w	sl, r5, #4294967295
    4994:	1cb0      	adds	r0, r6, #2
    4996:	54a1      	strb	r1, [r4, r2]
        
    for(int16_t j = 0; j < in_row_width; j++) {
    4998:	1cf2      	adds	r2, r6, #3
    499a:	fa12 fa8a 	uxtah	sl, r2, sl
    499e:	e018      	b.n	49d2 <SX126x::buildLRFHSSPacket(unsigned char const*, unsigned int, unsigned char*, unsigned int*, unsigned int*, unsigned int*)+0x236>
      // guard bit
      if(TEST_BIT_IN_ARRAY_LSB(tmp, pos)) {
        SET_BIT_IN_ARRAY_LSB(out, j + 2 + out_row_index);
    49a0:	f814 100c 	ldrb.w	r1, [r4, ip]
    49a4:	430a      	orrs	r2, r1
    49a6:	f804 200c 	strb.w	r2, [r4, ip]
      } else {
        CLEAR_BIT_IN_ARRAY_LSB(out, j + 2 + out_row_index);
      }

      pos += step;
    49aa:	444b      	add	r3, r9
      if(pos >= nb_bits) {
    49ac:	9903      	ldr	r1, [sp, #12]
        st_idx += step_v;
    49ae:	9a02      	ldr	r2, [sp, #8]
      pos += step;
    49b0:	b29b      	uxth	r3, r3
        st_idx += step_v;
    49b2:	4442      	add	r2, r8
      if(pos >= nb_bits) {
    49b4:	428b      	cmp	r3, r1
    49b6:	d309      	bcc.n	49cc <SX126x::buildLRFHSSPacket(unsigned char const*, unsigned int, unsigned char*, unsigned int*, unsigned int*, unsigned int*)+0x230>
        st_idx += step_v;
    49b8:	b293      	uxth	r3, r2
        if(st_idx >= step) {
          st_idx_init++;
    49ba:	f10b 0201 	add.w	r2, fp, #1
        if(st_idx >= step) {
    49be:	4599      	cmp	r9, r3
    49c0:	4698      	mov	r8, r3
    49c2:	d803      	bhi.n	49cc <SX126x::buildLRFHSSPacket(unsigned char const*, unsigned int, unsigned char*, unsigned int*, unsigned int*, unsigned int*)+0x230>
          st_idx_init++;
    49c4:	fa1f fb82 	uxth.w	fp, r2
    49c8:	465b      	mov	r3, fp
          st_idx = st_idx_init;
    49ca:	46d8      	mov	r8, fp
    for(int16_t j = 0; j < in_row_width; j++) {
    49cc:	3001      	adds	r0, #1
    49ce:	4582      	cmp	sl, r0
    49d0:	d024      	beq.n	4a1c <SX126x::buildLRFHSSPacket(unsigned char const*, unsigned int, unsigned char*, unsigned int*, unsigned int*, unsigned int*)+0x280>
      if(TEST_BIT_IN_ARRAY_LSB(tmp, pos)) {
    49d2:	f10d 0c48 	add.w	ip, sp, #72	; 0x48
    49d6:	08de      	lsrs	r6, r3, #3
    49d8:	43dd      	mvns	r5, r3
        CLEAR_BIT_IN_ARRAY_LSB(out, j + 2 + out_row_index);
    49da:	43c1      	mvns	r1, r0
      if(TEST_BIT_IN_ARRAY_LSB(tmp, pos)) {
    49dc:	f81c 6006 	ldrb.w	r6, [ip, r6]
        CLEAR_BIT_IN_ARRAY_LSB(out, j + 2 + out_row_index);
    49e0:	ea4f 0ce0 	mov.w	ip, r0, asr #3
      if(TEST_BIT_IN_ARRAY_LSB(tmp, pos)) {
    49e4:	f005 0507 	and.w	r5, r5, #7
        SET_BIT_IN_ARRAY_LSB(out, j + 2 + out_row_index);
    49e8:	f001 0207 	and.w	r2, r1, #7
    49ec:	46e6      	mov	lr, ip
      if(TEST_BIT_IN_ARRAY_LSB(tmp, pos)) {
    49ee:	412e      	asrs	r6, r5
        SET_BIT_IN_ARRAY_LSB(out, j + 2 + out_row_index);
    49f0:	fa07 f202 	lsl.w	r2, r7, r2
      if(TEST_BIT_IN_ARRAY_LSB(tmp, pos)) {
    49f4:	f016 0f01 	tst.w	r6, #1
        CLEAR_BIT_IN_ARRAY_LSB(out, j + 2 + out_row_index);
    49f8:	4611      	mov	r1, r2
      if(TEST_BIT_IN_ARRAY_LSB(tmp, pos)) {
    49fa:	d1d1      	bne.n	49a0 <SX126x::buildLRFHSSPacket(unsigned char const*, unsigned int, unsigned char*, unsigned int*, unsigned int*, unsigned int*)+0x204>
        CLEAR_BIT_IN_ARRAY_LSB(out, j + 2 + out_row_index);
    49fc:	f814 200c 	ldrb.w	r2, [r4, ip]
    4a00:	ea22 0201 	bic.w	r2, r2, r1
    4a04:	f804 200c 	strb.w	r2, [r4, ip]
    4a08:	e7cf      	b.n	49aa <SX126x::buildLRFHSSPacket(unsigned char const*, unsigned int, unsigned char*, unsigned int*, unsigned int*, unsigned int*)+0x20e>
    4a0a:	bf00      	nop
    4a0c:	20001db4 	.word	0x20001db4
    4a10:	20001dc8 	.word	0x20001dc8
    4a14:	200002cc 	.word	0x200002cc
    4a18:	200002f0 	.word	0x200002f0
        }
        pos = st_idx;
      }
    }

    bits_left -= RADIOLIB_SX126X_LR_FHSS_FRAG_BITS;
    4a1c:	9a05      	ldr	r2, [sp, #20]
    out_row_index += 2 + in_row_width;
    4a1e:	9804      	ldr	r0, [sp, #16]
    4a20:	f1a2 0130 	sub.w	r1, r2, #48	; 0x30
    4a24:	9a06      	ldr	r2, [sp, #24]
    4a26:	3202      	adds	r2, #2
    4a28:	b209      	sxth	r1, r1
    4a2a:	4410      	add	r0, r2
  while(bits_left > 0) {
    4a2c:	2900      	cmp	r1, #0
    4a2e:	9105      	str	r1, [sp, #20]
    out_row_index += 2 + in_row_width;
    4a30:	b282      	uxth	r2, r0
    4a32:	9204      	str	r2, [sp, #16]
  while(bits_left > 0) {
    4a34:	dc8e      	bgt.n	4954 <SX126x::buildLRFHSSPacket(unsigned char const*, unsigned int, unsigned char*, unsigned int*, unsigned int*, unsigned int*)+0x1b8>
  }

  nb_bits = out_row_index - RADIOLIB_SX126X_LR_FHSS_HEADER_BITS * this->lrFhssHdrCount;
    4a36:	9a07      	ldr	r2, [sp, #28]
    4a38:	f892 319b 	ldrb.w	r3, [r2, #411]	; 0x19b
    4a3c:	f892 5199 	ldrb.w	r5, [r2, #409]	; 0x199

  // build the header
  uint8_t raw_header[RADIOLIB_SX126X_LR_FHSS_HDR_BYTES/2];
  raw_header[0] = in_len;
  raw_header[1] = (this->lrFhssCr << 3) | ((uint8_t)this->lrFhssGridNonFcc << 2) |
    4a40:	9807      	ldr	r0, [sp, #28]
    4a42:	00e9      	lsls	r1, r5, #3
  nb_bits = out_row_index - RADIOLIB_SX126X_LR_FHSS_HEADER_BITS * this->lrFhssHdrCount;
    4a44:	9f04      	ldr	r7, [sp, #16]
  raw_header[1] = (this->lrFhssCr << 3) | ((uint8_t)this->lrFhssGridNonFcc << 2) |
    4a46:	f890 21a0 	ldrb.w	r2, [r0, #416]	; 0x1a0
    (RADIOLIB_SX126X_LR_FHSS_HOPPING_ENABLED << 1) | (this->lrFhssBw >> 3);
    4a4a:	f890 619a 	ldrb.w	r6, [r0, #410]	; 0x19a
  raw_header[1] = (this->lrFhssCr << 3) | ((uint8_t)this->lrFhssGridNonFcc << 2) |
    4a4e:	ea41 0182 	orr.w	r1, r1, r2, lsl #2
  raw_header[2] = ((this->lrFhssBw & 0x07) << 5) | (this->lrFhssHopSeqId >> 4);
    4a52:	f8b0 21aa 	ldrh.w	r2, [r0, #426]	; 0x1aa
  nb_bits = out_row_index - RADIOLIB_SX126X_LR_FHSS_HEADER_BITS * this->lrFhssHdrCount;
    4a56:	f06f 0071 	mvn.w	r0, #113	; 0x71
    (RADIOLIB_SX126X_LR_FHSS_HOPPING_ENABLED << 1) | (this->lrFhssBw >> 3);
    4a5a:	ea41 01d6 	orr.w	r1, r1, r6, lsr #3
  nb_bits = out_row_index - RADIOLIB_SX126X_LR_FHSS_HEADER_BITS * this->lrFhssHdrCount;
    4a5e:	fb00 7003 	mla	r0, r0, r3, r7
    (RADIOLIB_SX126X_LR_FHSS_HOPPING_ENABLED << 1) | (this->lrFhssBw >> 3);
    4a62:	f041 0102 	orr.w	r1, r1, #2
  nb_bits = out_row_index - RADIOLIB_SX126X_LR_FHSS_HEADER_BITS * this->lrFhssHdrCount;
    4a66:	900b      	str	r0, [sp, #44]	; 0x2c
  raw_header[2] = ((this->lrFhssBw & 0x07) << 5) | (this->lrFhssHopSeqId >> 4);
    4a68:	0910      	lsrs	r0, r2, #4
  raw_header[1] = (this->lrFhssCr << 3) | ((uint8_t)this->lrFhssGridNonFcc << 2) |
    4a6a:	f88d 1031 	strb.w	r1, [sp, #49]	; 0x31
  raw_header[3] = ((this->lrFhssHopSeqId & 0x000F) << 4);

  // CRC-8 used seems to based on 8H2F, but without final XOR
  RadioLibCRCInstance.size = 8;
    4a6e:	2108      	movs	r1, #8
  raw_header[2] = ((this->lrFhssBw & 0x07) << 5) | (this->lrFhssHopSeqId >> 4);
    4a70:	ea40 1046 	orr.w	r0, r0, r6, lsl #5
  raw_header[0] = in_len;
    4a74:	9e08      	ldr	r6, [sp, #32]
  raw_header[3] = ((this->lrFhssHopSeqId & 0x000F) << 4);
    4a76:	0112      	lsls	r2, r2, #4
  raw_header[2] = ((this->lrFhssBw & 0x07) << 5) | (this->lrFhssHopSeqId >> 4);
    4a78:	f88d 0032 	strb.w	r0, [sp, #50]	; 0x32
  RadioLibCRCInstance.size = 8;
    4a7c:	48b5      	ldr	r0, [pc, #724]	; (4d54 <SX126x::buildLRFHSSPacket(unsigned char const*, unsigned int, unsigned char*, unsigned int*, unsigned int*, unsigned int*)+0x5b8>)
  raw_header[3] = ((this->lrFhssHopSeqId & 0x000F) << 4);
    4a7e:	b2d2      	uxtb	r2, r2
  raw_header[0] = in_len;
    4a80:	f88d 6030 	strb.w	r6, [sp, #48]	; 0x30
  RadioLibCRCInstance.poly = 0x2F;
  RadioLibCRCInstance.init = 0xFF;
    4a84:	262f      	movs	r6, #47	; 0x2f
  RadioLibCRCInstance.size = 8;
    4a86:	7001      	strb	r1, [r0, #0]
  RadioLibCRCInstance.init = 0xFF;
    4a88:	21ff      	movs	r1, #255	; 0xff
    4a8a:	e9c0 6101 	strd	r6, r1, [r0, #4]
  RadioLibCRCInstance.out = 0x00;
    4a8e:	2100      	movs	r1, #0
    4a90:	60c1      	str	r1, [r0, #12]

  uint16_t header_offset = 0;
  for(size_t i = 0; i < this->lrFhssHdrCount; i++) {
    4a92:	2b00      	cmp	r3, #0
    4a94:	f000 80fe 	beq.w	4c94 <SX126x::buildLRFHSSPacket(unsigned char const*, unsigned int, unsigned char*, unsigned int*, unsigned int*, unsigned int*)+0x4f8>
    4a98:	4faf      	ldr	r7, [pc, #700]	; (4d58 <SX126x::buildLRFHSSPacket(unsigned char const*, unsigned int, unsigned char*, unsigned int*, unsigned int*, unsigned int*)+0x5bc>)
    4a9a:	ae0e      	add	r6, sp, #56	; 0x38
    RadioLibConvCodeInstance.encode(raw_header, 8*RADIOLIB_SX126X_LR_FHSS_HDR_BYTES/2, coded_header);
    // tail-biting seems to just do this twice ...?
    RadioLibConvCodeInstance.encode(raw_header, 8*RADIOLIB_SX126X_LR_FHSS_HDR_BYTES/2, coded_header);

    // clear guard bits
    CLEAR_BIT_IN_ARRAY_LSB(out, header_offset);
    4a9c:	2501      	movs	r5, #1
  for(size_t i = 0; i < this->lrFhssHdrCount; i++) {
    4a9e:	9103      	str	r1, [sp, #12]
    4aa0:	f107 0828 	add.w	r8, r7, #40	; 0x28
  uint16_t header_offset = 0;
    4aa4:	9102      	str	r1, [sp, #8]
    raw_header[3] = (raw_header[3] & ~0x0C) | ((this->lrFhssHdrCount - i - 1) << 2);
    4aa6:	9903      	ldr	r1, [sp, #12]
    4aa8:	3b01      	subs	r3, #1
    4aaa:	f022 020c 	bic.w	r2, r2, #12
    uint8_t coded_header[RADIOLIB_SX126X_LR_FHSS_HDR_BYTES] = { 0 };
    4aae:	f04f 0900 	mov.w	r9, #0
    raw_header[3] = (raw_header[3] & ~0x0C) | ((this->lrFhssHdrCount - i - 1) << 2);
    4ab2:	1a5b      	subs	r3, r3, r1
    raw_header[4] = RadioLibCRCInstance.checksum(raw_header, (RADIOLIB_SX126X_LR_FHSS_HDR_BYTES/2 - 1));
    4ab4:	48a7      	ldr	r0, [pc, #668]	; (4d54 <SX126x::buildLRFHSSPacket(unsigned char const*, unsigned int, unsigned char*, unsigned int*, unsigned int*, unsigned int*)+0x5b8>)
    4ab6:	a90c      	add	r1, sp, #48	; 0x30
    raw_header[3] = (raw_header[3] & ~0x0C) | ((this->lrFhssHdrCount - i - 1) << 2);
    4ab8:	ea42 0383 	orr.w	r3, r2, r3, lsl #2
    raw_header[4] = RadioLibCRCInstance.checksum(raw_header, (RADIOLIB_SX126X_LR_FHSS_HDR_BYTES/2 - 1));
    4abc:	2204      	movs	r2, #4
    raw_header[3] = (raw_header[3] & ~0x0C) | ((this->lrFhssHdrCount - i - 1) << 2);
    4abe:	f88d 3033 	strb.w	r3, [sp, #51]	; 0x33
    raw_header[4] = RadioLibCRCInstance.checksum(raw_header, (RADIOLIB_SX126X_LR_FHSS_HDR_BYTES/2 - 1));
    4ac2:	f000 fc41 	bl	5348 <RadioLibCRC::checksum(unsigned char const*, unsigned int)>
    uint8_t coded_header[RADIOLIB_SX126X_LR_FHSS_HDR_BYTES] = { 0 };
    4ac6:	f8c6 9000 	str.w	r9, [r6]
    RadioLibConvCodeInstance.begin(2);
    4aca:	2102      	movs	r1, #2
    raw_header[4] = RadioLibCRCInstance.checksum(raw_header, (RADIOLIB_SX126X_LR_FHSS_HDR_BYTES/2 - 1));
    4acc:	f88d 0034 	strb.w	r0, [sp, #52]	; 0x34
    RadioLibConvCodeInstance.begin(2);
    4ad0:	48a2      	ldr	r0, [pc, #648]	; (4d5c <SX126x::buildLRFHSSPacket(unsigned char const*, unsigned int, unsigned char*, unsigned int*, unsigned int*, unsigned int*)+0x5c0>)
    uint8_t coded_header[RADIOLIB_SX126X_LR_FHSS_HDR_BYTES] = { 0 };
    4ad2:	f8cd 903c 	str.w	r9, [sp, #60]	; 0x3c
    4ad6:	f8ad 9040 	strh.w	r9, [sp, #64]	; 0x40
    RadioLibConvCodeInstance.begin(2);
    4ada:	f000 fca5 	bl	5428 <RadioLibConvCode::begin(unsigned char)>
    RadioLibConvCodeInstance.encode(raw_header, 8*RADIOLIB_SX126X_LR_FHSS_HDR_BYTES/2, coded_header);
    4ade:	4633      	mov	r3, r6
    4ae0:	2228      	movs	r2, #40	; 0x28
    4ae2:	a90c      	add	r1, sp, #48	; 0x30
    4ae4:	f8cd 9000 	str.w	r9, [sp]
    4ae8:	489c      	ldr	r0, [pc, #624]	; (4d5c <SX126x::buildLRFHSSPacket(unsigned char const*, unsigned int, unsigned char*, unsigned int*, unsigned int*, unsigned int*)+0x5c0>)
    4aea:	f000 fca1 	bl	5430 <RadioLibConvCode::encode(unsigned char const*, unsigned int, unsigned char*, unsigned int*)>
    RadioLibConvCodeInstance.encode(raw_header, 8*RADIOLIB_SX126X_LR_FHSS_HDR_BYTES/2, coded_header);
    4aee:	4633      	mov	r3, r6
    4af0:	2228      	movs	r2, #40	; 0x28
    4af2:	a90c      	add	r1, sp, #48	; 0x30
    4af4:	f8cd 9000 	str.w	r9, [sp]
    4af8:	4898      	ldr	r0, [pc, #608]	; (4d5c <SX126x::buildLRFHSSPacket(unsigned char const*, unsigned int, unsigned char*, unsigned int*, unsigned int*, unsigned int*)+0x5c0>)
    4afa:	f000 fc99 	bl	5430 <RadioLibConvCode::encode(unsigned char const*, unsigned int, unsigned char*, unsigned int*)>
    CLEAR_BIT_IN_ARRAY_LSB(out, header_offset);
    4afe:	9b02      	ldr	r3, [sp, #8]
    CLEAR_BIT_IN_ARRAY_LSB(out, header_offset + 1);

    // interleave the header directly to the physical payload buffer
    for(size_t j = 0; j < (8*RADIOLIB_SX126X_LR_FHSS_HDR_BYTES/2); j++) {
      if(TEST_BIT_IN_ARRAY_LSB(coded_header, LrFhssHeaderInterleaver[j])) {
        SET_BIT_IN_ARRAY_LSB(out, header_offset + 2 + j);
    4b00:	464a      	mov	r2, r9
    4b02:	f06f 0102 	mvn.w	r1, #2
    CLEAR_BIT_IN_ARRAY_LSB(out, header_offset);
    4b06:	43d8      	mvns	r0, r3
    4b08:	ea4f 0cd3 	mov.w	ip, r3, lsr #3
    CLEAR_BIT_IN_ARRAY_LSB(out, header_offset + 1);
    4b0c:	f103 0901 	add.w	r9, r3, #1
    4b10:	1ac9      	subs	r1, r1, r3
    CLEAR_BIT_IN_ARRAY_LSB(out, header_offset);
    4b12:	f000 0007 	and.w	r0, r0, #7
    4b16:	f814 e00c 	ldrb.w	lr, [r4, ip]
    CLEAR_BIT_IN_ARRAY_LSB(out, header_offset + 1);
    4b1a:	464b      	mov	r3, r9
    CLEAR_BIT_IN_ARRAY_LSB(out, header_offset);
    4b1c:	fa05 f000 	lsl.w	r0, r5, r0
    4b20:	ea2e 0000 	bic.w	r0, lr, r0
        SET_BIT_IN_ARRAY_LSB(out, header_offset + 2 + j);
    4b24:	f8df e240 	ldr.w	lr, [pc, #576]	; 4d68 <SX126x::buildLRFHSSPacket(unsigned char const*, unsigned int, unsigned char*, unsigned int*, unsigned int*, unsigned int*)+0x5cc>
    CLEAR_BIT_IN_ARRAY_LSB(out, header_offset);
    4b28:	f804 000c 	strb.w	r0, [r4, ip]
    CLEAR_BIT_IN_ARRAY_LSB(out, header_offset + 1);
    4b2c:	43d8      	mvns	r0, r3
    4b2e:	10db      	asrs	r3, r3, #3
    4b30:	f000 0007 	and.w	r0, r0, #7
    4b34:	f814 c003 	ldrb.w	ip, [r4, r3]
    4b38:	fa05 f000 	lsl.w	r0, r5, r0
    4b3c:	ea2c 0000 	bic.w	r0, ip, r0
    4b40:	54e0      	strb	r0, [r4, r3]
    for(size_t j = 0; j < (8*RADIOLIB_SX126X_LR_FHSS_HDR_BYTES/2); j++) {
    4b42:	9b02      	ldr	r3, [sp, #8]
    4b44:	1c98      	adds	r0, r3, #2
    4b46:	e00d      	b.n	4b64 <SX126x::buildLRFHSSPacket(unsigned char const*, unsigned int, unsigned char*, unsigned int*, unsigned int*, unsigned int*)+0x3c8>
        SET_BIT_IN_ARRAY_LSB(out, header_offset + 2 + j);
    4b48:	f814 2009 	ldrb.w	r2, [r4, r9]
    for(size_t j = 0; j < (8*RADIOLIB_SX126X_LR_FHSS_HDR_BYTES/2); j++) {
    4b4c:	4577      	cmp	r7, lr
    4b4e:	f100 0001 	add.w	r0, r0, #1
    4b52:	f101 31ff 	add.w	r1, r1, #4294967295
        SET_BIT_IN_ARRAY_LSB(out, header_offset + 2 + j);
    4b56:	ea43 0302 	orr.w	r3, r3, r2
    4b5a:	f804 3009 	strb.w	r3, [r4, r9]
    for(size_t j = 0; j < (8*RADIOLIB_SX126X_LR_FHSS_HDR_BYTES/2); j++) {
    4b5e:	d01e      	beq.n	4b9e <SX126x::buildLRFHSSPacket(unsigned char const*, unsigned int, unsigned char*, unsigned int*, unsigned int*, unsigned int*)+0x402>
      if(TEST_BIT_IN_ARRAY_LSB(coded_header, LrFhssHeaderInterleaver[j])) {
    4b60:	f81e 2f01 	ldrb.w	r2, [lr, #1]!
    4b64:	08d3      	lsrs	r3, r2, #3
    4b66:	43d2      	mvns	r2, r2
      } else {
        CLEAR_BIT_IN_ARRAY_LSB(out, header_offset + 2 + j);
    4b68:	f001 0c07 	and.w	ip, r1, #7
    4b6c:	ea4f 09d0 	mov.w	r9, r0, lsr #3
      if(TEST_BIT_IN_ARRAY_LSB(coded_header, LrFhssHeaderInterleaver[j])) {
    4b70:	f816 b003 	ldrb.w	fp, [r6, r3]
    4b74:	f002 0207 	and.w	r2, r2, #7
        SET_BIT_IN_ARRAY_LSB(out, header_offset + 2 + j);
    4b78:	fa05 f30c 	lsl.w	r3, r5, ip
      if(TEST_BIT_IN_ARRAY_LSB(coded_header, LrFhssHeaderInterleaver[j])) {
    4b7c:	fa4b f202 	asr.w	r2, fp, r2
        CLEAR_BIT_IN_ARRAY_LSB(out, header_offset + 2 + j);
    4b80:	469c      	mov	ip, r3
      if(TEST_BIT_IN_ARRAY_LSB(coded_header, LrFhssHeaderInterleaver[j])) {
    4b82:	07d2      	lsls	r2, r2, #31
    4b84:	d4e0      	bmi.n	4b48 <SX126x::buildLRFHSSPacket(unsigned char const*, unsigned int, unsigned char*, unsigned int*, unsigned int*, unsigned int*)+0x3ac>
        CLEAR_BIT_IN_ARRAY_LSB(out, header_offset + 2 + j);
    4b86:	f814 3009 	ldrb.w	r3, [r4, r9]
    for(size_t j = 0; j < (8*RADIOLIB_SX126X_LR_FHSS_HDR_BYTES/2); j++) {
    4b8a:	4577      	cmp	r7, lr
    4b8c:	f100 0001 	add.w	r0, r0, #1
    4b90:	f101 31ff 	add.w	r1, r1, #4294967295
        CLEAR_BIT_IN_ARRAY_LSB(out, header_offset + 2 + j);
    4b94:	ea23 030c 	bic.w	r3, r3, ip
    4b98:	f804 3009 	strb.w	r3, [r4, r9]
    for(size_t j = 0; j < (8*RADIOLIB_SX126X_LR_FHSS_HDR_BYTES/2); j++) {
    4b9c:	d1e0      	bne.n	4b60 <SX126x::buildLRFHSSPacket(unsigned char const*, unsigned int, unsigned char*, unsigned int*, unsigned int*, unsigned int*)+0x3c4>
    4b9e:	9a02      	ldr	r2, [sp, #8]
    4ba0:	f06f 034a 	mvn.w	r3, #74	; 0x4a
    4ba4:	f8df e1c4 	ldr.w	lr, [pc, #452]	; 4d6c <SX126x::buildLRFHSSPacket(unsigned char const*, unsigned int, unsigned char*, unsigned int*, unsigned int*, unsigned int*)+0x5d0>
    4ba8:	1a9b      	subs	r3, r3, r2
    4baa:	f102 004a 	add.w	r0, r2, #74	; 0x4a
    4bae:	2211      	movs	r2, #17
    4bb0:	e00d      	b.n	4bce <SX126x::buildLRFHSSPacket(unsigned char const*, unsigned int, unsigned char*, unsigned int*, unsigned int*, unsigned int*)+0x432>
      }
    }
    for(size_t j = 0; j < (8*RADIOLIB_SX126X_LR_FHSS_HDR_BYTES/2); j++) {
      if(TEST_BIT_IN_ARRAY_LSB(coded_header, LrFhssHeaderInterleaver[(8*RADIOLIB_SX126X_LR_FHSS_HDR_BYTES/2) + j])) {
        SET_BIT_IN_ARRAY_LSB(out, header_offset + 2 + (8*RADIOLIB_SX126X_LR_FHSS_HDR_BYTES/2) + (8*RADIOLIB_SX126X_LR_FHSS_SYNC_WORD_BYTES) + j);
    4bb2:	f814 2009 	ldrb.w	r2, [r4, r9]
    for(size_t j = 0; j < (8*RADIOLIB_SX126X_LR_FHSS_HDR_BYTES/2); j++) {
    4bb6:	45f0      	cmp	r8, lr
    4bb8:	f100 0001 	add.w	r0, r0, #1
    4bbc:	f103 33ff 	add.w	r3, r3, #4294967295
        SET_BIT_IN_ARRAY_LSB(out, header_offset + 2 + (8*RADIOLIB_SX126X_LR_FHSS_HDR_BYTES/2) + (8*RADIOLIB_SX126X_LR_FHSS_SYNC_WORD_BYTES) + j);
    4bc0:	ea41 0102 	orr.w	r1, r1, r2
    4bc4:	f804 1009 	strb.w	r1, [r4, r9]
    for(size_t j = 0; j < (8*RADIOLIB_SX126X_LR_FHSS_HDR_BYTES/2); j++) {
    4bc8:	d01d      	beq.n	4c06 <SX126x::buildLRFHSSPacket(unsigned char const*, unsigned int, unsigned char*, unsigned int*, unsigned int*, unsigned int*)+0x46a>
      if(TEST_BIT_IN_ARRAY_LSB(coded_header, LrFhssHeaderInterleaver[(8*RADIOLIB_SX126X_LR_FHSS_HDR_BYTES/2) + j])) {
    4bca:	f81e 2f01 	ldrb.w	r2, [lr, #1]!
    4bce:	08d1      	lsrs	r1, r2, #3
    4bd0:	43d2      	mvns	r2, r2
      } else {
        CLEAR_BIT_IN_ARRAY_LSB(out, header_offset + 2 + (8*RADIOLIB_SX126X_LR_FHSS_HDR_BYTES/2) + (8*RADIOLIB_SX126X_LR_FHSS_SYNC_WORD_BYTES) + j);
    4bd2:	f003 0c07 	and.w	ip, r3, #7
    4bd6:	ea4f 09d0 	mov.w	r9, r0, lsr #3
      if(TEST_BIT_IN_ARRAY_LSB(coded_header, LrFhssHeaderInterleaver[(8*RADIOLIB_SX126X_LR_FHSS_HDR_BYTES/2) + j])) {
    4bda:	f816 b001 	ldrb.w	fp, [r6, r1]
    4bde:	f002 0207 	and.w	r2, r2, #7
        SET_BIT_IN_ARRAY_LSB(out, header_offset + 2 + (8*RADIOLIB_SX126X_LR_FHSS_HDR_BYTES/2) + (8*RADIOLIB_SX126X_LR_FHSS_SYNC_WORD_BYTES) + j);
    4be2:	fa05 f10c 	lsl.w	r1, r5, ip
      if(TEST_BIT_IN_ARRAY_LSB(coded_header, LrFhssHeaderInterleaver[(8*RADIOLIB_SX126X_LR_FHSS_HDR_BYTES/2) + j])) {
    4be6:	fa4b f202 	asr.w	r2, fp, r2
    4bea:	07d2      	lsls	r2, r2, #31
    4bec:	d4e1      	bmi.n	4bb2 <SX126x::buildLRFHSSPacket(unsigned char const*, unsigned int, unsigned char*, unsigned int*, unsigned int*, unsigned int*)+0x416>
        CLEAR_BIT_IN_ARRAY_LSB(out, header_offset + 2 + (8*RADIOLIB_SX126X_LR_FHSS_HDR_BYTES/2) + (8*RADIOLIB_SX126X_LR_FHSS_SYNC_WORD_BYTES) + j);
    4bee:	f814 2009 	ldrb.w	r2, [r4, r9]
    for(size_t j = 0; j < (8*RADIOLIB_SX126X_LR_FHSS_HDR_BYTES/2); j++) {
    4bf2:	45f0      	cmp	r8, lr
    4bf4:	f100 0001 	add.w	r0, r0, #1
    4bf8:	f103 33ff 	add.w	r3, r3, #4294967295
        CLEAR_BIT_IN_ARRAY_LSB(out, header_offset + 2 + (8*RADIOLIB_SX126X_LR_FHSS_HDR_BYTES/2) + (8*RADIOLIB_SX126X_LR_FHSS_SYNC_WORD_BYTES) + j);
    4bfc:	ea22 0201 	bic.w	r2, r2, r1
    4c00:	f804 2009 	strb.w	r2, [r4, r9]
    for(size_t j = 0; j < (8*RADIOLIB_SX126X_LR_FHSS_HDR_BYTES/2); j++) {
    4c04:	d1e1      	bne.n	4bca <SX126x::buildLRFHSSPacket(unsigned char const*, unsigned int, unsigned char*, unsigned int*, unsigned int*, unsigned int*)+0x42e>
    4c06:	9b02      	ldr	r3, [sp, #8]
    4c08:	f06f 002a 	mvn.w	r0, #42	; 0x2a
      }
    }

    // copy the sync word to the physical payload buffer
    for(size_t j = 0; j < (8*RADIOLIB_SX126X_LR_FHSS_SYNC_WORD_BYTES); j++) {
    4c0c:	f8dd b01c 	ldr.w	fp, [sp, #28]
    4c10:	1ac0      	subs	r0, r0, r3
    4c12:	f103 0c2a 	add.w	ip, r3, #42	; 0x2a
    4c16:	9604      	str	r6, [sp, #16]
    4c18:	2300      	movs	r3, #0
    4c1a:	e00a      	b.n	4c32 <SX126x::buildLRFHSSPacket(unsigned char const*, unsigned int, unsigned char*, unsigned int*, unsigned int*, unsigned int*)+0x496>
      if(TEST_BIT_IN_ARRAY_LSB(this->lrFhssSyncWord, j)) {
        SET_BIT_IN_ARRAY_LSB(out, header_offset + 2 + (8*RADIOLIB_SX126X_LR_FHSS_HDR_BYTES/2) + j);
    4c1c:	f814 2009 	ldrb.w	r2, [r4, r9]
    for(size_t j = 0; j < (8*RADIOLIB_SX126X_LR_FHSS_SYNC_WORD_BYTES); j++) {
    4c20:	3301      	adds	r3, #1
    4c22:	f10c 0c01 	add.w	ip, ip, #1
    4c26:	3801      	subs	r0, #1
        SET_BIT_IN_ARRAY_LSB(out, header_offset + 2 + (8*RADIOLIB_SX126X_LR_FHSS_HDR_BYTES/2) + j);
    4c28:	4311      	orrs	r1, r2
    for(size_t j = 0; j < (8*RADIOLIB_SX126X_LR_FHSS_SYNC_WORD_BYTES); j++) {
    4c2a:	2b20      	cmp	r3, #32
        SET_BIT_IN_ARRAY_LSB(out, header_offset + 2 + (8*RADIOLIB_SX126X_LR_FHSS_HDR_BYTES/2) + j);
    4c2c:	f804 1009 	strb.w	r1, [r4, r9]
    for(size_t j = 0; j < (8*RADIOLIB_SX126X_LR_FHSS_SYNC_WORD_BYTES); j++) {
    4c30:	d01d      	beq.n	4c6e <SX126x::buildLRFHSSPacket(unsigned char const*, unsigned int, unsigned char*, unsigned int*, unsigned int*, unsigned int*)+0x4d2>
      if(TEST_BIT_IN_ARRAY_LSB(this->lrFhssSyncWord, j)) {
    4c32:	eb0b 01d3 	add.w	r1, fp, r3, lsr #3
    4c36:	43da      	mvns	r2, r3
        SET_BIT_IN_ARRAY_LSB(out, header_offset + 2 + (8*RADIOLIB_SX126X_LR_FHSS_HDR_BYTES/2) + j);
    4c38:	ea4f 09dc 	mov.w	r9, ip, lsr #3
      if(TEST_BIT_IN_ARRAY_LSB(this->lrFhssSyncWord, j)) {
    4c3c:	f891 a19c 	ldrb.w	sl, [r1, #412]	; 0x19c
    4c40:	f002 0207 	and.w	r2, r2, #7
        SET_BIT_IN_ARRAY_LSB(out, header_offset + 2 + (8*RADIOLIB_SX126X_LR_FHSS_HDR_BYTES/2) + j);
    4c44:	f000 0107 	and.w	r1, r0, #7
      } else {
        CLEAR_BIT_IN_ARRAY_LSB(out, header_offset + 2 + (8*RADIOLIB_SX126X_LR_FHSS_HDR_BYTES/2) + j);
    4c48:	46ce      	mov	lr, r9
      if(TEST_BIT_IN_ARRAY_LSB(this->lrFhssSyncWord, j)) {
    4c4a:	fa4a f202 	asr.w	r2, sl, r2
        SET_BIT_IN_ARRAY_LSB(out, header_offset + 2 + (8*RADIOLIB_SX126X_LR_FHSS_HDR_BYTES/2) + j);
    4c4e:	fa05 f101 	lsl.w	r1, r5, r1
      if(TEST_BIT_IN_ARRAY_LSB(this->lrFhssSyncWord, j)) {
    4c52:	07d2      	lsls	r2, r2, #31
    4c54:	d4e2      	bmi.n	4c1c <SX126x::buildLRFHSSPacket(unsigned char const*, unsigned int, unsigned char*, unsigned int*, unsigned int*, unsigned int*)+0x480>
        CLEAR_BIT_IN_ARRAY_LSB(out, header_offset + 2 + (8*RADIOLIB_SX126X_LR_FHSS_HDR_BYTES/2) + j);
    4c56:	f814 2009 	ldrb.w	r2, [r4, r9]
    for(size_t j = 0; j < (8*RADIOLIB_SX126X_LR_FHSS_SYNC_WORD_BYTES); j++) {
    4c5a:	3301      	adds	r3, #1
    4c5c:	f10c 0c01 	add.w	ip, ip, #1
    4c60:	3801      	subs	r0, #1
        CLEAR_BIT_IN_ARRAY_LSB(out, header_offset + 2 + (8*RADIOLIB_SX126X_LR_FHSS_HDR_BYTES/2) + j);
    4c62:	ea22 0601 	bic.w	r6, r2, r1
    for(size_t j = 0; j < (8*RADIOLIB_SX126X_LR_FHSS_SYNC_WORD_BYTES); j++) {
    4c66:	2b20      	cmp	r3, #32
        CLEAR_BIT_IN_ARRAY_LSB(out, header_offset + 2 + (8*RADIOLIB_SX126X_LR_FHSS_HDR_BYTES/2) + j);
    4c68:	f804 6009 	strb.w	r6, [r4, r9]
    for(size_t j = 0; j < (8*RADIOLIB_SX126X_LR_FHSS_SYNC_WORD_BYTES); j++) {
    4c6c:	d1e1      	bne.n	4c32 <SX126x::buildLRFHSSPacket(unsigned char const*, unsigned int, unsigned char*, unsigned int*, unsigned int*, unsigned int*)+0x496>
      }
    }

    header_offset += RADIOLIB_SX126X_LR_FHSS_HEADER_BITS;
    4c6e:	9b02      	ldr	r3, [sp, #8]
  for(size_t i = 0; i < this->lrFhssHdrCount; i++) {
    4c70:	9a03      	ldr	r2, [sp, #12]
    header_offset += RADIOLIB_SX126X_LR_FHSS_HEADER_BITS;
    4c72:	3372      	adds	r3, #114	; 0x72
    4c74:	9e04      	ldr	r6, [sp, #16]
  for(size_t i = 0; i < this->lrFhssHdrCount; i++) {
    4c76:	3201      	adds	r2, #1
    header_offset += RADIOLIB_SX126X_LR_FHSS_HEADER_BITS;
    4c78:	b29b      	uxth	r3, r3
  for(size_t i = 0; i < this->lrFhssHdrCount; i++) {
    4c7a:	9203      	str	r2, [sp, #12]
    header_offset += RADIOLIB_SX126X_LR_FHSS_HEADER_BITS;
    4c7c:	9302      	str	r3, [sp, #8]
  for(size_t i = 0; i < this->lrFhssHdrCount; i++) {
    4c7e:	9b07      	ldr	r3, [sp, #28]
    4c80:	f893 319b 	ldrb.w	r3, [r3, #411]	; 0x19b
    4c84:	4293      	cmp	r3, r2
    4c86:	d902      	bls.n	4c8e <SX126x::buildLRFHSSPacket(unsigned char const*, unsigned int, unsigned char*, unsigned int*, unsigned int*, unsigned int*)+0x4f2>
    raw_header[3] = (raw_header[3] & ~0x0C) | ((this->lrFhssHdrCount - i - 1) << 2);
    4c88:	f89d 2033 	ldrb.w	r2, [sp, #51]	; 0x33
    4c8c:	e70b      	b.n	4aa6 <SX126x::buildLRFHSSPacket(unsigned char const*, unsigned int, unsigned char*, unsigned int*, unsigned int*, unsigned int*)+0x30a>
  }

  // calculate the number of hops and total number of bits
  uint16_t length_bits = (in_len + 2) * 8 + 6;
  switch(this->lrFhssCr) {
    4c8e:	9a07      	ldr	r2, [sp, #28]
    4c90:	f892 5199 	ldrb.w	r5, [r2, #409]	; 0x199
  uint16_t length_bits = (in_len + 2) * 8 + 6;
    4c94:	9a09      	ldr	r2, [sp, #36]	; 0x24
    4c96:	3206      	adds	r2, #6
    4c98:	b292      	uxth	r2, r2
  switch(this->lrFhssCr) {
    4c9a:	2d03      	cmp	r5, #3
    4c9c:	d806      	bhi.n	4cac <SX126x::buildLRFHSSPacket(unsigned char const*, unsigned int, unsigned char*, unsigned int*, unsigned int*, unsigned int*)+0x510>
    4c9e:	e8df f005 	tbb	[pc, r5]
    4ca2:	3e31      	.short	0x3e31
    4ca4:	023b      	.short	0x023b
      break;
    case RADIOLIB_SX126X_LR_FHSS_CR_1_2:
      length_bits = length_bits * 2;
      break;
    case RADIOLIB_SX126X_LR_FHSS_CR_1_3:
      length_bits = length_bits * 3;
    4ca6:	eb02 0242 	add.w	r2, r2, r2, lsl #1
    4caa:	b292      	uxth	r2, r2
      break;
  }

  *out_hops = (length_bits + 47) / 48 + this->lrFhssHdrCount;
    4cac:	492c      	ldr	r1, [pc, #176]	; (4d60 <SX126x::buildLRFHSSPacket(unsigned char const*, unsigned int, unsigned char*, unsigned int*, unsigned int*, unsigned int*)+0x5c4>)
    4cae:	f102 002f 	add.w	r0, r2, #47	; 0x2f
    4cb2:	fba1 4000 	umull	r4, r0, r1, r0
    4cb6:	eb03 1350 	add.w	r3, r3, r0, lsr #5
    4cba:	98b6      	ldr	r0, [sp, #728]	; 0x2d8
    4cbc:	6003      	str	r3, [r0, #0]

  // calculate total number of payload bits, after breaking into blocks
  uint16_t payload_bits = length_bits / RADIOLIB_SX126X_LR_FHSS_FRAG_BITS * RADIOLIB_SX126X_LR_FHSS_BLOCK_BITS;
    4cbe:	fba1 1302 	umull	r1, r3, r1, r2
    4cc2:	095b      	lsrs	r3, r3, #5
    4cc4:	eb03 0183 	add.w	r1, r3, r3, lsl #2
  uint16_t last_block_bits = length_bits % RADIOLIB_SX126X_LR_FHSS_FRAG_BITS;
    4cc8:	eb03 0343 	add.w	r3, r3, r3, lsl #1
    4ccc:	eba2 1303 	sub.w	r3, r2, r3, lsl #4
  uint16_t payload_bits = length_bits / RADIOLIB_SX126X_LR_FHSS_FRAG_BITS * RADIOLIB_SX126X_LR_FHSS_BLOCK_BITS;
    4cd0:	eb01 0281 	add.w	r2, r1, r1, lsl #2
  uint16_t last_block_bits = length_bits % RADIOLIB_SX126X_LR_FHSS_FRAG_BITS;
    4cd4:	b29b      	uxth	r3, r3
  uint16_t payload_bits = length_bits / RADIOLIB_SX126X_LR_FHSS_FRAG_BITS * RADIOLIB_SX126X_LR_FHSS_BLOCK_BITS;
    4cd6:	0052      	lsls	r2, r2, #1
    4cd8:	b292      	uxth	r2, r2
  if(last_block_bits > 0) {
    4cda:	b113      	cbz	r3, 4ce2 <SX126x::buildLRFHSSPacket(unsigned char const*, unsigned int, unsigned char*, unsigned int*, unsigned int*, unsigned int*)+0x546>
    // add the 2 guard bits for the last block + the actual remaining payload bits
    payload_bits += last_block_bits + 2;
    4cdc:	3302      	adds	r3, #2
    4cde:	441a      	add	r2, r3
    4ce0:	b292      	uxth	r2, r2
  }

  *out_bits = (RADIOLIB_SX126X_LR_FHSS_HEADER_BITS * this->lrFhssHdrCount) + payload_bits;
    4ce2:	9b07      	ldr	r3, [sp, #28]
  *out_len = (*out_bits + 7) / 8;

  return(RADIOLIB_ERR_NONE);
}
    4ce4:	2000      	movs	r0, #0
  *out_bits = (RADIOLIB_SX126X_LR_FHSS_HEADER_BITS * this->lrFhssHdrCount) + payload_bits;
    4ce6:	f893 119b 	ldrb.w	r1, [r3, #411]	; 0x19b
    4cea:	2372      	movs	r3, #114	; 0x72
    4cec:	fb13 2301 	smlabb	r3, r3, r1, r2
    4cf0:	99b5      	ldr	r1, [sp, #724]	; 0x2d4
  *out_len = (*out_bits + 7) / 8;
    4cf2:	1dda      	adds	r2, r3, #7
  *out_bits = (RADIOLIB_SX126X_LR_FHSS_HEADER_BITS * this->lrFhssHdrCount) + payload_bits;
    4cf4:	600b      	str	r3, [r1, #0]
  *out_len = (*out_bits + 7) / 8;
    4cf6:	9bb4      	ldr	r3, [sp, #720]	; 0x2d0
    4cf8:	08d2      	lsrs	r2, r2, #3
    4cfa:	601a      	str	r2, [r3, #0]
}
    4cfc:	f50d 7d2b 	add.w	sp, sp, #684	; 0x2ac
    4d00:	e8bd 8ff0 	ldmia.w	sp!, {r4, r5, r6, r7, r8, r9, sl, fp, pc}
      length_bits = ( ( length_bits * 6 ) + 4 ) / 5;
    4d04:	eb02 0242 	add.w	r2, r2, r2, lsl #1
    4d08:	4916      	ldr	r1, [pc, #88]	; (4d64 <SX126x::buildLRFHSSPacket(unsigned char const*, unsigned int, unsigned char*, unsigned int*, unsigned int*, unsigned int*)+0x5c8>)
    4d0a:	0052      	lsls	r2, r2, #1
    4d0c:	3204      	adds	r2, #4
    4d0e:	fba1 1202 	umull	r1, r2, r1, r2
    4d12:	f3c2 028f 	ubfx	r2, r2, #2, #16
      break;
    4d16:	e7c9      	b.n	4cac <SX126x::buildLRFHSSPacket(unsigned char const*, unsigned int, unsigned char*, unsigned int*, unsigned int*, unsigned int*)+0x510>
      length_bits = length_bits * 2;
    4d18:	0052      	lsls	r2, r2, #1
    4d1a:	b292      	uxth	r2, r2
      break;
    4d1c:	e7c6      	b.n	4cac <SX126x::buildLRFHSSPacket(unsigned char const*, unsigned int, unsigned char*, unsigned int*, unsigned int*, unsigned int*)+0x510>
      length_bits = length_bits * 3 / 2;
    4d1e:	eb02 0242 	add.w	r2, r2, r2, lsl #1
    4d22:	f3c2 024f 	ubfx	r2, r2, #1, #16
      break;
    4d26:	e7c1      	b.n	4cac <SX126x::buildLRFHSSPacket(unsigned char const*, unsigned int, unsigned char*, unsigned int*, unsigned int*, unsigned int*)+0x510>
    for(uint32_t i = 0; i < nb_bits; i++) {
    4d28:	f8dd b02c 	ldr.w	fp, [sp, #44]	; 0x2c
    4d2c:	e5eb      	b.n	4906 <SX126x::buildLRFHSSPacket(unsigned char const*, unsigned int, unsigned char*, unsigned int*, unsigned int*, unsigned int*)+0x16a>
    4d2e:	9b07      	ldr	r3, [sp, #28]
    4d30:	f893 5199 	ldrb.w	r5, [r3, #409]	; 0x199
  uint16_t out_row_index = RADIOLIB_SX126X_LR_FHSS_HEADER_BITS * this->lrFhssHdrCount;
    4d34:	9b07      	ldr	r3, [sp, #28]
    4d36:	f893 319b 	ldrb.w	r3, [r3, #411]	; 0x19b
    4d3a:	ebc3 02c3 	rsb	r2, r3, r3, lsl #3
    4d3e:	eb03 02c2 	add.w	r2, r3, r2, lsl #3
    4d42:	0052      	lsls	r2, r2, #1
    4d44:	b292      	uxth	r2, r2
    4d46:	9204      	str	r2, [sp, #16]
  while(bits_left > 0) {
    4d48:	e67a      	b.n	4a40 <SX126x::buildLRFHSSPacket(unsigned char const*, unsigned int, unsigned char*, unsigned int*, unsigned int*, unsigned int*)+0x2a4>
    4d4a:	9a07      	ldr	r2, [sp, #28]
    4d4c:	f892 5199 	ldrb.w	r5, [r2, #409]	; 0x199
    4d50:	e676      	b.n	4a40 <SX126x::buildLRFHSSPacket(unsigned char const*, unsigned int, unsigned char*, unsigned int*, unsigned int*, unsigned int*)+0x2a4>
    4d52:	bf00      	nop
    4d54:	20001db4 	.word	0x20001db4
    4d58:	2000037f 	.word	0x2000037f
    4d5c:	20001dc8 	.word	0x20001dc8
    4d60:	aaaaaaab 	.word	0xaaaaaaab
    4d64:	cccccccd 	.word	0xcccccccd
    4d68:	20000358 	.word	0x20000358
    4d6c:	20000380 	.word	0x20000380

00004d70 <SX126x::resetLRFHSS()>:

int16_t SX126x::resetLRFHSS() {
    4d70:	b5f0      	push	{r4, r5, r6, r7, lr}
  // initialize hopping configuration
  const uint16_t numChan[] = { 80, 176, 280, 376, 688, 792, 1480, 1584, 3120, 3224 };
  
  // LFSR polynomials for different ranges of lrFhssNgrid
  const uint8_t lfsrPoly1[] = { 33, 45, 48, 51, 54, 57 };
  const uint8_t lfsrPoly2[] = { 65, 68, 71, 72 };
    4d72:	4b6b      	ldr	r3, [pc, #428]	; (4f20 <SX126x::resetLRFHSS()+0x1b0>)
int16_t SX126x::resetLRFHSS() {
    4d74:	b08b      	sub	sp, #44	; 0x2c
  const uint8_t lfsrPoly3[] = { 142, 149 };

  uint32_t nb_channel_in_grid = this->lrFhssGridNonFcc ? 8 : 52;
  this->lrFhssNgrid = numChan[this->lrFhssBw] / nb_channel_in_grid;
    4d76:	f890 519a 	ldrb.w	r5, [r0, #410]	; 0x19a
int16_t SX126x::resetLRFHSS() {
    4d7a:	4684      	mov	ip, r0
  const uint8_t lfsrPoly2[] = { 65, 68, 71, 72 };
    4d7c:	9302      	str	r3, [sp, #8]
  const uint8_t lfsrPoly3[] = { 142, 149 };
    4d7e:	f249 538e 	movw	r3, #38286	; 0x958e
  const uint16_t numChan[] = { 80, 176, 280, 376, 688, 792, 1480, 1584, 3120, 3224 };
    4d82:	4c68      	ldr	r4, [pc, #416]	; (4f24 <SX126x::resetLRFHSS()+0x1b4>)
    4d84:	f10d 0e14 	add.w	lr, sp, #20
  const uint8_t lfsrPoly3[] = { 142, 149 };
    4d88:	f8ad 3004 	strh.w	r3, [sp, #4]
  uint32_t nb_channel_in_grid = this->lrFhssGridNonFcc ? 8 : 52;
    4d8c:	f890 31a0 	ldrb.w	r3, [r0, #416]	; 0x1a0
  const uint8_t lfsrPoly1[] = { 33, 45, 48, 51, 54, 57 };
    4d90:	4e65      	ldr	r6, [pc, #404]	; (4f28 <SX126x::resetLRFHSS()+0x1b8>)
  uint32_t nb_channel_in_grid = this->lrFhssGridNonFcc ? 8 : 52;
    4d92:	2b00      	cmp	r3, #0
  this->lrFhssNgrid = numChan[this->lrFhssBw] / nb_channel_in_grid;
    4d94:	ab0a      	add	r3, sp, #40	; 0x28
    4d96:	eb03 0545 	add.w	r5, r3, r5, lsl #1
  this->lrFhssLfsrState = 6;
    4d9a:	f04f 0306 	mov.w	r3, #6
  uint32_t nb_channel_in_grid = this->lrFhssGridNonFcc ? 8 : 52;
    4d9e:	bf14      	ite	ne
    4da0:	2708      	movne	r7, #8
    4da2:	2734      	moveq	r7, #52	; 0x34
  this->lrFhssLfsrState = 6;
    4da4:	f8a0 31a4 	strh.w	r3, [r0, #420]	; 0x1a4
  const uint16_t numChan[] = { 80, 176, 280, 376, 688, 792, 1480, 1584, 3120, 3224 };
    4da8:	cc0f      	ldmia	r4!, {r0, r1, r2, r3}
    4daa:	e8ae 000f 	stmia.w	lr!, {r0, r1, r2, r3}
    4dae:	6823      	ldr	r3, [r4, #0]
    4db0:	f8ce 3000 	str.w	r3, [lr]
  this->lrFhssNgrid = numChan[this->lrFhssBw] / nb_channel_in_grid;
    4db4:	f835 2c14 	ldrh.w	r2, [r5, #-20]
    4db8:	fbb2 f2f7 	udiv	r2, r2, r7
  const uint8_t lfsrPoly1[] = { 33, 45, 48, 51, 54, 57 };
    4dbc:	e896 0003 	ldmia.w	r6, {r0, r1}
  this->lrFhssNgrid = numChan[this->lrFhssBw] / nb_channel_in_grid;
    4dc0:	b293      	uxth	r3, r2
  switch(this->lrFhssNgrid) {
    4dc2:	2a63      	cmp	r2, #99	; 0x63
  const uint8_t lfsrPoly1[] = { 33, 45, 48, 51, 54, 57 };
    4dc4:	9003      	str	r0, [sp, #12]
    4dc6:	f8ad 1010 	strh.w	r1, [sp, #16]
  this->lrFhssNgrid = numChan[this->lrFhssBw] / nb_channel_in_grid;
    4dca:	f8ac 31a2 	strh.w	r3, [ip, #418]	; 0x1a2
  switch(this->lrFhssNgrid) {
    4dce:	d051      	beq.n	4e74 <SX126x::resetLRFHSS()+0x104>
    4dd0:	2b63      	cmp	r3, #99	; 0x63
    4dd2:	d85f      	bhi.n	4e94 <SX126x::resetLRFHSS()+0x124>
    4dd4:	2b3e      	cmp	r3, #62	; 0x3e
    4dd6:	d84b      	bhi.n	4e70 <SX126x::resetLRFHSS()+0x100>
    4dd8:	2b22      	cmp	r3, #34	; 0x22
    4dda:	d80b      	bhi.n	4df4 <SX126x::resetLRFHSS()+0x84>
    4ddc:	3b0a      	subs	r3, #10
    4dde:	2b14      	cmp	r3, #20
    4de0:	d804      	bhi.n	4dec <SX126x::resetLRFHSS()+0x7c>
    4de2:	4b52      	ldr	r3, [pc, #328]	; (4f2c <SX126x::resetLRFHSS()+0x1bc>)
    4de4:	40d3      	lsrs	r3, r2
    4de6:	07db      	lsls	r3, r3, #31
    4de8:	f100 8091 	bmi.w	4f0e <SX126x::resetLRFHSS()+0x19e>
    4dec:	f06f 0069 	mvn.w	r0, #105	; 0x69
    default:
      return(RADIOLIB_ERR_INVALID_DATA_SHAPING);
  }

  return(RADIOLIB_ERR_NONE);
}
    4df0:	b00b      	add	sp, #44	; 0x2c
    4df2:	bdf0      	pop	{r4, r5, r6, r7, pc}
  switch(this->lrFhssNgrid) {
    4df4:	3b23      	subs	r3, #35	; 0x23
    4df6:	2b1b      	cmp	r3, #27
    4df8:	d8f8      	bhi.n	4dec <SX126x::resetLRFHSS()+0x7c>
    4dfa:	a201      	add	r2, pc, #4	; (adr r2, 4e00 <SX126x::resetLRFHSS()+0x90>)
    4dfc:	f852 f023 	ldr.w	pc, [r2, r3, lsl #2]
    4e00:	00004f0f 	.word	0x00004f0f
    4e04:	00004ded 	.word	0x00004ded
    4e08:	00004ded 	.word	0x00004ded
    4e0c:	00004ded 	.word	0x00004ded
    4e10:	00004ded 	.word	0x00004ded
    4e14:	00004ded 	.word	0x00004ded
    4e18:	00004ded 	.word	0x00004ded
    4e1c:	00004ded 	.word	0x00004ded
    4e20:	00004ded 	.word	0x00004ded
    4e24:	00004ded 	.word	0x00004ded
    4e28:	00004ded 	.word	0x00004ded
    4e2c:	00004ded 	.word	0x00004ded
    4e30:	00004f0f 	.word	0x00004f0f
    4e34:	00004ded 	.word	0x00004ded
    4e38:	00004ded 	.word	0x00004ded
    4e3c:	00004ded 	.word	0x00004ded
    4e40:	00004ded 	.word	0x00004ded
    4e44:	00004ded 	.word	0x00004ded
    4e48:	00004ded 	.word	0x00004ded
    4e4c:	00004ded 	.word	0x00004ded
    4e50:	00004ded 	.word	0x00004ded
    4e54:	00004ded 	.word	0x00004ded
    4e58:	00004ded 	.word	0x00004ded
    4e5c:	00004ded 	.word	0x00004ded
    4e60:	00004ded 	.word	0x00004ded
    4e64:	00004ee1 	.word	0x00004ee1
    4e68:	00004ded 	.word	0x00004ded
    4e6c:	00004ee1 	.word	0x00004ee1
    4e70:	2b56      	cmp	r3, #86	; 0x56
    4e72:	d1bb      	bne.n	4dec <SX126x::resetLRFHSS()+0x7c>
      this->lrFhssPoly = lfsrPoly2[this->lrFhssHopSeqId >> 7];
    4e74:	f8bc 31aa 	ldrh.w	r3, [ip, #426]	; 0x1aa
    4e78:	aa0a      	add	r2, sp, #40	; 0x28
  return(RADIOLIB_ERR_NONE);
    4e7a:	2000      	movs	r0, #0
      this->lrFhssPoly = lfsrPoly2[this->lrFhssHopSeqId >> 7];
    4e7c:	eb02 12d3 	add.w	r2, r2, r3, lsr #7
      this->lrFhssSeed = this->lrFhssHopSeqId & 0x7F;
    4e80:	f003 037f 	and.w	r3, r3, #127	; 0x7f
      this->lrFhssPoly = lfsrPoly2[this->lrFhssHopSeqId >> 7];
    4e84:	f812 2c20 	ldrb.w	r2, [r2, #-32]
      this->lrFhssSeed = this->lrFhssHopSeqId & 0x7F;
    4e88:	f8ac 31a8 	strh.w	r3, [ip, #424]	; 0x1a8
      this->lrFhssPoly = lfsrPoly2[this->lrFhssHopSeqId >> 7];
    4e8c:	f8ac 21a6 	strh.w	r2, [ip, #422]	; 0x1a6
}
    4e90:	b00b      	add	sp, #44	; 0x2c
    4e92:	bdf0      	pop	{r4, r5, r6, r7, pc}
  switch(this->lrFhssNgrid) {
    4e94:	f5b3 7fc3 	cmp.w	r3, #390	; 0x186
    4e98:	d004      	beq.n	4ea4 <SX126x::resetLRFHSS()+0x134>
    4e9a:	d90e      	bls.n	4eba <SX126x::resetLRFHSS()+0x14a>
    4e9c:	f240 1293 	movw	r2, #403	; 0x193
    4ea0:	4293      	cmp	r3, r2
    4ea2:	d1a3      	bne.n	4dec <SX126x::resetLRFHSS()+0x7c>
      this->lrFhssPoly = 264;
    4ea4:	f44f 7284 	mov.w	r2, #264	; 0x108
      this->lrFhssSeed = this->lrFhssHopSeqId;
    4ea8:	f8bc 31aa 	ldrh.w	r3, [ip, #426]	; 0x1aa
  return(RADIOLIB_ERR_NONE);
    4eac:	2000      	movs	r0, #0
      this->lrFhssPoly = 264;
    4eae:	f8ac 21a6 	strh.w	r2, [ip, #422]	; 0x1a6
      this->lrFhssSeed = this->lrFhssHopSeqId;
    4eb2:	f8ac 31a8 	strh.w	r3, [ip, #424]	; 0x1a8
}
    4eb6:	b00b      	add	sp, #44	; 0x2c
    4eb8:	bdf0      	pop	{r4, r5, r6, r7, pc}
  switch(this->lrFhssNgrid) {
    4eba:	2bb9      	cmp	r3, #185	; 0xb9
    4ebc:	d001      	beq.n	4ec2 <SX126x::resetLRFHSS()+0x152>
    4ebe:	2bc6      	cmp	r3, #198	; 0xc6
    4ec0:	d194      	bne.n	4dec <SX126x::resetLRFHSS()+0x7c>
      this->lrFhssPoly = lfsrPoly3[this->lrFhssHopSeqId >> 8];
    4ec2:	f8bc 31aa 	ldrh.w	r3, [ip, #426]	; 0x1aa
    4ec6:	aa0a      	add	r2, sp, #40	; 0x28
  return(RADIOLIB_ERR_NONE);
    4ec8:	2000      	movs	r0, #0
      this->lrFhssPoly = lfsrPoly3[this->lrFhssHopSeqId >> 8];
    4eca:	eb02 2213 	add.w	r2, r2, r3, lsr #8
      this->lrFhssSeed = this->lrFhssHopSeqId & 0xFF;
    4ece:	b2db      	uxtb	r3, r3
      this->lrFhssPoly = lfsrPoly3[this->lrFhssHopSeqId >> 8];
    4ed0:	f812 2c24 	ldrb.w	r2, [r2, #-36]
      this->lrFhssSeed = this->lrFhssHopSeqId & 0xFF;
    4ed4:	f8ac 31a8 	strh.w	r3, [ip, #424]	; 0x1a8
      this->lrFhssPoly = lfsrPoly3[this->lrFhssHopSeqId >> 8];
    4ed8:	f8ac 21a6 	strh.w	r2, [ip, #422]	; 0x1a6
}
    4edc:	b00b      	add	sp, #44	; 0x2c
    4ede:	bdf0      	pop	{r4, r5, r6, r7, pc}
      this->lrFhssPoly = lfsrPoly1[this->lrFhssHopSeqId >> 6];
    4ee0:	f8bc 31aa 	ldrh.w	r3, [ip, #426]	; 0x1aa
    4ee4:	aa0a      	add	r2, sp, #40	; 0x28
      this->lrFhssLfsrState = 56;
    4ee6:	2038      	movs	r0, #56	; 0x38
      this->lrFhssPoly = lfsrPoly1[this->lrFhssHopSeqId >> 6];
    4ee8:	eb02 1293 	add.w	r2, r2, r3, lsr #6
      this->lrFhssSeed = this->lrFhssHopSeqId & 0x3F;
    4eec:	f003 013f 	and.w	r1, r3, #63	; 0x3f
      this->lrFhssLfsrState = 56;
    4ef0:	f8ac 01a4 	strh.w	r0, [ip, #420]	; 0x1a4
      this->lrFhssPoly = lfsrPoly1[this->lrFhssHopSeqId >> 6];
    4ef4:	f812 2c1c 	ldrb.w	r2, [r2, #-28]
      if(this->lrFhssHopSeqId >= 384) {
    4ef8:	f5b3 7fc0 	cmp.w	r3, #384	; 0x180
      this->lrFhssSeed = this->lrFhssHopSeqId & 0x3F;
    4efc:	f8ac 11a8 	strh.w	r1, [ip, #424]	; 0x1a8
      this->lrFhssPoly = lfsrPoly1[this->lrFhssHopSeqId >> 6];
    4f00:	f8ac 21a6 	strh.w	r2, [ip, #422]	; 0x1a6
      if(this->lrFhssHopSeqId >= 384) {
    4f04:	f4bf af72 	bcs.w	4dec <SX126x::resetLRFHSS()+0x7c>
  return(RADIOLIB_ERR_NONE);
    4f08:	2000      	movs	r0, #0
}
    4f0a:	b00b      	add	sp, #44	; 0x2c
    4f0c:	bdf0      	pop	{r4, r5, r6, r7, pc}
      this->lrFhssPoly = lfsrPoly1[this->lrFhssHopSeqId >> 6];
    4f0e:	f8bc 31aa 	ldrh.w	r3, [ip, #426]	; 0x1aa
    4f12:	aa0a      	add	r2, sp, #40	; 0x28
      this->lrFhssSeed = this->lrFhssHopSeqId & 0x3F;
    4f14:	f003 013f 	and.w	r1, r3, #63	; 0x3f
      this->lrFhssPoly = lfsrPoly1[this->lrFhssHopSeqId >> 6];
    4f18:	eb02 1293 	add.w	r2, r2, r3, lsr #6
    4f1c:	e7ea      	b.n	4ef4 <SX126x::resetLRFHSS()+0x184>
    4f1e:	bf00      	nop
    4f20:	48474441 	.word	0x48474441
    4f24:	200002dc 	.word	0x200002dc
    4f28:	200003bc 	.word	0x200003bc
    4f2c:	50400400 	.word	0x50400400

00004f30 <SX126x::stepLRFHSS()>:

uint16_t SX126x::stepLRFHSS() {
    4f30:	f8b0 31a4 	ldrh.w	r3, [r0, #420]	; 0x1a4
    uint16_t lsb = this->lrFhssLfsrState & 1;
    this->lrFhssLfsrState >>= 1;
    if(lsb) {
     this->lrFhssLfsrState ^= this->lrFhssPoly;
    }
    hop = this->lrFhssSeed;
    4f34:	f8b0 11a8 	ldrh.w	r1, [r0, #424]	; 0x1a8
    if(hop != this->lrFhssLfsrState) {
      hop ^= this->lrFhssLfsrState;
    }
  } while(hop > this->lrFhssNgrid);
    4f38:	f8b0 c1a2 	ldrh.w	ip, [r0, #418]	; 0x1a2
    uint16_t lsb = this->lrFhssLfsrState & 1;
    4f3c:	f003 0201 	and.w	r2, r3, #1
    this->lrFhssLfsrState >>= 1;
    4f40:	085b      	lsrs	r3, r3, #1
    if(lsb) {
    4f42:	b11a      	cbz	r2, 4f4c <SX126x::stepLRFHSS()+0x1c>
     this->lrFhssLfsrState ^= this->lrFhssPoly;
    4f44:	f8b0 21a6 	ldrh.w	r2, [r0, #422]	; 0x1a6
    4f48:	4053      	eors	r3, r2
    4f4a:	b29b      	uxth	r3, r3
    if(hop != this->lrFhssLfsrState) {
    4f4c:	4299      	cmp	r1, r3
      hop ^= this->lrFhssLfsrState;
    4f4e:	ea81 0203 	eor.w	r2, r1, r3
    4f52:	bf08      	it	eq
    4f54:	460a      	moveq	r2, r1
  } while(hop > this->lrFhssNgrid);
    4f56:	4594      	cmp	ip, r2
    4f58:	d3f0      	bcc.n	4f3c <SX126x::stepLRFHSS()+0xc>
    4f5a:	f8a0 31a4 	strh.w	r3, [r0, #420]	; 0x1a4
  return(hop);
}
    4f5e:	4610      	mov	r0, r2
    4f60:	4770      	bx	lr
    4f62:	bf00      	nop
    4f64:	0000      	movs	r0, r0
	...

00004f68 <SX126x::setLRFHSSHop(unsigned char)>:

int16_t SX126x::setLRFHSSHop(uint8_t index) {
    4f68:	b570      	push	{r4, r5, r6, lr}
    4f6a:	4604      	mov	r4, r0
  if(!this->lrFhssFrameHopsRem) {
    4f6c:	f8d0 01b0 	ldr.w	r0, [r0, #432]	; 0x1b0
int16_t SX126x::setLRFHSSHop(uint8_t index) {
    4f70:	b082      	sub	sp, #8
  if(!this->lrFhssFrameHopsRem) {
    4f72:	b908      	cbnz	r0, 4f78 <SX126x::setLRFHSSHop(unsigned char)+0x10>

  this->lrFhssFrameBitsRem -= numSymbols;
  this->lrFhssFrameHopsRem--;
  this->lrFhssHopNum++;
  return(RADIOLIB_ERR_NONE);
}
    4f74:	b002      	add	sp, #8
    4f76:	bd70      	pop	{r4, r5, r6, pc}
    4f78:	460d      	mov	r5, r1
    4f7a:	f8b4 31a4 	ldrh.w	r3, [r4, #420]	; 0x1a4
    hop = this->lrFhssSeed;
    4f7e:	f8b4 01a8 	ldrh.w	r0, [r4, #424]	; 0x1a8
  } while(hop > this->lrFhssNgrid);
    4f82:	f8b4 11a2 	ldrh.w	r1, [r4, #418]	; 0x1a2
    uint16_t lsb = this->lrFhssLfsrState & 1;
    4f86:	f003 0201 	and.w	r2, r3, #1
    this->lrFhssLfsrState >>= 1;
    4f8a:	085b      	lsrs	r3, r3, #1
    if(lsb) {
    4f8c:	b11a      	cbz	r2, 4f96 <SX126x::setLRFHSSHop(unsigned char)+0x2e>
     this->lrFhssLfsrState ^= this->lrFhssPoly;
    4f8e:	f8b4 21a6 	ldrh.w	r2, [r4, #422]	; 0x1a6
    4f92:	4053      	eors	r3, r2
    4f94:	b29b      	uxth	r3, r3
    if(hop != this->lrFhssLfsrState) {
    4f96:	4283      	cmp	r3, r0
      hop ^= this->lrFhssLfsrState;
    4f98:	ea83 0200 	eor.w	r2, r3, r0
    4f9c:	bf08      	it	eq
    4f9e:	461a      	moveq	r2, r3
  } while(hop > this->lrFhssNgrid);
    4fa0:	4291      	cmp	r1, r2
    4fa2:	d3f0      	bcc.n	4f86 <SX126x::setLRFHSSHop(unsigned char)+0x1e>
  int16_t freq_table = hop - 1;
    4fa4:	3a01      	subs	r2, #1
    4fa6:	f8a4 31a4 	strh.w	r3, [r4, #420]	; 0x1a4
    4faa:	b293      	uxth	r3, r2
    4fac:	b212      	sxth	r2, r2
  if(freq_table >= (int16_t)(this->lrFhssNgrid >> 1)) {
    4fae:	ebb2 0f51 	cmp.w	r2, r1, lsr #1
    4fb2:	db01      	blt.n	4fb8 <SX126x::setLRFHSSHop(unsigned char)+0x50>
    freq_table -= this->lrFhssNgrid;
    4fb4:	1a5b      	subs	r3, r3, r1
    4fb6:	b21a      	sxth	r2, r3
  uint32_t nb_channel_in_grid = this->lrFhssGridNonFcc ? 8 : 52;
    4fb8:	f894 31a0 	ldrb.w	r3, [r4, #416]	; 0x1a0
    4fbc:	2b00      	cmp	r3, #0
    4fbe:	d053      	beq.n	5068 <SX126x::setLRFHSSHop(unsigned char)+0x100>
  uint32_t grid_offset = (1 + (this->lrFhssNgrid % 2)) * (nb_channel_in_grid / 2);
    4fc0:	f001 0101 	and.w	r1, r1, #1
  uint32_t grid_in_pll_steps = this->lrFhssGridNonFcc ? 4096 : 26624;
    4fc4:	f44f 5080 	mov.w	r0, #4096	; 0x1000
  uint32_t grid_offset = (1 + (this->lrFhssNgrid % 2)) * (nb_channel_in_grid / 2);
    4fc8:	3101      	adds	r1, #1
    4fca:	008b      	lsls	r3, r1, #2
  uint32_t frf = (this->freqMHz * (uint32_t(1) << RADIOLIB_SX126X_DIV_EXPONENT)) / RADIOLIB_SX126X_CRYSTAL_FREQ;
    4fcc:	eddf 7a36 	vldr	s15, [pc, #216]	; 50a8 <SX126x::setLRFHSSHop(unsigned char)+0x140>
  uint32_t freq_raw = frf - freq_table * grid_in_pll_steps - grid_offset * 512;
    4fd0:	025b      	lsls	r3, r3, #9
  uint32_t frf = (this->freqMHz * (uint32_t(1) << RADIOLIB_SX126X_DIV_EXPONENT)) / RADIOLIB_SX126X_CRYSTAL_FREQ;
    4fd2:	ed94 7a55 	vldr	s14, [r4, #340]	; 0x154
  uint32_t freq_raw = frf - freq_table * grid_in_pll_steps - grid_offset * 512;
    4fd6:	fb00 3202 	mla	r2, r0, r2, r3
  if((this->lrFhssHopNum < this->lrFhssHdrCount)) {
    4fda:	f8d4 11b4 	ldr.w	r1, [r4, #436]	; 0x1b4
  uint32_t frf = (this->freqMHz * (uint32_t(1) << RADIOLIB_SX126X_DIV_EXPONENT)) / RADIOLIB_SX126X_CRYSTAL_FREQ;
    4fde:	ee27 7a27 	vmul.f32	s14, s14, s15
    4fe2:	ed9f 6b2f 	vldr	d6, [pc, #188]	; 50a0 <SX126x::setLRFHSSHop(unsigned char)+0x138>
    4fe6:	eeb7 7ac7 	vcvt.f64.f32	d7, s14
    4fea:	ee27 7b06 	vmul.f64	d7, d7, d6
    4fee:	eefc 7bc7 	vcvt.u32.f64	s15, d7
    4ff2:	ee17 3a90 	vmov	r3, s15
  uint32_t freq_raw = frf - freq_table * grid_in_pll_steps - grid_offset * 512;
    4ff6:	1a9b      	subs	r3, r3, r2
  if((this->lrFhssHopNum < this->lrFhssHdrCount)) {
    4ff8:	f894 219b 	ldrb.w	r2, [r4, #411]	; 0x19b
    4ffc:	4291      	cmp	r1, r2
    4ffe:	d204      	bcs.n	500a <SX126x::setLRFHSSHop(unsigned char)+0xa2>
    if((((this->lrFhssHdrCount - this->lrFhssHopNum) % 2) == 0)) {
    5000:	1a52      	subs	r2, r2, r1
    5002:	07d2      	lsls	r2, r2, #31
      freq_raw += 256;
    5004:	bf58      	it	pl
    5006:	f503 7380 	addpl.w	r3, r3, #256	; 0x100
  int16_t state = writeRegister(RADIOLIB_SX126X_REG_LR_FHSS_FREQX_0(index), frq, sizeof(freq_raw));
    500a:	eb05 0645 	add.w	r6, r5, r5, lsl #1
    500e:	ba1a      	rev	r2, r3
    5010:	2304      	movs	r3, #4
    5012:	4620      	mov	r0, r4
    5014:	0076      	lsls	r6, r6, #1
  uint8_t frq[4] = { (uint8_t)((freq_raw >> 24) & 0xFF), (uint8_t)((freq_raw >> 16) & 0xFF), (uint8_t)((freq_raw >> 8) & 0xFF), (uint8_t)(freq_raw & 0xFF) };
    5016:	9201      	str	r2, [sp, #4]
  int16_t state = writeRegister(RADIOLIB_SX126X_REG_LR_FHSS_FREQX_0(index), frq, sizeof(freq_raw));
    5018:	eb0d 0203 	add.w	r2, sp, r3
    501c:	f206 318a 	addw	r1, r6, #906	; 0x38a
    5020:	f7fe f85e 	bl	30e0 <SX126x::writeRegister(unsigned short, unsigned char*, unsigned char)>
  RADIOLIB_ASSERT(state);
    5024:	2800      	cmp	r0, #0
    5026:	d1a5      	bne.n	4f74 <SX126x::setLRFHSSHop(unsigned char)+0xc>
  if(index == 0) {
    5028:	bb35      	cbnz	r5, 5078 <SX126x::setLRFHSSHop(unsigned char)+0x110>
    502a:	2373      	movs	r3, #115	; 0x73
    numSymbols = RADIOLIB_SX126X_LR_FHSS_HEADER_BITS + 1; // the +1 is "pulse_shape_compensation", but it's constant in the demo
    502c:	461d      	mov	r5, r3
  uint8_t sym[2] = { (uint8_t)((numSymbols >> 8) & 0xFF), (uint8_t)(numSymbols & 0xFF) };
    502e:	2200      	movs	r2, #0
    5030:	f88d 3001 	strb.w	r3, [sp, #1]
  state = writeRegister(RADIOLIB_SX126X_REG_LR_FHSS_NUM_SYMBOLS_FREQX_MSB(index), sym, sizeof(uint16_t));
    5034:	f506 7162 	add.w	r1, r6, #904	; 0x388
    5038:	2302      	movs	r3, #2
  uint8_t sym[2] = { (uint8_t)((numSymbols >> 8) & 0xFF), (uint8_t)(numSymbols & 0xFF) };
    503a:	f88d 2000 	strb.w	r2, [sp]
  state = writeRegister(RADIOLIB_SX126X_REG_LR_FHSS_NUM_SYMBOLS_FREQX_MSB(index), sym, sizeof(uint16_t));
    503e:	4620      	mov	r0, r4
    5040:	466a      	mov	r2, sp
    5042:	f7fe f84d 	bl	30e0 <SX126x::writeRegister(unsigned short, unsigned char*, unsigned char)>
  RADIOLIB_ASSERT(state);
    5046:	2800      	cmp	r0, #0
    5048:	d194      	bne.n	4f74 <SX126x::setLRFHSSHop(unsigned char)+0xc>
  this->lrFhssFrameHopsRem--;
    504a:	e9d4 236b 	ldrd	r2, r3, [r4, #428]	; 0x1ac
  this->lrFhssFrameBitsRem -= numSymbols;
    504e:	1b55      	subs	r5, r2, r5
  this->lrFhssFrameHopsRem--;
    5050:	1e5a      	subs	r2, r3, #1
  this->lrFhssHopNum++;
    5052:	f8d4 31b4 	ldr.w	r3, [r4, #436]	; 0x1b4
  this->lrFhssFrameBitsRem -= numSymbols;
    5056:	f8c4 51ac 	str.w	r5, [r4, #428]	; 0x1ac
  this->lrFhssHopNum++;
    505a:	3301      	adds	r3, #1
  this->lrFhssFrameHopsRem--;
    505c:	f8c4 21b0 	str.w	r2, [r4, #432]	; 0x1b0
  this->lrFhssHopNum++;
    5060:	f8c4 31b4 	str.w	r3, [r4, #436]	; 0x1b4
}
    5064:	b002      	add	sp, #8
    5066:	bd70      	pop	{r4, r5, r6, pc}
  uint32_t grid_offset = (1 + (this->lrFhssNgrid % 2)) * (nb_channel_in_grid / 2);
    5068:	f001 0101 	and.w	r1, r1, #1
    506c:	231a      	movs	r3, #26
  uint32_t grid_in_pll_steps = this->lrFhssGridNonFcc ? 4096 : 26624;
    506e:	f44f 40d0 	mov.w	r0, #26624	; 0x6800
  uint32_t grid_offset = (1 + (this->lrFhssNgrid % 2)) * (nb_channel_in_grid / 2);
    5072:	fb01 3303 	mla	r3, r1, r3, r3
  uint32_t grid_in_pll_steps = this->lrFhssGridNonFcc ? 4096 : 26624;
    5076:	e7a9      	b.n	4fcc <SX126x::setLRFHSSHop(unsigned char)+0x64>
  } else if(index < this->lrFhssHdrCount) {
    5078:	f894 319b 	ldrb.w	r3, [r4, #411]	; 0x19b
    507c:	42ab      	cmp	r3, r5
    507e:	d806      	bhi.n	508e <SX126x::setLRFHSSHop(unsigned char)+0x126>
  } else if(this->lrFhssFrameBitsRem < RADIOLIB_SX126X_LR_FHSS_BLOCK_BITS) {
    5080:	f8d4 31ac 	ldr.w	r3, [r4, #428]	; 0x1ac
    5084:	2b31      	cmp	r3, #49	; 0x31
    5086:	d805      	bhi.n	5094 <SX126x::setLRFHSSHop(unsigned char)+0x12c>
    numSymbols = this->lrFhssFrameBitsRem;
    5088:	b29d      	uxth	r5, r3
  uint8_t sym[2] = { (uint8_t)((numSymbols >> 8) & 0xFF), (uint8_t)(numSymbols & 0xFF) };
    508a:	b2db      	uxtb	r3, r3
    508c:	e7cf      	b.n	502e <SX126x::setLRFHSSHop(unsigned char)+0xc6>
    508e:	2372      	movs	r3, #114	; 0x72
    numSymbols = RADIOLIB_SX126X_LR_FHSS_HEADER_BITS;
    5090:	461d      	mov	r5, r3
    5092:	e7cc      	b.n	502e <SX126x::setLRFHSSHop(unsigned char)+0xc6>
    5094:	2332      	movs	r3, #50	; 0x32
  uint16_t numSymbols = RADIOLIB_SX126X_LR_FHSS_BLOCK_BITS;
    5096:	461d      	mov	r5, r3
    5098:	e7c9      	b.n	502e <SX126x::setLRFHSSHop(unsigned char)+0xc6>
    509a:	bf00      	nop
    509c:	f3af 8000 	nop.w
    50a0:	00000000 	.word	0x00000000
    50a4:	3fa00000 	.word	0x3fa00000
    50a8:	4c000000 	.word	0x4c000000

000050ac <PhysicalLayer::startTransmit(unsigned char const*, unsigned int, unsigned char)>:
}
    50ac:	f06f 0018 	mvn.w	r0, #24
    50b0:	4770      	bx	lr
    50b2:	bf00      	nop

000050b4 <PhysicalLayer::setSyncWord(unsigned char*, unsigned int)>:

int16_t PhysicalLayer::receive(uint8_t* data, size_t len) {
  (void)data;
  (void)len;
  return(RADIOLIB_ERR_UNSUPPORTED);
}
    50b4:	f06f 0018 	mvn.w	r0, #24
    50b8:	4770      	bx	lr
    50ba:	bf00      	nop

000050bc <PhysicalLayer::scanChannel()>:

int16_t PhysicalLayer::sleep() {
  return(RADIOLIB_ERR_UNSUPPORTED);
}
    50bc:	f06f 0018 	mvn.w	r0, #24
    50c0:	4770      	bx	lr
    50c2:	bf00      	nop

000050c4 <PhysicalLayer::setEncoding(unsigned char)>:
}

int16_t PhysicalLayer::standby(uint8_t mode) {
  (void)mode;
  return(RADIOLIB_ERR_UNSUPPORTED);
}
    50c4:	f06f 0018 	mvn.w	r0, #24
    50c8:	4770      	bx	lr
    50ca:	bf00      	nop

000050cc <PhysicalLayer::startReceive(unsigned long, unsigned long, unsigned long, unsigned int)>:
  (void)timeout;
  (void)irqFlags;
  (void)irqMask;
  (void)len;
  return(RADIOLIB_ERR_UNSUPPORTED);
}
    50cc:	f06f 0018 	mvn.w	r0, #24
    50d0:	4770      	bx	lr
    50d2:	bf00      	nop

000050d4 <PhysicalLayer::setIrqFlags(unsigned long)>:
}

int16_t PhysicalLayer::transmitDirect(uint32_t frf) {
  (void)frf;
  return(RADIOLIB_ERR_UNSUPPORTED);
}
    50d4:	f06f 0018 	mvn.w	r0, #24
    50d8:	4770      	bx	lr
    50da:	bf00      	nop

000050dc <PhysicalLayer::setBitRate(float)>:
}

int16_t PhysicalLayer::setFrequency(float freq) {
  (void)freq;
  return(RADIOLIB_ERR_UNSUPPORTED);
}
    50dc:	f06f 0018 	mvn.w	r0, #24
    50e0:	4770      	bx	lr
    50e2:	bf00      	nop

000050e4 <PhysicalLayer::invertIQ(bool)>:
}

int16_t PhysicalLayer::invertIQ(bool enable) {
  (void)enable;
  return(RADIOLIB_ERR_UNSUPPORTED);
}
    50e4:	f06f 0018 	mvn.w	r0, #24
    50e8:	4770      	bx	lr
    50ea:	bf00      	nop

000050ec <PhysicalLayer::setOutputPower(signed char)>:

int16_t PhysicalLayer::setOutputPower(int8_t power) {
  (void)power;
  return(RADIOLIB_ERR_UNSUPPORTED);
}
    50ec:	f06f 0018 	mvn.w	r0, #24
    50f0:	4770      	bx	lr
    50f2:	bf00      	nop

000050f4 <PhysicalLayer::checkOutputPower(signed char, signed char*)>:

int16_t PhysicalLayer::checkOutputPower(int8_t power, int8_t* clipped) {
  (void)power;
  (void)clipped;
  return(RADIOLIB_ERR_UNSUPPORTED);
}
    50f4:	f06f 0018 	mvn.w	r0, #24
    50f8:	4770      	bx	lr
    50fa:	bf00      	nop

000050fc <PhysicalLayer::setDataRate(DataRate_t)>:
int16_t PhysicalLayer::setPreambleLength(size_t len) {
  (void)len;
  return(RADIOLIB_ERR_UNSUPPORTED);
}

int16_t PhysicalLayer::setDataRate(DataRate_t dr) {
    50fc:	b084      	sub	sp, #16
    50fe:	a804      	add	r0, sp, #16
    5100:	e900 000e 	stmdb	r0, {r1, r2, r3}
  (void)dr;
  return(RADIOLIB_ERR_UNSUPPORTED);
}
    5104:	f06f 0018 	mvn.w	r0, #24
    5108:	b004      	add	sp, #16
    510a:	4770      	bx	lr

0000510c <PhysicalLayer::getPacketLength(bool)>:
}

size_t PhysicalLayer::getPacketLength(bool update) {
  (void)update;
  return(0);
}
    510c:	2000      	movs	r0, #0
    510e:	4770      	bx	lr

00005110 <PhysicalLayer::getSNR()>:

float PhysicalLayer::getRSSI() {
  return(RADIOLIB_ERR_UNSUPPORTED);
}
    5110:	eebb 0a09 	vmov.f32	s0, #185	; 0xc1c80000 -25.0
    5114:	4770      	bx	lr
    5116:	bf00      	nop

00005118 <PhysicalLayer::getTimeOnAir(unsigned int)>:
}

RadioLibTime_t PhysicalLayer::getTimeOnAir(size_t len) {
  (void)len;
  return(0);
}
    5118:	2000      	movs	r0, #0
    511a:	4770      	bx	lr

0000511c <PhysicalLayer::getIrqFlags()>:
  return(clearIrqFlags(getIrqMapped(irq)));
}

uint32_t PhysicalLayer::getIrqFlags() {
  return(RADIOLIB_ERR_UNSUPPORTED);
}
    511c:	f06f 0018 	mvn.w	r0, #24
    5120:	4770      	bx	lr
    5122:	bf00      	nop

00005124 <PhysicalLayer::scanChannel(ChannelScanConfig_t const&)>:
}

int16_t PhysicalLayer::startChannelScan(const ChannelScanConfig_t &config) {
  (void)config;
  return(RADIOLIB_ERR_UNSUPPORTED); 
}
    5124:	f06f 0018 	mvn.w	r0, #24
    5128:	4770      	bx	lr
    512a:	bf00      	nop

0000512c <PhysicalLayer::randomByte()>:
  return(PhysicalLayer::random(max - min) + min);
}

uint8_t PhysicalLayer::randomByte() {
  return(0);
}
    512c:	2000      	movs	r0, #0
    512e:	4770      	bx	lr

00005130 <PhysicalLayer::setDirectAction(void (*)())>:
  }
}

void PhysicalLayer::setDirectAction(void (*func)(void)) {
  (void)func;
}
    5130:	4770      	bx	lr
    5132:	bf00      	nop

00005134 <PhysicalLayer::readBit(unsigned long)>:

void PhysicalLayer::readBit(uint32_t pin) {
  (void)pin;
}
    5134:	4770      	bx	lr
    5136:	bf00      	nop

00005138 <PhysicalLayer::setDIOMapping(unsigned long, unsigned long)>:

int16_t PhysicalLayer::setDIOMapping(uint32_t pin, uint32_t value) {
  (void)pin;
  (void)value;
  return(RADIOLIB_ERR_UNSUPPORTED);
}
    5138:	f06f 0018 	mvn.w	r0, #24
    513c:	4770      	bx	lr
    513e:	bf00      	nop

00005140 <PhysicalLayer::clearPacketSentAction()>:
  (void)func;
}

void PhysicalLayer::clearPacketReceivedAction() {
  
}
    5140:	4770      	bx	lr
    5142:	bf00      	nop

00005144 <PhysicalLayer::standby()>:
  return(standby(RADIOLIB_STANDBY_DEFAULT));
    5144:	6803      	ldr	r3, [r0, #0]
    5146:	4a04      	ldr	r2, [pc, #16]	; (5158 <PhysicalLayer::standby()+0x14>)
    5148:	68db      	ldr	r3, [r3, #12]
    514a:	4293      	cmp	r3, r2
    514c:	d102      	bne.n	5154 <PhysicalLayer::standby()+0x10>
}
    514e:	f06f 0018 	mvn.w	r0, #24
    5152:	4770      	bx	lr
  return(standby(RADIOLIB_STANDBY_DEFAULT));
    5154:	2100      	movs	r1, #0
    5156:	4718      	bx	r3
    5158:	000050c5 	.word	0x000050c5

0000515c <PhysicalLayer::PhysicalLayer(float, unsigned int)>:
PhysicalLayer::PhysicalLayer(float step, size_t maxLen) {
    515c:	b570      	push	{r4, r5, r6, lr}
    515e:	4b15      	ldr	r3, [pc, #84]	; (51b4 <PhysicalLayer::PhysicalLayer(float, unsigned int)+0x58>)
    5160:	2500      	movs	r5, #0
    5162:	4604      	mov	r4, r0
    5164:	460e      	mov	r6, r1
    5166:	2228      	movs	r2, #40	; 0x28
    5168:	4629      	mov	r1, r5
    516a:	ed2d 8b02 	vpush	{d8}
    516e:	eeb0 8a40 	vmov.f32	s16, s0
    5172:	f840 3b04 	str.w	r3, [r0], #4
    5176:	f003 fa53 	bl	8620 <memset>
    517a:	f44f 7280 	mov.w	r2, #256	; 0x100
    517e:	4629      	mov	r1, r5
    5180:	f104 0037 	add.w	r0, r4, #55	; 0x37
    5184:	f884 5034 	strb.w	r5, [r4, #52]	; 0x34
    5188:	f884 5035 	strb.w	r5, [r4, #53]	; 0x35
    518c:	f884 5036 	strb.w	r5, [r4, #54]	; 0x36
    5190:	f003 fa46 	bl	8620 <memset>
    5194:	f884 5140 	strb.w	r5, [r4, #320]	; 0x140
  this->freqStep = step;
    5198:	ed84 8a0b 	vstr	s16, [r4, #44]	; 0x2c
}
    519c:	4620      	mov	r0, r4
PhysicalLayer::PhysicalLayer(float step, size_t maxLen) {
    519e:	f8c4 5144 	str.w	r5, [r4, #324]	; 0x144
    51a2:	f884 5148 	strb.w	r5, [r4, #328]	; 0x148
  this->maxPacketLength = maxLen;
    51a6:	6326      	str	r6, [r4, #48]	; 0x30
}
    51a8:	ecbd 8b02 	vpop	{d8}
PhysicalLayer::PhysicalLayer(float step, size_t maxLen) {
    51ac:	e9c4 554e 	strd	r5, r5, [r4, #312]	; 0x138
}
    51b0:	bd70      	pop	{r4, r5, r6, pc}
    51b2:	bf00      	nop
    51b4:	200004ec 	.word	0x200004ec

000051b8 <PhysicalLayer::startTransmit(char const*, unsigned char)>:
int16_t PhysicalLayer::startTransmit(const char* str, uint8_t addr) {
    51b8:	e92d 41f0 	stmdb	sp!, {r4, r5, r6, r7, r8, lr}
    51bc:	4616      	mov	r6, r2
  return(startTransmit((uint8_t*)str, strlen(str), addr));
    51be:	6802      	ldr	r2, [r0, #0]
    51c0:	4b0a      	ldr	r3, [pc, #40]	; (51ec <PhysicalLayer::startTransmit(char const*, unsigned char)+0x34>)
    51c2:	69d7      	ldr	r7, [r2, #28]
    51c4:	429f      	cmp	r7, r3
    51c6:	d103      	bne.n	51d0 <PhysicalLayer::startTransmit(char const*, unsigned char)+0x18>
}
    51c8:	f06f 0018 	mvn.w	r0, #24
    51cc:	e8bd 81f0 	ldmia.w	sp!, {r4, r5, r6, r7, r8, pc}
    51d0:	4604      	mov	r4, r0
    51d2:	460d      	mov	r5, r1
  return(startTransmit((uint8_t*)str, strlen(str), addr));
    51d4:	4608      	mov	r0, r1
    51d6:	f003 fb93 	bl	8900 <strlen>
    51da:	4633      	mov	r3, r6
    51dc:	4602      	mov	r2, r0
    51de:	4629      	mov	r1, r5
    51e0:	4620      	mov	r0, r4
    51e2:	46bc      	mov	ip, r7
}
    51e4:	e8bd 41f0 	ldmia.w	sp!, {r4, r5, r6, r7, r8, lr}
  return(startTransmit((uint8_t*)str, strlen(str), addr));
    51e8:	4760      	bx	ip
    51ea:	bf00      	nop
    51ec:	000050ad 	.word	0x000050ad

000051f0 <PhysicalLayer::readData(String&, unsigned int)>:
  size_t length = getPacketLength();
    51f0:	6803      	ldr	r3, [r0, #0]
int16_t PhysicalLayer::readData(String& str, size_t len) {
    51f2:	b5f0      	push	{r4, r5, r6, r7, lr}
  size_t length = getPacketLength();
    51f4:	6e1b      	ldr	r3, [r3, #96]	; 0x60
int16_t PhysicalLayer::readData(String& str, size_t len) {
    51f6:	4614      	mov	r4, r2
    51f8:	4a20      	ldr	r2, [pc, #128]	; (527c <PhysicalLayer::readData(String&, unsigned int)+0x8c>)
    51fa:	b085      	sub	sp, #20
    51fc:	4606      	mov	r6, r0
    51fe:	460f      	mov	r7, r1
    5200:	4293      	cmp	r3, r2
    5202:	d111      	bne.n	5228 <PhysicalLayer::readData(String&, unsigned int)+0x38>
  size_t length = getPacketLength();
    5204:	2001      	movs	r0, #1
    5206:	2400      	movs	r4, #0
    uint8_t* data = new uint8_t[length + 1];
    5208:	f001 fb28 	bl	685c <operator new[](unsigned int)>
  state = readData(data, length);
    520c:	6833      	ldr	r3, [r6, #0]
    520e:	4a1c      	ldr	r2, [pc, #112]	; (5280 <PhysicalLayer::readData(String&, unsigned int)+0x90>)
    uint8_t* data = new uint8_t[length + 1];
    5210:	4605      	mov	r5, r0
  state = readData(data, length);
    5212:	6a5b      	ldr	r3, [r3, #36]	; 0x24
    5214:	4293      	cmp	r3, r2
    5216:	d10f      	bne.n	5238 <PhysicalLayer::readData(String&, unsigned int)+0x48>
    5218:	f06f 0618 	mvn.w	r6, #24
    delete[] data;
    521c:	4628      	mov	r0, r5
    521e:	f001 fb1f 	bl	6860 <operator delete[](void*)>
}
    5222:	4630      	mov	r0, r6
    5224:	b005      	add	sp, #20
    5226:	bdf0      	pop	{r4, r5, r6, r7, pc}
  size_t length = getPacketLength();
    5228:	2101      	movs	r1, #1
    522a:	4798      	blx	r3
  if((len < length) && (len != 0)) {
    522c:	4284      	cmp	r4, r0
  size_t length = getPacketLength();
    522e:	4603      	mov	r3, r0
  if((len < length) && (len != 0)) {
    5230:	d220      	bcs.n	5274 <PhysicalLayer::readData(String&, unsigned int)+0x84>
    5232:	b1fc      	cbz	r4, 5274 <PhysicalLayer::readData(String&, unsigned int)+0x84>
    uint8_t* data = new uint8_t[length + 1];
    5234:	1c60      	adds	r0, r4, #1
    5236:	e7e7      	b.n	5208 <PhysicalLayer::readData(String&, unsigned int)+0x18>
  state = readData(data, length);
    5238:	4630      	mov	r0, r6
    523a:	4622      	mov	r2, r4
    523c:	4629      	mov	r1, r5
    523e:	4798      	blx	r3
  if((state == RADIOLIB_ERR_NONE) || (state == RADIOLIB_ERR_CRC_MISMATCH) || (state == RADIOLIB_ERR_LORA_HEADER_DAMAGED)) {
    5240:	4606      	mov	r6, r0
    5242:	b120      	cbz	r0, 524e <PhysicalLayer::readData(String&, unsigned int)+0x5e>
    5244:	1dc3      	adds	r3, r0, #7
    5246:	d002      	beq.n	524e <PhysicalLayer::readData(String&, unsigned int)+0x5e>
    5248:	f110 0f18 	cmn.w	r0, #24
    524c:	d1e6      	bne.n	521c <PhysicalLayer::readData(String&, unsigned int)+0x2c>
    data[length] = 0;
    524e:	2300      	movs	r3, #0
    str = String((char*)data);
    5250:	4629      	mov	r1, r5
    5252:	a801      	add	r0, sp, #4
    data[length] = 0;
    5254:	552b      	strb	r3, [r5, r4]
    str = String((char*)data);
    5256:	f000 fe8b 	bl	5f70 <String::String(char const*)>
    525a:	a901      	add	r1, sp, #4
    525c:	4638      	mov	r0, r7
    525e:	f000 fead 	bl	5fbc <String::operator=(String&&)>
    5262:	a801      	add	r0, sp, #4
    5264:	f000 fea2 	bl	5fac <String::~String()>
    delete[] data;
    5268:	4628      	mov	r0, r5
    526a:	f001 faf9 	bl	6860 <operator delete[](void*)>
}
    526e:	4630      	mov	r0, r6
    5270:	b005      	add	sp, #20
    5272:	bdf0      	pop	{r4, r5, r6, r7, pc}
    uint8_t* data = new uint8_t[length + 1];
    5274:	1c58      	adds	r0, r3, #1
  size_t length = getPacketLength();
    5276:	461c      	mov	r4, r3
    5278:	e7c6      	b.n	5208 <PhysicalLayer::readData(String&, unsigned int)+0x18>
    527a:	bf00      	nop
    527c:	0000510d 	.word	0x0000510d
    5280:	000050b5 	.word	0x000050b5

00005284 <PhysicalLayer::getIrqMapped(unsigned long)>:
uint32_t PhysicalLayer::getIrqMapped(RadioLibIrqFlags_t irq) {
    5284:	2300      	movs	r3, #0
    if((irq & (uint32_t)(1UL << i)) && (this->irqMap[i] != RADIOLIB_IRQ_NOT_SUPPORTED)) {
    5286:	f04f 0c01 	mov.w	ip, #1
uint32_t PhysicalLayer::getIrqMapped(RadioLibIrqFlags_t irq) {
    528a:	b500      	push	{lr}
    if((irq & (uint32_t)(1UL << i)) && (this->irqMap[i] != RADIOLIB_IRQ_NOT_SUPPORTED)) {
    528c:	f100 0e04 	add.w	lr, r0, #4
  uint32_t irqRaw = 0;
    5290:	4618      	mov	r0, r3
    if((irq & (uint32_t)(1UL << i)) && (this->irqMap[i] != RADIOLIB_IRQ_NOT_SUPPORTED)) {
    5292:	fa0c f203 	lsl.w	r2, ip, r3
    5296:	420a      	tst	r2, r1
    5298:	d004      	beq.n	52a4 <PhysicalLayer::getIrqMapped(unsigned long)+0x20>
    529a:	f85e 2023 	ldr.w	r2, [lr, r3, lsl #2]
    529e:	2a1f      	cmp	r2, #31
      irqRaw |= this->irqMap[i];
    52a0:	bf18      	it	ne
    52a2:	4310      	orrne	r0, r2
  for(uint8_t i = 0; i < 8*(sizeof(RadioLibIrqFlags_t)); i++) {
    52a4:	3301      	adds	r3, #1
    52a6:	2b20      	cmp	r3, #32
    52a8:	d1f3      	bne.n	5292 <PhysicalLayer::getIrqMapped(unsigned long)+0xe>
}
    52aa:	f85d fb04 	ldr.w	pc, [sp], #4
    52ae:	bf00      	nop

000052b0 <PhysicalLayer::updateDirectBuffer(unsigned char)>:
  if(!this->gotSync) {
    52b0:	f890 3148 	ldrb.w	r3, [r0, #328]	; 0x148
void PhysicalLayer::updateDirectBuffer(uint8_t bit) {
    52b4:	b510      	push	{r4, lr}
    52b6:	4604      	mov	r4, r0
  if(!this->gotSync) {
    52b8:	b96b      	cbnz	r3, 52d6 <PhysicalLayer::updateDirectBuffer(unsigned char)+0x26>
    this->syncBuffer <<= 1;
    52ba:	f8d0 0138 	ldr.w	r0, [r0, #312]	; 0x138
    if((this->syncBuffer & this->directSyncWordMask) == this->directSyncWord) {
    52be:	f8d4 2144 	ldr.w	r2, [r4, #324]	; 0x144
    this->syncBuffer |= bit;
    52c2:	ea41 0140 	orr.w	r1, r1, r0, lsl #1
    if((this->syncBuffer & this->directSyncWordMask) == this->directSyncWord) {
    52c6:	400a      	ands	r2, r1
    this->syncBuffer |= bit;
    52c8:	f8c4 1138 	str.w	r1, [r4, #312]	; 0x138
    if((this->syncBuffer & this->directSyncWordMask) == this->directSyncWord) {
    52cc:	f8d4 113c 	ldr.w	r1, [r4, #316]	; 0x13c
    52d0:	428a      	cmp	r2, r1
    52d2:	d032      	beq.n	533a <PhysicalLayer::updateDirectBuffer(unsigned char)+0x8a>
}
    52d4:	bd10      	pop	{r4, pc}
      this->buffer[this->bufferWritePos] |= 0x01 << this->bufferBitPos;
    52d6:	f890 3035 	ldrb.w	r3, [r0, #53]	; 0x35
    if(bit) {
    52da:	bb19      	cbnz	r1, 5324 <PhysicalLayer::updateDirectBuffer(unsigned char)+0x74>
      this->buffer[this->bufferWritePos] &= ~(0x01 << this->bufferBitPos);
    52dc:	f890 1034 	ldrb.w	r1, [r0, #52]	; 0x34
    52e0:	4423      	add	r3, r4
    52e2:	2001      	movs	r0, #1
    52e4:	f893 2037 	ldrb.w	r2, [r3, #55]	; 0x37
    52e8:	4088      	lsls	r0, r1
    52ea:	ea22 0200 	bic.w	r2, r2, r0
    52ee:	f883 2037 	strb.w	r2, [r3, #55]	; 0x37
    this->bufferBitPos++;
    52f2:	3101      	adds	r1, #1
    52f4:	b2c9      	uxtb	r1, r1
    if(this->bufferBitPos == 8) {
    52f6:	2908      	cmp	r1, #8
    this->bufferBitPos++;
    52f8:	f884 1034 	strb.w	r1, [r4, #52]	; 0x34
    if(this->bufferBitPos == 8) {
    52fc:	d1ea      	bne.n	52d4 <PhysicalLayer::updateDirectBuffer(unsigned char)+0x24>
      this->buffer[this->bufferWritePos] = rlb_reflect(this->buffer[this->bufferWritePos], 8);
    52fe:	f894 3035 	ldrb.w	r3, [r4, #53]	; 0x35
    5302:	4423      	add	r3, r4
    5304:	f893 0037 	ldrb.w	r0, [r3, #55]	; 0x37
    5308:	f000 f948 	bl	559c <rlb_reflect(unsigned long, unsigned char)>
    530c:	f894 3035 	ldrb.w	r3, [r4, #53]	; 0x35
      this->bufferBitPos = 0;
    5310:	2200      	movs	r2, #0
      this->buffer[this->bufferWritePos] = rlb_reflect(this->buffer[this->bufferWritePos], 8);
    5312:	18e1      	adds	r1, r4, r3
      this->bufferWritePos++;
    5314:	3301      	adds	r3, #1
      this->buffer[this->bufferWritePos] = rlb_reflect(this->buffer[this->bufferWritePos], 8);
    5316:	f881 0037 	strb.w	r0, [r1, #55]	; 0x37
      this->bufferWritePos++;
    531a:	f884 3035 	strb.w	r3, [r4, #53]	; 0x35
      this->bufferBitPos = 0;
    531e:	f884 2034 	strb.w	r2, [r4, #52]	; 0x34
}
    5322:	bd10      	pop	{r4, pc}
      this->buffer[this->bufferWritePos] |= 0x01 << this->bufferBitPos;
    5324:	f890 1034 	ldrb.w	r1, [r0, #52]	; 0x34
    5328:	4423      	add	r3, r4
    532a:	2001      	movs	r0, #1
    532c:	f893 2037 	ldrb.w	r2, [r3, #55]	; 0x37
    5330:	4088      	lsls	r0, r1
    5332:	4302      	orrs	r2, r0
    5334:	f883 2037 	strb.w	r2, [r3, #55]	; 0x37
    5338:	e7db      	b.n	52f2 <PhysicalLayer::updateDirectBuffer(unsigned char)+0x42>
      this->gotSync = true;
    533a:	2201      	movs	r2, #1
      this->bufferBitPos = 0;
    533c:	86a3      	strh	r3, [r4, #52]	; 0x34
      this->bufferReadPos = 0;
    533e:	f884 3036 	strb.w	r3, [r4, #54]	; 0x36
      this->gotSync = true;
    5342:	f884 2148 	strb.w	r2, [r4, #328]	; 0x148
}
    5346:	bd10      	pop	{r4, pc}

00005348 <RadioLibCRC::checksum(unsigned char const*, unsigned int)>:

RadioLibCRC::RadioLibCRC() {

}

uint32_t RadioLibCRC::checksum(const uint8_t* buff, size_t len) {
    5348:	e92d 43f8 	stmdb	sp!, {r3, r4, r5, r6, r7, r8, r9, lr}
  uint32_t crc = this->init;
  size_t pos = 0;
  for(size_t i = 0; i < 8*len; i++) {
    534c:	00d7      	lsls	r7, r2, #3
uint32_t RadioLibCRC::checksum(const uint8_t* buff, size_t len) {
    534e:	4606      	mov	r6, r0
  uint32_t crc = this->init;
    5350:	6884      	ldr	r4, [r0, #8]
  for(size_t i = 0; i < 8*len; i++) {
    5352:	d03e      	beq.n	53d2 <RadioLibCRC::checksum(unsigned char const*, unsigned int)+0x8a>
    5354:	2500      	movs	r5, #0
    5356:	4688      	mov	r8, r1
  size_t pos = 0;
    5358:	462a      	mov	r2, r5
    535a:	e00b      	b.n	5374 <RadioLibCRC::checksum(unsigned char const*, unsigned int)+0x2c>
    if(i % 8 == 0) {
      uint32_t in = buff[pos++];
      if(this->refIn) {
        in = rlb_reflect(in, 8);
      }
      crc ^= (in << (this->size - 8));
    535c:	7831      	ldrb	r1, [r6, #0]
    }

    if(crc & ((uint32_t)1 << (this->size - 1))) {
    535e:	1e4b      	subs	r3, r1, #1
    5360:	fa24 f303 	lsr.w	r3, r4, r3
    5364:	07db      	lsls	r3, r3, #31
    5366:	d519      	bpl.n	539c <RadioLibCRC::checksum(unsigned char const*, unsigned int)+0x54>
  for(size_t i = 0; i < 8*len; i++) {
    5368:	3501      	adds	r5, #1
      crc <<= (uint32_t)1;
      crc ^= this->poly;
    536a:	6873      	ldr	r3, [r6, #4]
  for(size_t i = 0; i < 8*len; i++) {
    536c:	42bd      	cmp	r5, r7
      crc ^= this->poly;
    536e:	ea83 0444 	eor.w	r4, r3, r4, lsl #1
  for(size_t i = 0; i < 8*len; i++) {
    5372:	d017      	beq.n	53a4 <RadioLibCRC::checksum(unsigned char const*, unsigned int)+0x5c>
    if(i % 8 == 0) {
    5374:	f015 0f07 	tst.w	r5, #7
      uint32_t in = buff[pos++];
    5378:	f102 0901 	add.w	r9, r2, #1
    if(i % 8 == 0) {
    537c:	d1ee      	bne.n	535c <RadioLibCRC::checksum(unsigned char const*, unsigned int)+0x14>
      if(this->refIn) {
    537e:	7c33      	ldrb	r3, [r6, #16]
      uint32_t in = buff[pos++];
    5380:	f818 0002 	ldrb.w	r0, [r8, r2]
      if(this->refIn) {
    5384:	b9db      	cbnz	r3, 53be <RadioLibCRC::checksum(unsigned char const*, unsigned int)+0x76>
      crc ^= (in << (this->size - 8));
    5386:	7831      	ldrb	r1, [r6, #0]
      uint32_t in = buff[pos++];
    5388:	464a      	mov	r2, r9
      crc ^= (in << (this->size - 8));
    538a:	f1a1 0308 	sub.w	r3, r1, #8
    538e:	4098      	lsls	r0, r3
    if(crc & ((uint32_t)1 << (this->size - 1))) {
    5390:	1e4b      	subs	r3, r1, #1
      crc ^= (in << (this->size - 8));
    5392:	4044      	eors	r4, r0
    if(crc & ((uint32_t)1 << (this->size - 1))) {
    5394:	fa24 f303 	lsr.w	r3, r4, r3
    5398:	07db      	lsls	r3, r3, #31
    539a:	d4e5      	bmi.n	5368 <RadioLibCRC::checksum(unsigned char const*, unsigned int)+0x20>
  for(size_t i = 0; i < 8*len; i++) {
    539c:	3501      	adds	r5, #1
    } else {
      crc <<= (uint32_t)1;
    539e:	0064      	lsls	r4, r4, #1
  for(size_t i = 0; i < 8*len; i++) {
    53a0:	42bd      	cmp	r5, r7
    53a2:	d1e7      	bne.n	5374 <RadioLibCRC::checksum(unsigned char const*, unsigned int)+0x2c>
    }
  }

  crc ^= this->out;
    53a4:	68f2      	ldr	r2, [r6, #12]
  if(this->refOut) {
    53a6:	7c73      	ldrb	r3, [r6, #17]
  crc ^= this->out;
    53a8:	4054      	eors	r4, r2
  if(this->refOut) {
    53aa:	b963      	cbnz	r3, 53c6 <RadioLibCRC::checksum(unsigned char const*, unsigned int)+0x7e>
    crc = rlb_reflect(crc, this->size);
  }
  crc &= (uint32_t)0xFFFFFFFF >> (32 - this->size);
    53ac:	f1c1 0c20 	rsb	ip, r1, #32
    53b0:	f04f 30ff 	mov.w	r0, #4294967295
    53b4:	fa20 f00c 	lsr.w	r0, r0, ip
  return(crc);
}
    53b8:	4020      	ands	r0, r4
    53ba:	e8bd 83f8 	ldmia.w	sp!, {r3, r4, r5, r6, r7, r8, r9, pc}
        in = rlb_reflect(in, 8);
    53be:	2108      	movs	r1, #8
    53c0:	f000 f8ec 	bl	559c <rlb_reflect(unsigned long, unsigned char)>
    53c4:	e7df      	b.n	5386 <RadioLibCRC::checksum(unsigned char const*, unsigned int)+0x3e>
    crc = rlb_reflect(crc, this->size);
    53c6:	4620      	mov	r0, r4
    53c8:	f000 f8e8 	bl	559c <rlb_reflect(unsigned long, unsigned char)>
  crc &= (uint32_t)0xFFFFFFFF >> (32 - this->size);
    53cc:	7831      	ldrb	r1, [r6, #0]
    crc = rlb_reflect(crc, this->size);
    53ce:	4604      	mov	r4, r0
    53d0:	e7ec      	b.n	53ac <RadioLibCRC::checksum(unsigned char const*, unsigned int)+0x64>
    53d2:	7801      	ldrb	r1, [r0, #0]
    53d4:	e7e6      	b.n	53a4 <RadioLibCRC::checksum(unsigned char const*, unsigned int)+0x5c>
    53d6:	bf00      	nop

000053d8 <_GLOBAL__sub_I__ZN11RadioLibCRCC2Ev>:
RadioLibCRC::RadioLibCRC() {
    53d8:	4b04      	ldr	r3, [pc, #16]	; (53ec <_GLOBAL__sub_I__ZN11RadioLibCRCC2Ev+0x14>)
    53da:	2200      	movs	r2, #0
    53dc:	2108      	movs	r1, #8
    53de:	60da      	str	r2, [r3, #12]
    53e0:	6019      	str	r1, [r3, #0]
    53e2:	821a      	strh	r2, [r3, #16]
    53e4:	e9c3 2201 	strd	r2, r2, [r3, #4]

RadioLibCRC RadioLibCRCInstance;
    53e8:	4770      	bx	lr
    53ea:	bf00      	nop
    53ec:	20001db4 	.word	0x20001db4

000053f0 <_GLOBAL__sub_I__ZN14RadioLibAES128C2Ev>:
#include "Cryptography.h"

#include <string.h>

RadioLibAES128::RadioLibAES128() {
    53f0:	2100      	movs	r1, #0
    53f2:	4804      	ldr	r0, [pc, #16]	; (5404 <_GLOBAL__sub_I__ZN14RadioLibAES128C2Ev+0x14>)
    53f4:	22b0      	movs	r2, #176	; 0xb0
    }
  }
  return(out);
}

RadioLibAES128 RadioLibAES128Instance;
    53f6:	b508      	push	{r3, lr}
RadioLibAES128::RadioLibAES128() {
    53f8:	f840 1b04 	str.w	r1, [r0], #4
    53fc:	f003 f910 	bl	8620 <memset>
RadioLibAES128 RadioLibAES128Instance;
    5400:	bd08      	pop	{r3, pc}
    5402:	bf00      	nop
    5404:	20001ce8 	.word	0x20001ce8

00005408 <RadioLibBCH::~RadioLibBCH()>:

RadioLibBCH::RadioLibBCH() {
  
}

RadioLibBCH::~RadioLibBCH() {
    5408:	b510      	push	{r4, lr}
    540a:	4604      	mov	r4, r0
  #if !RADIOLIB_STATIC_ONLY
    delete[] this->alphaTo;
    540c:	68c0      	ldr	r0, [r0, #12]
    540e:	b108      	cbz	r0, 5414 <RadioLibBCH::~RadioLibBCH()+0xc>
    5410:	f001 fa26 	bl	6860 <operator delete[](void*)>
    delete[] this->indexOf;
    5414:	6920      	ldr	r0, [r4, #16]
    5416:	b108      	cbz	r0, 541c <RadioLibBCH::~RadioLibBCH()+0x14>
    5418:	f001 fa22 	bl	6860 <operator delete[](void*)>
    delete[] this->generator;
    541c:	6960      	ldr	r0, [r4, #20]
    541e:	b108      	cbz	r0, 5424 <RadioLibBCH::~RadioLibBCH()+0x1c>
    5420:	f001 fa1e 	bl	6860 <operator delete[](void*)>
  #endif
}
    5424:	4620      	mov	r0, r4
    5426:	bd10      	pop	{r4, pc}

00005428 <RadioLibConvCode::begin(unsigned char)>:
RadioLibConvCode::RadioLibConvCode() {

}

void RadioLibConvCode::begin(uint8_t rt) {
  this->enc_state = 0;
    5428:	2300      	movs	r3, #0
  this->rate = rt;
    542a:	7041      	strb	r1, [r0, #1]
  this->enc_state = 0;
    542c:	7003      	strb	r3, [r0, #0]
}
    542e:	4770      	bx	lr

00005430 <RadioLibConvCode::encode(unsigned char const*, unsigned int, unsigned char*, unsigned int*)>:

int16_t RadioLibConvCode::encode(const uint8_t* in, size_t in_bits, uint8_t* out, size_t* out_bits) {
    5430:	e92d 4ff0 	stmdb	sp!, {r4, r5, r6, r7, r8, r9, sl, fp, lr}
    5434:	b085      	sub	sp, #20
    5436:	e9cd 2301 	strd	r2, r3, [sp, #4]
  if(!in || !out) {
    543a:	9103      	str	r1, [sp, #12]
    543c:	2900      	cmp	r1, #0
    543e:	f000 808e 	beq.w	555e <RadioLibConvCode::encode(unsigned char const*, unsigned int, unsigned char*, unsigned int*)+0x12e>
    5442:	fab3 f483 	clz	r4, r3
    5446:	0964      	lsrs	r4, r4, #5
    5448:	2b00      	cmp	r3, #0
    544a:	f000 8088 	beq.w	555e <RadioLibConvCode::encode(unsigned char const*, unsigned int, unsigned char*, unsigned int*)+0x12e>
  size_t ind_bit;
  uint16_t data_out_bitcount = 0;
  uint32_t bin_out_word = 0;

  // iterate over the provided bits
  for(ind_bit = 0; ind_bit < in_bits; ind_bit++) {
    544e:	2a00      	cmp	r2, #0
    5450:	f000 8082 	beq.w	5558 <RadioLibConvCode::encode(unsigned char const*, unsigned int, unsigned char*, unsigned int*)+0x128>
    uint8_t cur_bit = GET_BIT_IN_ARRAY_LSB(in, ind_bit);
    const uint32_t* lut_ptr = (this->rate == 2) ? ConvCodeTable1_2 : ConvCodeTable1_3;
    5454:	7845      	ldrb	r5, [r0, #1]
  uint16_t data_out_bitcount = 0;
    5456:	46a3      	mov	fp, r4
  for(ind_bit = 0; ind_bit < in_bits; ind_bit++) {
    5458:	46a4      	mov	ip, r4
    545a:	e00e      	b.n	547a <RadioLibConvCode::encode(unsigned char const*, unsigned int, unsigned char*, unsigned int*)+0x4a>
    uint8_t g1g0 = (lut_ptr[word_pos] >> (byte_pos + nibble_pos)) & 0x0F;

    uint8_t mod = this->rate == 2 ? 16 : 64;
    this->enc_state = (this->enc_state * 2 + cur_bit) % mod;
    bin_out_word |= (g1g0 << ((7 - (ind_bit % 8)) * this->rate));
    if(ind_bit % 8 == 7) {
    545c:	9900      	ldr	r1, [sp, #0]
    bin_out_word |= (g1g0 << ((7 - (ind_bit % 8)) * this->rate));
    545e:	ea44 040e 	orr.w	r4, r4, lr
    this->enc_state = (this->enc_state * 2 + cur_bit) % mod;
    5462:	f880 8000 	strb.w	r8, [r0]
    if(ind_bit % 8 == 7) {
    5466:	2907      	cmp	r1, #7
    5468:	d054      	beq.n	5514 <RadioLibConvCode::encode(unsigned char const*, unsigned int, unsigned char*, unsigned int*)+0xe4>
  for(ind_bit = 0; ind_bit < in_bits; ind_bit++) {
    546a:	f10c 0c01 	add.w	ip, ip, #1
    546e:	9b01      	ldr	r3, [sp, #4]
      }
      *out++ = (uint8_t)(bin_out_word >> 8);
      *out++ = (uint8_t)bin_out_word;
      bin_out_word  = 0;
    }
    data_out_bitcount += this->rate;
    5470:	44ab      	add	fp, r5
  for(ind_bit = 0; ind_bit < in_bits; ind_bit++) {
    5472:	4563      	cmp	r3, ip
    data_out_bitcount += this->rate;
    5474:	fa1f fb8b 	uxth.w	fp, fp
  for(ind_bit = 0; ind_bit < in_bits; ind_bit++) {
    5478:	d055      	beq.n	5526 <RadioLibConvCode::encode(unsigned char const*, unsigned int, unsigned char*, unsigned int*)+0xf6>
    if(ind_bit % 8 == 7) {
    547a:	f00c 0107 	and.w	r1, ip, #7
    uint8_t cur_bit = GET_BIT_IN_ARRAY_LSB(in, ind_bit);
    547e:	ea4f 02dc 	mov.w	r2, ip, lsr #3
    5482:	ea6f 030c 	mvn.w	r3, ip
    const uint32_t* lut_ptr = (this->rate == 2) ? ConvCodeTable1_2 : ConvCodeTable1_3;
    5486:	2d02      	cmp	r5, #2
    if(ind_bit % 8 == 7) {
    5488:	9100      	str	r1, [sp, #0]
    uint8_t cur_bit = GET_BIT_IN_ARRAY_LSB(in, ind_bit);
    548a:	9903      	ldr	r1, [sp, #12]
    548c:	f003 0307 	and.w	r3, r3, #7
    const uint32_t* lut_ptr = (this->rate == 2) ? ConvCodeTable1_2 : ConvCodeTable1_3;
    5490:	4e34      	ldr	r6, [pc, #208]	; (5564 <RadioLibConvCode::encode(unsigned char const*, unsigned int, unsigned char*, unsigned int*)+0x134>)
    uint8_t cur_bit = GET_BIT_IN_ARRAY_LSB(in, ind_bit);
    5492:	5c89      	ldrb	r1, [r1, r2]
    bin_out_word |= (g1g0 << ((7 - (ind_bit % 8)) * this->rate));
    5494:	fb03 fe05 	mul.w	lr, r3, r5
    const uint32_t* lut_ptr = (this->rate == 2) ? ConvCodeTable1_2 : ConvCodeTable1_3;
    5498:	4a33      	ldr	r2, [pc, #204]	; (5568 <RadioLibConvCode::encode(unsigned char const*, unsigned int, unsigned char*, unsigned int*)+0x138>)
    549a:	bf18      	it	ne
    549c:	46b1      	movne	r9, r6
    uint8_t cur_bit = GET_BIT_IN_ARRAY_LSB(in, ind_bit);
    549e:	fa41 f103 	asr.w	r1, r1, r3
    uint8_t word_pos = this->enc_state / 4;
    54a2:	7806      	ldrb	r6, [r0, #0]
    const uint32_t* lut_ptr = (this->rate == 2) ? ConvCodeTable1_2 : ConvCodeTable1_3;
    54a4:	bf08      	it	eq
    54a6:	4691      	moveq	r9, r2
    this->enc_state = (this->enc_state * 2 + cur_bit) % mod;
    54a8:	f04f 0202 	mov.w	r2, #2
    uint8_t cur_bit = GET_BIT_IN_ARRAY_LSB(in, ind_bit);
    54ac:	f001 0101 	and.w	r1, r1, #1
    uint8_t byte_pos = (3 - (this->enc_state % 4)) * 8;
    54b0:	ea6f 0706 	mvn.w	r7, r6
    uint8_t g1g0 = (lut_ptr[word_pos] >> (byte_pos + nibble_pos)) & 0x0F;
    54b4:	ea4f 0a96 	mov.w	sl, r6, lsr #2
    this->enc_state = (this->enc_state * 2 + cur_bit) % mod;
    54b8:	fb12 1806 	smlabb	r8, r2, r6, r1
    uint8_t nibble_pos = (1 - cur_bit) * 4;
    54bc:	f1c1 0201 	rsb	r2, r1, #1
    uint8_t byte_pos = (3 - (this->enc_state % 4)) * 8;
    54c0:	f007 0703 	and.w	r7, r7, #3
    uint8_t g1g0 = (lut_ptr[word_pos] >> (byte_pos + nibble_pos)) & 0x0F;
    54c4:	f859 902a 	ldr.w	r9, [r9, sl, lsl #2]
    uint8_t nibble_pos = (1 - cur_bit) * 4;
    54c8:	ea4f 0282 	mov.w	r2, r2, lsl #2
    this->enc_state = (this->enc_state * 2 + cur_bit) % mod;
    54cc:	f008 083f 	and.w	r8, r8, #63	; 0x3f
    uint8_t g1g0 = (lut_ptr[word_pos] >> (byte_pos + nibble_pos)) & 0x0F;
    54d0:	b2d2      	uxtb	r2, r2
    54d2:	eb02 02c7 	add.w	r2, r2, r7, lsl #3
    54d6:	fa29 f902 	lsr.w	r9, r9, r2
    54da:	f009 090f 	and.w	r9, r9, #15
    bin_out_word |= (g1g0 << ((7 - (ind_bit % 8)) * this->rate));
    54de:	fa09 fe0e 	lsl.w	lr, r9, lr
    uint8_t mod = this->rate == 2 ? 16 : 64;
    54e2:	d1bb      	bne.n	545c <RadioLibConvCode::encode(unsigned char const*, unsigned int, unsigned char*, unsigned int*)+0x2c>
    this->enc_state = (this->enc_state * 2 + cur_bit) % mod;
    54e4:	fb15 1606 	smlabb	r6, r5, r6, r1
    bin_out_word |= (g1g0 << ((7 - (ind_bit % 8)) * this->rate));
    54e8:	005b      	lsls	r3, r3, #1
    54ea:	fa09 f903 	lsl.w	r9, r9, r3
    if(ind_bit % 8 == 7) {
    54ee:	f00c 0307 	and.w	r3, ip, #7
    this->enc_state = (this->enc_state * 2 + cur_bit) % mod;
    54f2:	f006 060f 	and.w	r6, r6, #15
    if(ind_bit % 8 == 7) {
    54f6:	2b07      	cmp	r3, #7
    bin_out_word |= (g1g0 << ((7 - (ind_bit % 8)) * this->rate));
    54f8:	ea44 0409 	orr.w	r4, r4, r9
    this->enc_state = (this->enc_state * 2 + cur_bit) % mod;
    54fc:	7006      	strb	r6, [r0, #0]
    if(ind_bit % 8 == 7) {
    54fe:	d1b4      	bne.n	546a <RadioLibConvCode::encode(unsigned char const*, unsigned int, unsigned char*, unsigned int*)+0x3a>
      *out++ = (uint8_t)(bin_out_word >> 8);
    5500:	9902      	ldr	r1, [sp, #8]
    5502:	0a22      	lsrs	r2, r4, #8
    5504:	460b      	mov	r3, r1
    5506:	f803 2b02 	strb.w	r2, [r3], #2
      *out++ = (uint8_t)bin_out_word;
    550a:	704c      	strb	r4, [r1, #1]
      bin_out_word  = 0;
    550c:	2400      	movs	r4, #0
    data_out_bitcount += this->rate;
    550e:	7845      	ldrb	r5, [r0, #1]
      *out++ = (uint8_t)bin_out_word;
    5510:	9302      	str	r3, [sp, #8]
    5512:	e7aa      	b.n	546a <RadioLibConvCode::encode(unsigned char const*, unsigned int, unsigned char*, unsigned int*)+0x3a>
      if(this->rate == 3) {
    5514:	2d03      	cmp	r5, #3
        *out++ = (uint8_t)(bin_out_word >> 16);
    5516:	9b02      	ldr	r3, [sp, #8]
    5518:	ea4f 4214 	mov.w	r2, r4, lsr #16
      if(this->rate == 3) {
    551c:	d1f0      	bne.n	5500 <RadioLibConvCode::encode(unsigned char const*, unsigned int, unsigned char*, unsigned int*)+0xd0>
        *out++ = (uint8_t)(bin_out_word >> 16);
    551e:	f803 2b01 	strb.w	r2, [r3], #1
    5522:	9302      	str	r3, [sp, #8]
    5524:	e7ec      	b.n	5500 <RadioLibConvCode::encode(unsigned char const*, unsigned int, unsigned char*, unsigned int*)+0xd0>
  }

  if(ind_bit % 8) {
    5526:	075b      	lsls	r3, r3, #29
    5528:	d00a      	beq.n	5540 <RadioLibConvCode::encode(unsigned char const*, unsigned int, unsigned char*, unsigned int*)+0x110>
    if(this->rate == 3) {
    552a:	2d03      	cmp	r5, #3
    552c:	d104      	bne.n	5538 <RadioLibConvCode::encode(unsigned char const*, unsigned int, unsigned char*, unsigned int*)+0x108>
      *out++ = (uint8_t)(bin_out_word >> 16);
    552e:	9b02      	ldr	r3, [sp, #8]
    5530:	0c22      	lsrs	r2, r4, #16
    5532:	f803 2b01 	strb.w	r2, [r3], #1
    5536:	9302      	str	r3, [sp, #8]
    }
    *out++ = (uint8_t)(bin_out_word >> 8);
    *out++ = (uint8_t)bin_out_word;
    5538:	9a02      	ldr	r2, [sp, #8]
    *out++ = (uint8_t)(bin_out_word >> 8);
    553a:	0a23      	lsrs	r3, r4, #8
    *out++ = (uint8_t)bin_out_word;
    553c:	7054      	strb	r4, [r2, #1]
    *out++ = (uint8_t)(bin_out_word >> 8);
    553e:	7013      	strb	r3, [r2, #0]
  }

  if(out_bits) { *out_bits = data_out_bitcount; }
    5540:	9b0e      	ldr	r3, [sp, #56]	; 0x38
    5542:	b12b      	cbz	r3, 5550 <RadioLibConvCode::encode(unsigned char const*, unsigned int, unsigned char*, unsigned int*)+0x120>

  return(RADIOLIB_ERR_NONE);
    5544:	2000      	movs	r0, #0
  if(out_bits) { *out_bits = data_out_bitcount; }
    5546:	f8c3 b000 	str.w	fp, [r3]
}
    554a:	b005      	add	sp, #20
    554c:	e8bd 8ff0 	ldmia.w	sp!, {r4, r5, r6, r7, r8, r9, sl, fp, pc}
  return(RADIOLIB_ERR_NONE);
    5550:	980e      	ldr	r0, [sp, #56]	; 0x38
}
    5552:	b005      	add	sp, #20
    5554:	e8bd 8ff0 	ldmia.w	sp!, {r4, r5, r6, r7, r8, r9, sl, fp, pc}
  uint16_t data_out_bitcount = 0;
    5558:	f8dd b004 	ldr.w	fp, [sp, #4]
    555c:	e7f0      	b.n	5540 <RadioLibConvCode::encode(unsigned char const*, unsigned int, unsigned char*, unsigned int*)+0x110>
    return(RADIOLIB_ERR_UNKNOWN);
    555e:	f04f 30ff 	mov.w	r0, #4294967295
    5562:	e7f2      	b.n	554a <RadioLibConvCode::encode(unsigned char const*, unsigned int, unsigned char*, unsigned int*)+0x11a>
    5564:	20000318 	.word	0x20000318
    5568:	20000308 	.word	0x20000308

0000556c <_GLOBAL__sub_I__ZN11RadioLibBCHC2Ev>:

RadioLibConvCode RadioLibConvCodeInstance;
    556c:	b510      	push	{r4, lr}
RadioLibBCH::RadioLibBCH() {
    556e:	4807      	ldr	r0, [pc, #28]	; (558c <_GLOBAL__sub_I__ZN11RadioLibBCHC2Ev+0x20>)
    5570:	2400      	movs	r4, #0
RadioLibBCH RadioLibBCHInstance;
    5572:	4a07      	ldr	r2, [pc, #28]	; (5590 <_GLOBAL__sub_I__ZN11RadioLibBCHC2Ev+0x24>)
    5574:	4907      	ldr	r1, [pc, #28]	; (5594 <_GLOBAL__sub_I__ZN11RadioLibBCHC2Ev+0x28>)
RadioLibBCH::RadioLibBCH() {
    5576:	e9c0 4400 	strd	r4, r4, [r0]
    557a:	e9c0 4402 	strd	r4, r4, [r0, #8]
    557e:	e9c0 4404 	strd	r4, r4, [r0, #16]
RadioLibBCH RadioLibBCHInstance;
    5582:	f002 fd75 	bl	8070 <__aeabi_atexit>
RadioLibConvCode::RadioLibConvCode() {
    5586:	4b04      	ldr	r3, [pc, #16]	; (5598 <_GLOBAL__sub_I__ZN11RadioLibBCHC2Ev+0x2c>)
    5588:	801c      	strh	r4, [r3, #0]
RadioLibConvCode RadioLibConvCodeInstance;
    558a:	bd10      	pop	{r4, pc}
    558c:	20001d9c 	.word	0x20001d9c
    5590:	20000db4 	.word	0x20000db4
    5594:	00005409 	.word	0x00005409
    5598:	20001dc8 	.word	0x20001dc8

0000559c <rlb_reflect(unsigned long, unsigned char)>:
#include <string.h>
#include <inttypes.h>

uint32_t rlb_reflect(uint32_t in, uint8_t bits) {
  uint32_t res = 0;
  for(uint8_t i = 0; i < bits; i++) {
    559c:	b1a9      	cbz	r1, 55ca <rlb_reflect(unsigned long, unsigned char)+0x2e>
    559e:	2200      	movs	r2, #0
uint32_t rlb_reflect(uint32_t in, uint8_t bits) {
    55a0:	b530      	push	{r4, r5, lr}
  uint32_t res = 0;
    55a2:	4694      	mov	ip, r2
    55a4:	1e4d      	subs	r5, r1, #1
    res |= (((in & ((uint32_t)1 << i)) >> i) << (bits - i - 1));
    55a6:	2401      	movs	r4, #1
    55a8:	fa04 f302 	lsl.w	r3, r4, r2
    55ac:	eba5 0e02 	sub.w	lr, r5, r2
    55b0:	4003      	ands	r3, r0
    55b2:	40d3      	lsrs	r3, r2
  for(uint8_t i = 0; i < bits; i++) {
    55b4:	3201      	adds	r2, #1
    res |= (((in & ((uint32_t)1 << i)) >> i) << (bits - i - 1));
    55b6:	fa03 f30e 	lsl.w	r3, r3, lr
  for(uint8_t i = 0; i < bits; i++) {
    55ba:	fa5f fe82 	uxtb.w	lr, r2
    55be:	458e      	cmp	lr, r1
    res |= (((in & ((uint32_t)1 << i)) >> i) << (bits - i - 1));
    55c0:	ea4c 0c03 	orr.w	ip, ip, r3
  for(uint8_t i = 0; i < bits; i++) {
    55c4:	d3f0      	bcc.n	55a8 <rlb_reflect(unsigned long, unsigned char)+0xc>
  }
  return(res);
}
    55c6:	4660      	mov	r0, ip
    55c8:	bd30      	pop	{r4, r5, pc}
    55ca:	4608      	mov	r0, r1
    55cc:	4770      	bx	lr
    55ce:	bf00      	nop

000055d0 <EventResponder::triggerEvent(int, void*)>:
	// The code triggering the event does NOT control which of the above
	// response methods will be used.
	virtual void triggerEvent(int status=0, void *data=nullptr) {
		_status = status;
		_data = data;
		if (_type == EventTypeImmediate) {
    55d0:	f890 c01c 	ldrb.w	ip, [r0, #28]
		_status = status;
    55d4:	6041      	str	r1, [r0, #4]
		if (_type == EventTypeImmediate) {
    55d6:	f1bc 0f02 	cmp.w	ip, #2
		_data = data;
    55da:	60c2      	str	r2, [r0, #12]
		if (_type == EventTypeImmediate) {
    55dc:	d101      	bne.n	55e2 <EventResponder::triggerEvent(int, void*)+0x12>
			(*_function)(*this);
    55de:	6883      	ldr	r3, [r0, #8]
    55e0:	4718      	bx	r3
		} else {
			triggerEventNotImmediate();
    55e2:	f000 b9ad 	b.w	5940 <EventResponder::triggerEventNotImmediate()>
    55e6:	bf00      	nop

000055e8 <_spi_dma_rxISR0()>:

//-------------------------------------------------------------------------
// DMA RX ISR
//-------------------------------------------------------------------------
void SPIClass::dma_rxisr(void) {
	_dmaRX->clearInterrupt();
    55e8:	4b32      	ldr	r3, [pc, #200]	; (56b4 <_spi_dma_rxISR0()+0xcc>)
	void detachInterrupt(void) {
		NVIC_DISABLE_IRQ(IRQ_DMA_CH0 + channel);
	}

	void clearInterrupt(void) {
		DMA_CINT = channel;
    55ea:	4933      	ldr	r1, [pc, #204]	; (56b8 <_spi_dma_rxISR0()+0xd0>)
void _spi_dma_rxISR0(void) {SPI.dma_rxisr();}
    55ec:	b530      	push	{r4, r5, lr}
	_dmaTX->clearComplete();
    55ee:	e9d3 5411 	ldrd	r5, r4, [r3, #68]	; 0x44
    55f2:	7920      	ldrb	r0, [r4, #4]
    55f4:	77c8      	strb	r0, [r1, #31]
	_dmaRX->clearComplete();

	if (_dma_count_remaining) {
    55f6:	6c1a      	ldr	r2, [r3, #64]	; 0x40
	bool complete(void) {
		if (TCD->CSR & DMA_TCD_CSR_DONE) return true;
		return false;
	}
	void clearComplete(void) {
		DMA_CDNE = channel;
    55f8:	f895 c004 	ldrb.w	ip, [r5, #4]
    55fc:	f881 c01c 	strb.w	ip, [r1, #28]
    5600:	7708      	strb	r0, [r1, #28]
    5602:	b152      	cbz	r2, 561a <_spi_dma_rxISR0()+0x32>
		// What do I need to do to start it back up again...
		// We will use the BITR/CITR from RX as TX may have prefed some stuff
		if (_dma_count_remaining > MAX_DMA_COUNT) {
    5604:	f5b2 4f00 	cmp.w	r2, #32768	; 0x8000
    5608:	d323      	bcc.n	5652 <_spi_dma_rxISR0()+0x6a>
			_dma_count_remaining -= MAX_DMA_COUNT;
    560a:	492c      	ldr	r1, [pc, #176]	; (56bc <_spi_dma_rxISR0()+0xd4>)
    560c:	4411      	add	r1, r2
		DMA_SERQ = channel;
    560e:	4a2a      	ldr	r2, [pc, #168]	; (56b8 <_spi_dma_rxISR0()+0xd0>)
    5610:	6419      	str	r1, [r3, #64]	; 0x40
    5612:	76d0      	strb	r0, [r2, #27]
    5614:	f882 c01b 	strb.w	ip, [r2, #27]
void _spi_dma_rxISR0(void) {SPI.dma_rxisr();}
    5618:	bd30      	pop	{r4, r5, pc}
	IMXRT_LPSPI_t & port() { return *(IMXRT_LPSPI_t *)port_addr; }
    561a:	6819      	ldr	r1, [r3, #0]
		}
		_dmaRX->enable();
		_dmaTX->enable();
	} else {

		port().FCR = LPSPI_FCR_TXWATER(15); // _spi_fcr_save;	// restore the FSR status... 
    561c:	240f      	movs	r4, #15

		port().CR = LPSPI_CR_MEN | LPSPI_CR_RRF | LPSPI_CR_RTF;   // actually clear both...
		port().SR = 0x3f00;	// clear out all of the other status...

		_dma_state = DMAState::completed;   // set back to 1 in case our call wants to start up dma again
		_dma_event_responder->triggerEvent();
    561e:	6cd8      	ldr	r0, [r3, #76]	; 0x4c
		port().FCR = LPSPI_FCR_TXWATER(15); // _spi_fcr_save;	// restore the FSR status... 
    5620:	658c      	str	r4, [r1, #88]	; 0x58
		port().CR = LPSPI_CR_MEN | LPSPI_CR_RRF | LPSPI_CR_RTF;   // actually clear both...
    5622:	f240 3401 	movw	r4, #769	; 0x301
 		port().DER = 0;		// DMA no longer doing TX (or RX)
    5626:	61ca      	str	r2, [r1, #28]
		port().CR = LPSPI_CR_MEN | LPSPI_CR_RRF | LPSPI_CR_RTF;   // actually clear both...
    5628:	610c      	str	r4, [r1, #16]
		port().SR = 0x3f00;	// clear out all of the other status...
    562a:	f44f 547c 	mov.w	r4, #16128	; 0x3f00
    562e:	614c      	str	r4, [r1, #20]
		_dma_state = DMAState::completed;   // set back to 1 in case our call wants to start up dma again
    5630:	2103      	movs	r1, #3
		_dma_event_responder->triggerEvent();
    5632:	6804      	ldr	r4, [r0, #0]
    5634:	6824      	ldr	r4, [r4, #0]
		_dma_state = DMAState::completed;   // set back to 1 in case our call wants to start up dma again
    5636:	f883 103d 	strb.w	r1, [r3, #61]	; 0x3d
		_dma_event_responder->triggerEvent();
    563a:	4b21      	ldr	r3, [pc, #132]	; (56c0 <_spi_dma_rxISR0()+0xd8>)
    563c:	429c      	cmp	r4, r3
    563e:	d126      	bne.n	568e <_spi_dma_rxISR0()+0xa6>
		if (_type == EventTypeImmediate) {
    5640:	7f03      	ldrb	r3, [r0, #28]
		_status = status;
    5642:	6042      	str	r2, [r0, #4]
		if (_type == EventTypeImmediate) {
    5644:	2b02      	cmp	r3, #2
		_data = data;
    5646:	60c2      	str	r2, [r0, #12]
		if (_type == EventTypeImmediate) {
    5648:	d126      	bne.n	5698 <_spi_dma_rxISR0()+0xb0>
			(*_function)(*this);
    564a:	6883      	ldr	r3, [r0, #8]
void _spi_dma_rxISR0(void) {SPI.dma_rxisr();}
    564c:	e8bd 4030 	ldmia.w	sp!, {r4, r5, lr}
    5650:	4718      	bx	r3
			DMAChanneltransferCount(_dmaTX, _dma_count_remaining);
    5652:	682d      	ldr	r5, [r5, #0]
	if (!(tcd->BITER & DMA_TCD_BITER_ELINK)) {
    5654:	8be9      	ldrh	r1, [r5, #30]
    5656:	0409      	lsls	r1, r1, #16
    5658:	d422      	bmi.n	56a0 <_spi_dma_rxISR0()+0xb8>
		tcd->BITER = len & 0x7fff;
    565a:	b292      	uxth	r2, r2
    565c:	83ea      	strh	r2, [r5, #30]
	tcd->CITER = tcd->BITER; 
    565e:	6821      	ldr	r1, [r4, #0]
    5660:	8bec      	ldrh	r4, [r5, #30]
    5662:	b2a4      	uxth	r4, r4
    5664:	82ec      	strh	r4, [r5, #22]
	if (!(tcd->BITER & DMA_TCD_BITER_ELINK)) {
    5666:	8bcc      	ldrh	r4, [r1, #30]
    5668:	0424      	lsls	r4, r4, #16
    566a:	d505      	bpl.n	5678 <_spi_dma_rxISR0()+0x90>
		tcd->BITER = (tcd->BITER & 0xFE00) | (len & 0x1ff);
    566c:	8bcc      	ldrh	r4, [r1, #30]
    566e:	f3c2 0208 	ubfx	r2, r2, #0, #9
    5672:	f404 447e 	and.w	r4, r4, #65024	; 0xfe00
    5676:	4322      	orrs	r2, r4
    5678:	83ca      	strh	r2, [r1, #30]
	tcd->CITER = tcd->BITER; 
    567a:	8bca      	ldrh	r2, [r1, #30]
    567c:	b292      	uxth	r2, r2
    567e:	82ca      	strh	r2, [r1, #22]
    5680:	2100      	movs	r1, #0
    5682:	4a0d      	ldr	r2, [pc, #52]	; (56b8 <_spi_dma_rxISR0()+0xd0>)
			_dma_count_remaining -= MAX_DMA_COUNT;
    5684:	6419      	str	r1, [r3, #64]	; 0x40
    5686:	76d0      	strb	r0, [r2, #27]
    5688:	f882 c01b 	strb.w	ip, [r2, #27]
void _spi_dma_rxISR0(void) {SPI.dma_rxisr();}
    568c:	bd30      	pop	{r4, r5, pc}
		_dma_event_responder->triggerEvent();
    568e:	4623      	mov	r3, r4
    5690:	4611      	mov	r1, r2
void _spi_dma_rxISR0(void) {SPI.dma_rxisr();}
    5692:	e8bd 4030 	ldmia.w	sp!, {r4, r5, lr}
		_dma_event_responder->triggerEvent();
    5696:	4718      	bx	r3
void _spi_dma_rxISR0(void) {SPI.dma_rxisr();}
    5698:	e8bd 4030 	ldmia.w	sp!, {r4, r5, lr}
			triggerEventNotImmediate();
    569c:	f000 b950 	b.w	5940 <EventResponder::triggerEventNotImmediate()>
		tcd->BITER = (tcd->BITER & 0xFE00) | (len & 0x1ff);
    56a0:	8be9      	ldrh	r1, [r5, #30]
    56a2:	f3c2 0e08 	ubfx	lr, r2, #0, #9
    56a6:	b292      	uxth	r2, r2
    56a8:	f401 417e 	and.w	r1, r1, #65024	; 0xfe00
    56ac:	ea41 010e 	orr.w	r1, r1, lr
    56b0:	83e9      	strh	r1, [r5, #30]
    56b2:	e7d4      	b.n	565e <_spi_dma_rxISR0()+0x76>
    56b4:	20000ce0 	.word	0x20000ce0
    56b8:	400e8000 	.word	0x400e8000
    56bc:	ffff8001 	.word	0xffff8001
    56c0:	000055d1 	.word	0x000055d1

000056c4 <SPIClass::begin()>:
	const SPI_Hardware_t & hardware() { return *(const SPI_Hardware_t *)hardware_addr; }
    56c4:	6843      	ldr	r3, [r0, #4]
{
    56c6:	e92d 4ff0 	stmdb	sp!, {r4, r5, r6, r7, r8, r9, sl, fp, lr}
	hardware().clock_gate_register &= ~hardware().clock_gate_mask;
    56ca:	e9d3 4100 	ldrd	r4, r1, [r3]
	CCM_CBCMR = (CCM_CBCMR & ~(CCM_CBCMR_LPSPI_PODF_MASK | CCM_CBCMR_LPSPI_CLK_SEL_MASK)) |
    56ce:	4d81      	ldr	r5, [pc, #516]	; (58d4 <SPIClass::begin()+0x210>)
	*(portControlRegister(hardware().miso_pin[miso_pin_index])) = fastio;
    56d0:	f04f 0ab8 	mov.w	sl, #184	; 0xb8
	hardware().clock_gate_register &= ~hardware().clock_gate_mask;
    56d4:	6822      	ldr	r2, [r4, #0]
	port().CR = LPSPI_CR_RST;
    56d6:	f04f 0802 	mov.w	r8, #2
	hardware().clock_gate_register &= ~hardware().clock_gate_mask;
    56da:	ea22 0201 	bic.w	r2, r2, r1
	CCM_CBCMR = (CCM_CBCMR & ~(CCM_CBCMR_LPSPI_PODF_MASK | CCM_CBCMR_LPSPI_CLK_SEL_MASK)) |
    56de:	497e      	ldr	r1, [pc, #504]	; (58d8 <SPIClass::begin()+0x214>)
	hardware().clock_gate_register &= ~hardware().clock_gate_mask;
    56e0:	6022      	str	r2, [r4, #0]
	CCM_CBCMR = (CCM_CBCMR & ~(CCM_CBCMR_LPSPI_PODF_MASK | CCM_CBCMR_LPSPI_CLK_SEL_MASK)) |
    56e2:	69aa      	ldr	r2, [r5, #24]
    56e4:	4011      	ands	r1, r2
		CCM_CBCMR_LPSPI_PODF(2) | CCM_CBCMR_LPSPI_CLK_SEL(1); // pg 714
    56e6:	4a7d      	ldr	r2, [pc, #500]	; (58dc <SPIClass::begin()+0x218>)
    56e8:	430a      	orrs	r2, r1
	CCM_CBCMR = (CCM_CBCMR & ~(CCM_CBCMR_LPSPI_PODF_MASK | CCM_CBCMR_LPSPI_CLK_SEL_MASK)) |
    56ea:	61aa      	str	r2, [r5, #24]
	*(portControlRegister(hardware().miso_pin[miso_pin_index])) = fastio;
    56ec:	f890 e010 	ldrb.w	lr, [r0, #16]
    56f0:	4a7b      	ldr	r2, [pc, #492]	; (58e0 <SPIClass::begin()+0x21c>)
    56f2:	eb03 060e 	add.w	r6, r3, lr
	*(portConfigRegister(hardware().miso_pin[miso_pin_index])) = hardware().miso_mux[miso_pin_index];
    56f6:	eb03 0e8e 	add.w	lr, r3, lr, lsl #2
	*(portControlRegister(hardware().miso_pin[miso_pin_index])) = fastio;
    56fa:	7c31      	ldrb	r1, [r6, #16]
    56fc:	eb02 1101 	add.w	r1, r2, r1, lsl #4
    5700:	6889      	ldr	r1, [r1, #8]
    5702:	f8c1 a000 	str.w	sl, [r1]
	*(portControlRegister(hardware().mosi_pin[mosi_pin_index])) = fastio;
    5706:	f890 c011 	ldrb.w	ip, [r0, #17]
    570a:	eb03 050c 	add.w	r5, r3, ip
	*(portConfigRegister(hardware().mosi_pin [mosi_pin_index])) = hardware().mosi_mux[mosi_pin_index];
    570e:	eb03 0c8c 	add.w	ip, r3, ip, lsl #2
	*(portControlRegister(hardware().mosi_pin[mosi_pin_index])) = fastio;
    5712:	f895 1020 	ldrb.w	r1, [r5, #32]
    5716:	eb02 1101 	add.w	r1, r2, r1, lsl #4
    571a:	6889      	ldr	r1, [r1, #8]
    571c:	f8c1 a000 	str.w	sl, [r1]
	*(portControlRegister(hardware().sck_pin[sck_pin_index])) = fastio;
    5720:	7c81      	ldrb	r1, [r0, #18]
    5722:	eb03 0901 	add.w	r9, r3, r1
	*(portConfigRegister(hardware().sck_pin [sck_pin_index])) = hardware().sck_mux[sck_pin_index];
    5726:	eb03 0181 	add.w	r1, r3, r1, lsl #2
	*(portControlRegister(hardware().sck_pin[sck_pin_index])) = fastio;
    572a:	f899 b030 	ldrb.w	fp, [r9, #48]	; 0x30
    572e:	eb02 1b0b 	add.w	fp, r2, fp, lsl #4
    5732:	f8db b008 	ldr.w	fp, [fp, #8]
    5736:	f8cb a000 	str.w	sl, [fp]
	hardware().clock_gate_register |= hardware().clock_gate_mask;
    573a:	f8d4 a000 	ldr.w	sl, [r4]
    573e:	685f      	ldr	r7, [r3, #4]
    5740:	ea4a 0a07 	orr.w	sl, sl, r7
    5744:	f8c4 a000 	str.w	sl, [r4]
	*(portConfigRegister(hardware().miso_pin[miso_pin_index])) = hardware().miso_mux[miso_pin_index];
    5748:	7c34      	ldrb	r4, [r6, #16]
    574a:	f8de e014 	ldr.w	lr, [lr, #20]
    574e:	eb02 1404 	add.w	r4, r2, r4, lsl #4
    5752:	6864      	ldr	r4, [r4, #4]
    5754:	f8c4 e000 	str.w	lr, [r4]
	*(portConfigRegister(hardware().mosi_pin [mosi_pin_index])) = hardware().mosi_mux[mosi_pin_index];
    5758:	f895 4020 	ldrb.w	r4, [r5, #32]
    575c:	f8dc c024 	ldr.w	ip, [ip, #36]	; 0x24
    5760:	eb02 1404 	add.w	r4, r2, r4, lsl #4
    5764:	6864      	ldr	r4, [r4, #4]
    5766:	f8c4 c000 	str.w	ip, [r4]
	*(portConfigRegister(hardware().sck_pin [sck_pin_index])) = hardware().sck_mux[sck_pin_index];
    576a:	6b49      	ldr	r1, [r1, #52]	; 0x34
    576c:	f899 4030 	ldrb.w	r4, [r9, #48]	; 0x30
    5770:	eb02 1204 	add.w	r2, r2, r4, lsl #4
    5774:	6852      	ldr	r2, [r2, #4]
    5776:	6011      	str	r1, [r2, #0]
	hardware().sck_select_input_register = hardware().sck_select_val[sck_pin_index];
    5778:	6bda      	ldr	r2, [r3, #60]	; 0x3c
    577a:	f899 1038 	ldrb.w	r1, [r9, #56]	; 0x38
    577e:	6011      	str	r1, [r2, #0]
	hardware().miso_select_input_register = hardware().miso_select_val[miso_pin_index];
    5780:	69da      	ldr	r2, [r3, #28]
    5782:	7e31      	ldrb	r1, [r6, #24]
	hardware().mosi_select_input_register = hardware().mosi_select_val[mosi_pin_index];
    5784:	6adb      	ldr	r3, [r3, #44]	; 0x2c
	hardware().miso_select_input_register = hardware().miso_select_val[miso_pin_index];
    5786:	6011      	str	r1, [r2, #0]
	hardware().mosi_select_input_register = hardware().mosi_select_val[mosi_pin_index];
    5788:	f895 2028 	ldrb.w	r2, [r5, #40]	; 0x28
    578c:	601a      	str	r2, [r3, #0]
	port().FCR = LPSPI_FCR_TXWATER(15);
    578e:	220f      	movs	r2, #15
	IMXRT_LPSPI_t & port() { return *(IMXRT_LPSPI_t *)port_addr; }
    5790:	6803      	ldr	r3, [r0, #0]
	port().CR = LPSPI_CR_RST;
    5792:	f8c3 8010 	str.w	r8, [r3, #16]
	port().FCR = LPSPI_FCR_TXWATER(15);
    5796:	659a      	str	r2, [r3, #88]	; 0x58
		if (interruptMasksUsed) {
    5798:	7cc2      	ldrb	r2, [r0, #19]
    579a:	2a00      	cmp	r2, #0
    579c:	d031      	beq.n	5802 <SPIClass::begin()+0x13e>
			__disable_irq();
    579e:	b672      	cpsid	i
			if (interruptMasksUsed & 0x01) {
    57a0:	7cc3      	ldrb	r3, [r0, #19]
    57a2:	07dc      	lsls	r4, r3, #31
    57a4:	d508      	bpl.n	57b8 <SPIClass::begin()+0xf4>
				interruptSave[0] = NVIC_ICER0 & interruptMask[0];
    57a6:	f04f 21e0 	mov.w	r1, #3758153728	; 0xe000e000
    57aa:	6944      	ldr	r4, [r0, #20]
    57ac:	f8d1 2180 	ldr.w	r2, [r1, #384]	; 0x180
    57b0:	4022      	ands	r2, r4
    57b2:	6282      	str	r2, [r0, #40]	; 0x28
				NVIC_ICER0 = interruptSave[0];
    57b4:	f8c1 2180 	str.w	r2, [r1, #384]	; 0x180
			if (interruptMasksUsed & 0x02) {
    57b8:	0799      	lsls	r1, r3, #30
    57ba:	d508      	bpl.n	57ce <SPIClass::begin()+0x10a>
				interruptSave[1] = NVIC_ICER1 & interruptMask[1];
    57bc:	f04f 21e0 	mov.w	r1, #3758153728	; 0xe000e000
    57c0:	6984      	ldr	r4, [r0, #24]
    57c2:	f8d1 2184 	ldr.w	r2, [r1, #388]	; 0x184
    57c6:	4022      	ands	r2, r4
    57c8:	62c2      	str	r2, [r0, #44]	; 0x2c
				NVIC_ICER1 = interruptSave[1];
    57ca:	f8c1 2184 	str.w	r2, [r1, #388]	; 0x184
			if (interruptMasksUsed & 0x04) {
    57ce:	075a      	lsls	r2, r3, #29
    57d0:	d508      	bpl.n	57e4 <SPIClass::begin()+0x120>
				interruptSave[2] = NVIC_ICER2 & interruptMask[2];
    57d2:	f04f 21e0 	mov.w	r1, #3758153728	; 0xe000e000
    57d6:	69c4      	ldr	r4, [r0, #28]
    57d8:	f8d1 2188 	ldr.w	r2, [r1, #392]	; 0x188
    57dc:	4022      	ands	r2, r4
    57de:	6302      	str	r2, [r0, #48]	; 0x30
				NVIC_ICER2 = interruptSave[2];
    57e0:	f8c1 2188 	str.w	r2, [r1, #392]	; 0x188
			if (interruptMasksUsed & 0x08) {
    57e4:	071f      	lsls	r7, r3, #28
    57e6:	d508      	bpl.n	57fa <SPIClass::begin()+0x136>
				interruptSave[3] = NVIC_ICER3 & interruptMask[3];
    57e8:	f04f 21e0 	mov.w	r1, #3758153728	; 0xe000e000
    57ec:	6a04      	ldr	r4, [r0, #32]
    57ee:	f8d1 218c 	ldr.w	r2, [r1, #396]	; 0x18c
    57f2:	4022      	ands	r2, r4
    57f4:	6342      	str	r2, [r0, #52]	; 0x34
				NVIC_ICER3 = interruptSave[3];
    57f6:	f8c1 218c 	str.w	r2, [r1, #396]	; 0x18c
			if (interruptMasksUsed & 0x10) {
    57fa:	06de      	lsls	r6, r3, #27
    57fc:	d455      	bmi.n	58aa <SPIClass::begin()+0x1e6>
			__enable_irq();
    57fe:	b662      	cpsie	i
	IMXRT_LPSPI_t & port() { return *(IMXRT_LPSPI_t *)port_addr; }
    5800:	6803      	ldr	r3, [r0, #0]
		if (settings.clock() != _clock) {
    5802:	4c38      	ldr	r4, [pc, #224]	; (58e4 <SPIClass::begin()+0x220>)
    5804:	6882      	ldr	r2, [r0, #8]
    5806:	42a2      	cmp	r2, r4
    5808:	d059      	beq.n	58be <SPIClass::begin()+0x1fa>
			uint32_t cbcmr = CCM_CBCMR;
    580a:	4a32      	ldr	r2, [pc, #200]	; (58d4 <SPIClass::begin()+0x210>)
		    _clock = settings.clock();
    580c:	6084      	str	r4, [r0, #8]
			uint32_t cbcmr = CCM_CBCMR;
    580e:	6992      	ldr	r2, [r2, #24]
			uint32_t clkhz = clk_sel[(cbcmr >> 4) & 0x03] / (((cbcmr >> 26 ) & 0x07 ) + 1);  // LPSPI peripheral clock
    5810:	4935      	ldr	r1, [pc, #212]	; (58e8 <SPIClass::begin()+0x224>)
    5812:	f3c2 1601 	ubfx	r6, r2, #4, #2
    5816:	f3c2 6282 	ubfx	r2, r2, #26, #3
			if (d && clkhz/d > _clock) d++;
    581a:	4d34      	ldr	r5, [pc, #208]	; (58ec <SPIClass::begin()+0x228>)
			uint32_t clkhz = clk_sel[(cbcmr >> 4) & 0x03] / (((cbcmr >> 26 ) & 0x07 ) + 1);  // LPSPI peripheral clock
    581c:	f851 1026 	ldr.w	r1, [r1, r6, lsl #2]
    5820:	3201      	adds	r2, #1
    5822:	fbb1 f2f2 	udiv	r2, r1, r2
			if (d && clkhz/d > _clock) d++;
    5826:	42aa      	cmp	r2, r5
    5828:	d831      	bhi.n	588e <SPIClass::begin()+0x1ca>
    582a:	2200      	movs	r2, #0
			_ccr = LPSPI_CCR_SCKDIV(div) | LPSPI_CCR_DBT(div/2) | LPSPI_CCR_PCSSCK(div/2);
    582c:	60c2      	str	r2, [r0, #12]
		port().CR = 0;
    582e:	2400      	movs	r4, #0
		port().CFGR1 = LPSPI_CFGR1_MASTER | LPSPI_CFGR1_SAMPLE;
    5830:	2103      	movs	r1, #3
		port().CR = 0;
    5832:	611c      	str	r4, [r3, #16]
		port().TCR = settings.tcr;
    5834:	2407      	movs	r4, #7
		port().CFGR1 = LPSPI_CFGR1_MASTER | LPSPI_CFGR1_SAMPLE;
    5836:	6259      	str	r1, [r3, #36]	; 0x24
		port().CR = LPSPI_CR_MEN;
    5838:	2101      	movs	r1, #1
		port().CCR = _ccr;
    583a:	641a      	str	r2, [r3, #64]	; 0x40
		port().TCR = settings.tcr;
    583c:	661c      	str	r4, [r3, #96]	; 0x60
		port().CR = LPSPI_CR_MEN;
    583e:	6119      	str	r1, [r3, #16]
		if (interruptMasksUsed) {
    5840:	7cc3      	ldrb	r3, [r0, #19]
    5842:	b313      	cbz	r3, 588a <SPIClass::begin()+0x1c6>
			if (interruptMasksUsed & 0x01) NVIC_ISER0 = interruptSave[0];
    5844:	07dd      	lsls	r5, r3, #31
    5846:	d504      	bpl.n	5852 <SPIClass::begin()+0x18e>
    5848:	6a81      	ldr	r1, [r0, #40]	; 0x28
    584a:	f04f 22e0 	mov.w	r2, #3758153728	; 0xe000e000
    584e:	f8c2 1100 	str.w	r1, [r2, #256]	; 0x100
			if (interruptMasksUsed & 0x02) NVIC_ISER1 = interruptSave[1];
    5852:	079c      	lsls	r4, r3, #30
    5854:	d504      	bpl.n	5860 <SPIClass::begin()+0x19c>
    5856:	6ac1      	ldr	r1, [r0, #44]	; 0x2c
    5858:	f04f 22e0 	mov.w	r2, #3758153728	; 0xe000e000
    585c:	f8c2 1104 	str.w	r1, [r2, #260]	; 0x104
			if (interruptMasksUsed & 0x04) NVIC_ISER2 = interruptSave[2];
    5860:	0759      	lsls	r1, r3, #29
    5862:	d504      	bpl.n	586e <SPIClass::begin()+0x1aa>
    5864:	6b01      	ldr	r1, [r0, #48]	; 0x30
    5866:	f04f 22e0 	mov.w	r2, #3758153728	; 0xe000e000
    586a:	f8c2 1108 	str.w	r1, [r2, #264]	; 0x108
			if (interruptMasksUsed & 0x08) NVIC_ISER3 = interruptSave[3];
    586e:	071a      	lsls	r2, r3, #28
    5870:	d504      	bpl.n	587c <SPIClass::begin()+0x1b8>
    5872:	6b41      	ldr	r1, [r0, #52]	; 0x34
    5874:	f04f 22e0 	mov.w	r2, #3758153728	; 0xe000e000
    5878:	f8c2 110c 	str.w	r1, [r2, #268]	; 0x10c
			if (interruptMasksUsed & 0x10) NVIC_ISER4 = interruptSave[4];
    587c:	06db      	lsls	r3, r3, #27
    587e:	d504      	bpl.n	588a <SPIClass::begin()+0x1c6>
    5880:	6b82      	ldr	r2, [r0, #56]	; 0x38
    5882:	f04f 23e0 	mov.w	r3, #3758153728	; 0xe000e000
    5886:	f8c3 2110 	str.w	r2, [r3, #272]	; 0x110
}
    588a:	e8bd 8ff0 	ldmia.w	sp!, {r4, r5, r6, r7, r8, r9, sl, fp, pc}
			d = _clock ? clkhz/_clock : clkhz;
    588e:	4918      	ldr	r1, [pc, #96]	; (58f0 <SPIClass::begin()+0x22c>)
    5890:	fba1 5102 	umull	r5, r1, r1, r2
    5894:	0d09      	lsrs	r1, r1, #20
			if (d && clkhz/d > _clock) d++;
    5896:	fbb2 f2f1 	udiv	r2, r2, r1
    589a:	42a2      	cmp	r2, r4
    589c:	bf88      	it	hi
    589e:	3101      	addhi	r1, #1
			if (d > 257) d= 257;  // max div
    58a0:	f5b1 7f81 	cmp.w	r1, #258	; 0x102
    58a4:	d30d      	bcc.n	58c2 <SPIClass::begin()+0x1fe>
    58a6:	4a13      	ldr	r2, [pc, #76]	; (58f4 <SPIClass::begin()+0x230>)
				div = d-2;
    58a8:	e7c0      	b.n	582c <SPIClass::begin()+0x168>
				interruptSave[4] = NVIC_ICER4 & interruptMask[4];
    58aa:	f04f 22e0 	mov.w	r2, #3758153728	; 0xe000e000
    58ae:	6a41      	ldr	r1, [r0, #36]	; 0x24
    58b0:	f8d2 3190 	ldr.w	r3, [r2, #400]	; 0x190
    58b4:	400b      	ands	r3, r1
    58b6:	6383      	str	r3, [r0, #56]	; 0x38
				NVIC_ICER4 = interruptSave[4];
    58b8:	f8c2 3190 	str.w	r3, [r2, #400]	; 0x190
    58bc:	e79f      	b.n	57fe <SPIClass::begin()+0x13a>
		port().CCR = _ccr;
    58be:	68c2      	ldr	r2, [r0, #12]
    58c0:	e7b5      	b.n	582e <SPIClass::begin()+0x16a>
			if (d > 2) {
    58c2:	2902      	cmp	r1, #2
    58c4:	d9b1      	bls.n	582a <SPIClass::begin()+0x166>
				div = d-2;
    58c6:	3902      	subs	r1, #2
			_ccr = LPSPI_CCR_SCKDIV(div) | LPSPI_CCR_DBT(div/2) | LPSPI_CCR_PCSSCK(div/2);
    58c8:	084c      	lsrs	r4, r1, #1
    58ca:	0222      	lsls	r2, r4, #8
    58cc:	ea42 4204 	orr.w	r2, r2, r4, lsl #16
    58d0:	430a      	orrs	r2, r1
    58d2:	e7ab      	b.n	582c <SPIClass::begin()+0x168>
    58d4:	400fc000 	.word	0x400fc000
    58d8:	e3ffffcf 	.word	0xe3ffffcf
    58dc:	08000010 	.word	0x08000010
    58e0:	200007a4 	.word	0x200007a4
    58e4:	003d0900 	.word	0x003d0900
    58e8:	20000794 	.word	0x20000794
    58ec:	003d08ff 	.word	0x003d08ff
    58f0:	431bde83 	.word	0x431bde83
    58f4:	007f7fff 	.word	0x007f7fff

000058f8 <SPIClass::end()>:
	const SPI_Hardware_t & hardware() { return *(const SPI_Hardware_t *)hardware_addr; }
    58f8:	6843      	ldr	r3, [r0, #4]
	if (hardware().clock_gate_register & hardware().clock_gate_mask) {
    58fa:	e9d3 1200 	ldrd	r1, r2, [r3]
    58fe:	6809      	ldr	r1, [r1, #0]
    5900:	4211      	tst	r1, r2
    5902:	d100      	bne.n	5906 <SPIClass::end()+0xe>
    5904:	4770      	bx	lr
void SPIClass::end() {
    5906:	b510      	push	{r4, lr}
	IMXRT_LPSPI_t & port() { return *(IMXRT_LPSPI_t *)port_addr; }
    5908:	6802      	ldr	r2, [r0, #0]
    590a:	4604      	mov	r4, r0
		port().CR = 0;  // turn off the enable
    590c:	2000      	movs	r0, #0
		pinMode(hardware().miso_pin[miso_pin_index], INPUT_DISABLE);
    590e:	2105      	movs	r1, #5
		port().CR = 0;  // turn off the enable
    5910:	6110      	str	r0, [r2, #16]
		pinMode(hardware().miso_pin[miso_pin_index], INPUT_DISABLE);
    5912:	7c22      	ldrb	r2, [r4, #16]
    5914:	4413      	add	r3, r2
    5916:	7c18      	ldrb	r0, [r3, #16]
    5918:	f000 fdb4 	bl	6484 <pinMode>
		pinMode(hardware().mosi_pin[mosi_pin_index], INPUT_DISABLE);
    591c:	7c62      	ldrb	r2, [r4, #17]
    591e:	6863      	ldr	r3, [r4, #4]
    5920:	2105      	movs	r1, #5
    5922:	4413      	add	r3, r2
    5924:	f893 0020 	ldrb.w	r0, [r3, #32]
    5928:	f000 fdac 	bl	6484 <pinMode>
		pinMode(hardware().sck_pin[sck_pin_index], INPUT_DISABLE);
    592c:	6863      	ldr	r3, [r4, #4]
    592e:	7ca2      	ldrb	r2, [r4, #18]
    5930:	2105      	movs	r1, #5
    5932:	4413      	add	r3, r2
}
    5934:	e8bd 4010 	ldmia.w	sp!, {r4, lr}
		pinMode(hardware().sck_pin[sck_pin_index], INPUT_DISABLE);
    5938:	f893 0030 	ldrb.w	r0, [r3, #48]	; 0x30
    593c:	f000 bda2 	b.w	6484 <pinMode>

00005940 <EventResponder::triggerEventNotImmediate()>:
	static EventResponder *lastInterrupt;
	static bool runningFromYield;
private:
	static bool disableInterrupts() {
		uint32_t primask;
		__asm__ volatile("mrs %0, primask\n" : "=r" (primask)::);
    5940:	f3ef 8210 	mrs	r2, PRIMASK
		__disable_irq();
    5944:	b672      	cpsid	i
	if (_triggered == false) {
    5946:	7f43      	ldrb	r3, [r0, #29]
    5948:	b95b      	cbnz	r3, 5962 <EventResponder::triggerEventNotImmediate()+0x22>
		if (_type == EventTypeYield) {
    594a:	7f01      	ldrb	r1, [r0, #28]
    594c:	2901      	cmp	r1, #1
{
    594e:	b430      	push	{r4, r5}
		if (_type == EventTypeYield) {
    5950:	d00b      	beq.n	596a <EventResponder::triggerEventNotImmediate()+0x2a>
		} else if (_type == EventTypeInterrupt) {
    5952:	2903      	cmp	r1, #3
    5954:	d013      	beq.n	597e <EventResponder::triggerEventNotImmediate()+0x3e>
		_triggered = true;
    5956:	2301      	movs	r3, #1
    5958:	7743      	strb	r3, [r0, #29]
		return (primask == 0) ? true : false;
	}
	static void enableInterrupts(bool doit) {
		if (doit) __enable_irq();
    595a:	b902      	cbnz	r2, 595e <EventResponder::triggerEventNotImmediate()+0x1e>
    595c:	b662      	cpsie	i
}
    595e:	bc30      	pop	{r4, r5}
    5960:	4770      	bx	lr
    5962:	b90a      	cbnz	r2, 5968 <EventResponder::triggerEventNotImmediate()+0x28>
    5964:	b662      	cpsie	i
    5966:	4770      	bx	lr
    5968:	4770      	bx	lr
			if (firstYield == nullptr) {
    596a:	4c12      	ldr	r4, [pc, #72]	; (59b4 <EventResponder::triggerEventNotImmediate()+0x74>)
    596c:	6821      	ldr	r1, [r4, #0]
    596e:	b1b1      	cbz	r1, 599e <EventResponder::triggerEventNotImmediate()+0x5e>
				_prev = lastYield;
    5970:	4911      	ldr	r1, [pc, #68]	; (59b8 <EventResponder::triggerEventNotImmediate()+0x78>)
				_next = nullptr;
    5972:	6143      	str	r3, [r0, #20]
				_prev = lastYield;
    5974:	680b      	ldr	r3, [r1, #0]
				lastYield = this;
    5976:	6008      	str	r0, [r1, #0]
				_prev = lastYield;
    5978:	6183      	str	r3, [r0, #24]
				_prev->_next = this;
    597a:	6158      	str	r0, [r3, #20]
				lastYield = this;
    597c:	e7eb      	b.n	5956 <EventResponder::triggerEventNotImmediate()+0x16>
			if (firstInterrupt == nullptr) {
    597e:	4d0f      	ldr	r5, [pc, #60]	; (59bc <EventResponder::triggerEventNotImmediate()+0x7c>)
    5980:	490f      	ldr	r1, [pc, #60]	; (59c0 <EventResponder::triggerEventNotImmediate()+0x80>)
    5982:	682c      	ldr	r4, [r5, #0]
    5984:	b18c      	cbz	r4, 59aa <EventResponder::triggerEventNotImmediate()+0x6a>
				_next = nullptr;
    5986:	6143      	str	r3, [r0, #20]
				_prev = lastInterrupt;
    5988:	680b      	ldr	r3, [r1, #0]
    598a:	6183      	str	r3, [r0, #24]
				_prev->_next = this;
    598c:	6158      	str	r0, [r3, #20]
			SCB_ICSR = SCB_ICSR_PENDSVSET; // set PendSV interrupt
    598e:	f04f 23e0 	mov.w	r3, #3758153728	; 0xe000e000
    5992:	f04f 5480 	mov.w	r4, #268435456	; 0x10000000
				lastInterrupt = this;
    5996:	6008      	str	r0, [r1, #0]
			SCB_ICSR = SCB_ICSR_PENDSVSET; // set PendSV interrupt
    5998:	f8c3 4d04 	str.w	r4, [r3, #3332]	; 0xd04
    599c:	e7db      	b.n	5956 <EventResponder::triggerEventNotImmediate()+0x16>
				lastYield = this;
    599e:	4b06      	ldr	r3, [pc, #24]	; (59b8 <EventResponder::triggerEventNotImmediate()+0x78>)
				firstYield = this;
    59a0:	6020      	str	r0, [r4, #0]
				lastYield = this;
    59a2:	6018      	str	r0, [r3, #0]
				_prev = nullptr;
    59a4:	e9c0 1105 	strd	r1, r1, [r0, #20]
				lastYield = this;
    59a8:	e7d5      	b.n	5956 <EventResponder::triggerEventNotImmediate()+0x16>
				_prev = nullptr;
    59aa:	e9c0 4405 	strd	r4, r4, [r0, #20]
				firstInterrupt = this;
    59ae:	6028      	str	r0, [r5, #0]
				lastInterrupt = this;
    59b0:	e7ed      	b.n	598e <EventResponder::triggerEventNotImmediate()+0x4e>
    59b2:	bf00      	nop
    59b4:	20001de4 	.word	0x20001de4
    59b8:	20001df0 	.word	0x20001df0
    59bc:	20001dec 	.word	0x20001dec
    59c0:	20001de8 	.word	0x20001de8

000059c4 <EventResponder::runFromInterrupt()>:
{
    59c4:	b570      	push	{r4, r5, r6, lr}
		__asm__ volatile("mrs %0, primask\n" : "=r" (primask)::);
    59c6:	f3ef 8210 	mrs	r2, PRIMASK
		__disable_irq();
    59ca:	b672      	cpsid	i
		EventResponder *first = firstInterrupt;
    59cc:	4c0c      	ldr	r4, [pc, #48]	; (5a00 <EventResponder::runFromInterrupt()+0x3c>)
    59ce:	6820      	ldr	r0, [r4, #0]
		if (first) {
    59d0:	b180      	cbz	r0, 59f4 <EventResponder::runFromInterrupt()+0x30>
				lastInterrupt = nullptr;
    59d2:	4e0c      	ldr	r6, [pc, #48]	; (5a04 <EventResponder::runFromInterrupt()+0x40>)
				firstInterrupt->_prev = nullptr;
    59d4:	2500      	movs	r5, #0
			firstInterrupt = first->_next;
    59d6:	6943      	ldr	r3, [r0, #20]
    59d8:	6023      	str	r3, [r4, #0]
			if (firstInterrupt) {
    59da:	b173      	cbz	r3, 59fa <EventResponder::runFromInterrupt()+0x36>
				firstInterrupt->_prev = nullptr;
    59dc:	619d      	str	r5, [r3, #24]
		if (doit) __enable_irq();
    59de:	b902      	cbnz	r2, 59e2 <EventResponder::runFromInterrupt()+0x1e>
    59e0:	b662      	cpsie	i
			(*(first->_function))(*first);
    59e2:	6883      	ldr	r3, [r0, #8]
			first->_triggered = false;
    59e4:	7745      	strb	r5, [r0, #29]
			(*(first->_function))(*first);
    59e6:	4798      	blx	r3
		__asm__ volatile("mrs %0, primask\n" : "=r" (primask)::);
    59e8:	f3ef 8210 	mrs	r2, PRIMASK
		__disable_irq();
    59ec:	b672      	cpsid	i
		EventResponder *first = firstInterrupt;
    59ee:	6820      	ldr	r0, [r4, #0]
		if (first) {
    59f0:	2800      	cmp	r0, #0
    59f2:	d1f0      	bne.n	59d6 <EventResponder::runFromInterrupt()+0x12>
		if (doit) __enable_irq();
    59f4:	b902      	cbnz	r2, 59f8 <EventResponder::runFromInterrupt()+0x34>
    59f6:	b662      	cpsie	i
}
    59f8:	bd70      	pop	{r4, r5, r6, pc}
				lastInterrupt = nullptr;
    59fa:	6033      	str	r3, [r6, #0]
    59fc:	e7ef      	b.n	59de <EventResponder::runFromInterrupt()+0x1a>
    59fe:	bf00      	nop
    5a00:	20001dec 	.word	0x20001dec
    5a04:	20001de8 	.word	0x20001de8

00005a08 <pendablesrvreq_isr>:
	EventResponder::runFromInterrupt();
    5a08:	f7ff bfdc 	b.w	59c4 <EventResponder::runFromInterrupt()>

00005a0c <systick_isr>:
extern "C" volatile uint32_t systick_millis_count;
extern "C" volatile uint32_t systick_cycle_count;
extern "C" uint32_t systick_safe_read; // micros() synchronization
extern "C" void systick_isr(void)
{
	systick_cycle_count = ARM_DWT_CYCCNT;
    5a0c:	4904      	ldr	r1, [pc, #16]	; (5a20 <systick_isr+0x14>)
	systick_millis_count++;
    5a0e:	4a05      	ldr	r2, [pc, #20]	; (5a24 <systick_isr+0x18>)
	systick_cycle_count = ARM_DWT_CYCCNT;
    5a10:	6849      	ldr	r1, [r1, #4]
    5a12:	4b05      	ldr	r3, [pc, #20]	; (5a28 <systick_isr+0x1c>)
    5a14:	6019      	str	r1, [r3, #0]
	systick_millis_count++;
    5a16:	6813      	ldr	r3, [r2, #0]
    5a18:	3301      	adds	r3, #1
    5a1a:	6013      	str	r3, [r2, #0]
}
    5a1c:	4770      	bx	lr
    5a1e:	bf00      	nop
    5a20:	e0001000 	.word	0xe0001000
    5a24:	2000234c 	.word	0x2000234c
    5a28:	20002348 	.word	0x20002348

00005a2c <usb_serial_class::write(unsigned char)>:
        virtual size_t write(uint8_t c) { return usb_serial_putchar(c); }
    5a2c:	4608      	mov	r0, r1
    5a2e:	f002 b82b 	b.w	7a88 <usb_serial_putchar>
    5a32:	bf00      	nop

00005a34 <Print::printNumber(unsigned long, unsigned char, unsigned char) [clone .part.0]>:
		base = 10;
    5a34:	2a01      	cmp	r2, #1
size_t Print::printNumber(unsigned long n, uint8_t base, uint8_t sign)
    5a36:	b570      	push	{r4, r5, r6, lr}
		base = 10;
    5a38:	bf08      	it	eq
    5a3a:	220a      	moveq	r2, #10
size_t Print::printNumber(unsigned long n, uint8_t base, uint8_t sign)
    5a3c:	b08a      	sub	sp, #40	; 0x28
	if (n == 0) {
    5a3e:	b391      	cbz	r1, 5aa6 <Print::printNumber(unsigned long, unsigned char, unsigned char) [clone .part.0]+0x72>
		i = sizeof(buf) - 1;
    5a40:	f04f 0e21 	mov.w	lr, #33	; 0x21
    5a44:	e001      	b.n	5a4a <Print::printNumber(unsigned long, unsigned char, unsigned char) [clone .part.0]+0x16>
			i--;
    5a46:	fa5f fe86 	uxtb.w	lr, r6
    5a4a:	f10e 36ff 	add.w	r6, lr, #4294967295
			digit = n % base;
    5a4e:	fbb1 f5f2 	udiv	r5, r1, r2
    5a52:	fb02 1415 	mls	r4, r2, r5, r1
    5a56:	fa5f fc84 	uxtb.w	ip, r4
			buf[i] = ((digit < 10) ? '0' + digit : 'A' + digit - 10);
    5a5a:	2c09      	cmp	r4, #9
    5a5c:	f10c 0437 	add.w	r4, ip, #55	; 0x37
    5a60:	f10c 0c30 	add.w	ip, ip, #48	; 0x30
    5a64:	bf98      	it	ls
    5a66:	fa5f f48c 	uxtbls.w	r4, ip
    5a6a:	f10e 0c28 	add.w	ip, lr, #40	; 0x28
    5a6e:	bf88      	it	hi
    5a70:	b2e4      	uxtbhi	r4, r4
			if (n == 0) break;
    5a72:	4291      	cmp	r1, r2
			buf[i] = ((digit < 10) ? '0' + digit : 'A' + digit - 10);
    5a74:	44ec      	add	ip, sp
			n /= base;
    5a76:	4629      	mov	r1, r5
			buf[i] = ((digit < 10) ? '0' + digit : 'A' + digit - 10);
    5a78:	f80c 4c24 	strb.w	r4, [ip, #-36]
			if (n == 0) break;
    5a7c:	d2e3      	bcs.n	5a46 <Print::printNumber(unsigned long, unsigned char, unsigned char) [clone .part.0]+0x12>
	if (sign) {
    5a7e:	b14b      	cbz	r3, 5a94 <Print::printNumber(unsigned long, unsigned char, unsigned char) [clone .part.0]+0x60>
		i--;
    5a80:	f10e 3eff 	add.w	lr, lr, #4294967295
		buf[i] = '-';
    5a84:	222d      	movs	r2, #45	; 0x2d
		i--;
    5a86:	fa5f fe8e 	uxtb.w	lr, lr
		buf[i] = '-';
    5a8a:	f10e 0328 	add.w	r3, lr, #40	; 0x28
    5a8e:	446b      	add	r3, sp
    5a90:	f803 2c24 	strb.w	r2, [r3, #-36]
	return write(buf + i, sizeof(buf) - i);
    5a94:	6803      	ldr	r3, [r0, #0]
    5a96:	a901      	add	r1, sp, #4
    5a98:	f1ce 0222 	rsb	r2, lr, #34	; 0x22
    5a9c:	685b      	ldr	r3, [r3, #4]
    5a9e:	4471      	add	r1, lr
    5aa0:	4798      	blx	r3
}
    5aa2:	b00a      	add	sp, #40	; 0x28
    5aa4:	bd70      	pop	{r4, r5, r6, pc}
		buf[sizeof(buf) - 1] = '0';
    5aa6:	2230      	movs	r2, #48	; 0x30
		i = sizeof(buf) - 1;
    5aa8:	f04f 0e21 	mov.w	lr, #33	; 0x21
		buf[sizeof(buf) - 1] = '0';
    5aac:	f88d 2025 	strb.w	r2, [sp, #37]	; 0x25
		i = sizeof(buf) - 1;
    5ab0:	e7e5      	b.n	5a7e <Print::printNumber(unsigned long, unsigned char, unsigned char) [clone .part.0]+0x4a>
    5ab2:	bf00      	nop

00005ab4 <Print::print(String const&)>:
{
    5ab4:	e92d 41f0 	stmdb	sp!, {r4, r5, r6, r7, r8, lr}
	String(double num, unsigned char digits=2) : String((float)num, digits) {}
	~String(void);

	// memory management
	unsigned char reserve(unsigned int size);
	inline unsigned int length(void) const {return len;}
    5ab8:	688c      	ldr	r4, [r1, #8]
    5aba:	b08a      	sub	sp, #40	; 0x28
	while (len > 0) {
    5abc:	b1dc      	cbz	r4, 5af6 <Print::print(String const&)+0x42>
	unsigned int index = 0;
    5abe:	2500      	movs	r5, #0
    5ac0:	4688      	mov	r8, r1
    5ac2:	4606      	mov	r6, r0
	size_t count = 0;
    5ac4:	462f      	mov	r7, r5
		s.getBytes(buffer, sizeof(buffer), index);
    5ac6:	462b      	mov	r3, r5
    5ac8:	2221      	movs	r2, #33	; 0x21
    5aca:	a901      	add	r1, sp, #4
    5acc:	4640      	mov	r0, r8
    5ace:	f000 fa8b 	bl	5fe8 <String::getBytes(unsigned char*, unsigned int, unsigned int) const>
		if (nbytes > sizeof(buffer)-1) nbytes = sizeof(buffer)-1;
    5ad2:	2c20      	cmp	r4, #32
    5ad4:	4622      	mov	r2, r4
		count += write(buffer, nbytes);
    5ad6:	6833      	ldr	r3, [r6, #0]
    5ad8:	bf28      	it	cs
    5ada:	2220      	movcs	r2, #32
    5adc:	a901      	add	r1, sp, #4
    5ade:	4630      	mov	r0, r6
    5ae0:	685b      	ldr	r3, [r3, #4]
		len -= nbytes;
    5ae2:	1aa4      	subs	r4, r4, r2
		index += nbytes;
    5ae4:	4415      	add	r5, r2
		count += write(buffer, nbytes);
    5ae6:	4798      	blx	r3
    5ae8:	4407      	add	r7, r0
	while (len > 0) {
    5aea:	2c00      	cmp	r4, #0
    5aec:	d1eb      	bne.n	5ac6 <Print::print(String const&)+0x12>
}
    5aee:	4638      	mov	r0, r7
    5af0:	b00a      	add	sp, #40	; 0x28
    5af2:	e8bd 81f0 	ldmia.w	sp!, {r4, r5, r6, r7, r8, pc}
	size_t count = 0;
    5af6:	4627      	mov	r7, r4
}
    5af8:	4638      	mov	r0, r7
    5afa:	b00a      	add	sp, #40	; 0x28
    5afc:	e8bd 81f0 	ldmia.w	sp!, {r4, r5, r6, r7, r8, pc}

00005b00 <Print::print(long)>:
	if (n < 0) {
    5b00:	2900      	cmp	r1, #0
    5b02:	db03      	blt.n	5b0c <Print::print(long)+0xc>
	uint8_t sign=0;
    5b04:	2300      	movs	r3, #0
	if (base == 0) {
    5b06:	220a      	movs	r2, #10
    5b08:	f7ff bf94 	b.w	5a34 <Print::printNumber(unsigned long, unsigned char, unsigned char) [clone .part.0]>
		n = -n;
    5b0c:	4249      	negs	r1, r1
		sign = '-';
    5b0e:	232d      	movs	r3, #45	; 0x2d
	if (base == 0) {
    5b10:	220a      	movs	r2, #10
    5b12:	f7ff bf8f 	b.w	5a34 <Print::printNumber(unsigned long, unsigned char, unsigned char) [clone .part.0]>
    5b16:	bf00      	nop

00005b18 <Print::println()>:
{
    5b18:	b500      	push	{lr}
	return write(buf, 2);
    5b1a:	6803      	ldr	r3, [r0, #0]
{
    5b1c:	b083      	sub	sp, #12
	uint8_t buf[2]={'\r', '\n'};
    5b1e:	f640 2c0d 	movw	ip, #2573	; 0xa0d
	return write(buf, 2);
    5b22:	2202      	movs	r2, #2
    5b24:	a901      	add	r1, sp, #4
    5b26:	685b      	ldr	r3, [r3, #4]
	uint8_t buf[2]={'\r', '\n'};
    5b28:	f8ad c004 	strh.w	ip, [sp, #4]
	return write(buf, 2);
    5b2c:	4798      	blx	r3
}
    5b2e:	b003      	add	sp, #12
    5b30:	f85d fb04 	ldr.w	pc, [sp], #4
    5b34:	0000      	movs	r0, r0
	...

00005b38 <Print::printFloat(double, unsigned char)>:
size_t Print::printFloat(double number, uint8_t digits) 
{
	uint8_t sign=0;
	size_t count=0;

	if (isnan(number)) return print("nan");
    5b38:	eeb4 0b40 	vcmp.f64	d0, d0
{
    5b3c:	b570      	push	{r4, r5, r6, lr}
	if (isnan(number)) return print("nan");
    5b3e:	eef1 fa10 	vmrs	APSR_nzcv, fpscr
{
    5b42:	4605      	mov	r5, r0
    5b44:	ed2d 8b02 	vpush	{d8}
    5b48:	b086      	sub	sp, #24
	if (isnan(number)) return print("nan");
    5b4a:	d67c      	bvs.n	5c46 <Print::printFloat(double, unsigned char)+0x10e>
  && !_GLIBCXX_NO_OBSOLETE_ISINF_ISNAN_DYNAMIC
  using ::isinf;
#else
  constexpr bool
  isinf(double __x)
  { return __builtin_isinf(__x); }
    5b4c:	eeb0 7bc0 	vabs.f64	d7, d0
    	if (isinf(number)) return print("inf");
    5b50:	ed9f 6b47 	vldr	d6, [pc, #284]	; 5c70 <Print::printFloat(double, unsigned char)+0x138>
    5b54:	eeb4 7b46 	vcmp.f64	d7, d6
    5b58:	eef1 fa10 	vmrs	APSR_nzcv, fpscr
    5b5c:	dc6b      	bgt.n	5c36 <Print::printFloat(double, unsigned char)+0xfe>
    	if (number > 4294967040.0f) return print("ovf");  // constant determined empirically
    5b5e:	ed9f 7b46 	vldr	d7, [pc, #280]	; 5c78 <Print::printFloat(double, unsigned char)+0x140>
    5b62:	eeb4 0bc7 	vcmpe.f64	d0, d7
    5b66:	eef1 fa10 	vmrs	APSR_nzcv, fpscr
    5b6a:	dc5a      	bgt.n	5c22 <Print::printFloat(double, unsigned char)+0xea>
    	if (number <-4294967040.0f) return print("ovf");  // constant determined empirically
    5b6c:	ed9f 7b44 	vldr	d7, [pc, #272]	; 5c80 <Print::printFloat(double, unsigned char)+0x148>
    5b70:	eeb4 0bc7 	vcmpe.f64	d0, d7
    5b74:	eef1 fa10 	vmrs	APSR_nzcv, fpscr
    5b78:	d453      	bmi.n	5c22 <Print::printFloat(double, unsigned char)+0xea>
	
	// Handle negative numbers
	if (number < 0.0) {
    5b7a:	eeb5 0bc0 	vcmpe.f64	d0, #0.0
    5b7e:	460c      	mov	r4, r1
    5b80:	eef1 fa10 	vmrs	APSR_nzcv, fpscr
    5b84:	d45b      	bmi.n	5c3e <Print::printFloat(double, unsigned char)+0x106>
	uint8_t sign=0;
    5b86:	2300      	movs	r3, #0
		sign = 1;
		number = -number;
	}

	// Round correctly so that print(1.999, 2) prints as "2.00"
	double rounding = 0.5;
    5b88:	eeb6 7b00 	vmov.f64	d7, #96	; 0x3f000000  0.5
	for (uint8_t i=0; i<digits; ++i) {
    5b8c:	2c00      	cmp	r4, #0
    5b8e:	d05e      	beq.n	5c4e <Print::printFloat(double, unsigned char)+0x116>
    5b90:	f04f 0c00 	mov.w	ip, #0
		rounding *= 0.1;
    5b94:	ed9f 6b3c 	vldr	d6, [pc, #240]	; 5c88 <Print::printFloat(double, unsigned char)+0x150>
	for (uint8_t i=0; i<digits; ++i) {
    5b98:	f10c 0c01 	add.w	ip, ip, #1
		rounding *= 0.1;
    5b9c:	ee27 7b06 	vmul.f64	d7, d7, d6
	for (uint8_t i=0; i<digits; ++i) {
    5ba0:	fa5f f28c 	uxtb.w	r2, ip
    5ba4:	42a2      	cmp	r2, r4
    5ba6:	d3f7      	bcc.n	5b98 <Print::printFloat(double, unsigned char)+0x60>
	}
	number += rounding;
    5ba8:	ee30 0b07 	vadd.f64	d0, d0, d7

	// Extract the integer part of the number and print it
	unsigned long int_part = (unsigned long)number;
    5bac:	220a      	movs	r2, #10
    5bae:	4628      	mov	r0, r5
    5bb0:	eefc 7bc0 	vcvt.u32.f64	s15, d0
	double remainder = number - (double)int_part;
    5bb4:	eeb8 8b67 	vcvt.f64.u32	d8, s15
    5bb8:	ee17 1a90 	vmov	r1, s15
    5bbc:	ee30 8b48 	vsub.f64	d8, d0, d8
	if (base == 0) {
    5bc0:	f7ff ff38 	bl	5a34 <Print::printNumber(unsigned long, unsigned char, unsigned char) [clone .part.0]>
    5bc4:	2c0f      	cmp	r4, #15
	count += printNumber(int_part, 10, sign);

	// Print the decimal point, but only if there are digits beyond
	if (digits > 0) {
		uint8_t n, buf[16], count=1;
		buf[0] = '.';
    5bc6:	f04f 032e 	mov.w	r3, #46	; 0x2e

		// Extract digits from the remainder one at a time
		if (digits > sizeof(buf) - 1) digits = sizeof(buf) - 1;

		while (digits-- > 0) {
			remainder *= 10.0;
    5bca:	eeb2 6b04 	vmov.f64	d6, #36	; 0x41200000  10.0
    5bce:	4606      	mov	r6, r0
		buf[0] = '.';
    5bd0:	bf28      	it	cs
    5bd2:	240f      	movcs	r4, #15
    5bd4:	f88d 3008 	strb.w	r3, [sp, #8]
		while (digits-- > 0) {
    5bd8:	f10d 0309 	add.w	r3, sp, #9
    5bdc:	aa02      	add	r2, sp, #8
    5bde:	1e61      	subs	r1, r4, #1
    5be0:	fa53 f181 	uxtab	r1, r3, r1
			remainder *= 10.0;
    5be4:	ee28 0b06 	vmul.f64	d0, d8, d6
			n = (uint8_t)(remainder);
    5be8:	eefc 7bc0 	vcvt.u32.f64	s15, d0
    5bec:	edcd 7a01 	vstr	s15, [sp, #4]
    5bf0:	f89d 3004 	ldrb.w	r3, [sp, #4]
			buf[count++] = '0' + n;
			remainder -= n; 
    5bf4:	ee07 3a90 	vmov	s15, r3
			buf[count++] = '0' + n;
    5bf8:	3330      	adds	r3, #48	; 0x30
			remainder -= n; 
    5bfa:	eeb8 8be7 	vcvt.f64.s32	d8, s15
			buf[count++] = '0' + n;
    5bfe:	f802 3f01 	strb.w	r3, [r2, #1]!
		while (digits-- > 0) {
    5c02:	4291      	cmp	r1, r2
			remainder -= n; 
    5c04:	ee30 8b48 	vsub.f64	d8, d0, d8
		while (digits-- > 0) {
    5c08:	d1ec      	bne.n	5be4 <Print::printFloat(double, unsigned char)+0xac>
		}
		count += write(buf, count);
    5c0a:	682b      	ldr	r3, [r5, #0]
			buf[count++] = '0' + n;
    5c0c:	3401      	adds	r4, #1
		count += write(buf, count);
    5c0e:	a902      	add	r1, sp, #8
    5c10:	4628      	mov	r0, r5
    5c12:	685b      	ldr	r3, [r3, #4]
    5c14:	b2e2      	uxtb	r2, r4
    5c16:	4798      	blx	r3
	}
	return count;
}
    5c18:	4630      	mov	r0, r6
    5c1a:	b006      	add	sp, #24
    5c1c:	ecbd 8b02 	vpop	{d8}
    5c20:	bd70      	pop	{r4, r5, r6, pc}
							  return write((const uint8_t *)str, strlen(str)); }
    5c22:	682b      	ldr	r3, [r5, #0]
    5c24:	2203      	movs	r2, #3
    5c26:	491a      	ldr	r1, [pc, #104]	; (5c90 <Print::printFloat(double, unsigned char)+0x158>)
    5c28:	685b      	ldr	r3, [r3, #4]
    5c2a:	b006      	add	sp, #24
    5c2c:	ecbd 8b02 	vpop	{d8}
    5c30:	e8bd 4070 	ldmia.w	sp!, {r4, r5, r6, lr}
    5c34:	4718      	bx	r3
    5c36:	6803      	ldr	r3, [r0, #0]
    5c38:	2203      	movs	r2, #3
    5c3a:	4916      	ldr	r1, [pc, #88]	; (5c94 <Print::printFloat(double, unsigned char)+0x15c>)
    5c3c:	e7f4      	b.n	5c28 <Print::printFloat(double, unsigned char)+0xf0>
		number = -number;
    5c3e:	eeb1 0b40 	vneg.f64	d0, d0
		sign = 1;
    5c42:	2301      	movs	r3, #1
    5c44:	e7a0      	b.n	5b88 <Print::printFloat(double, unsigned char)+0x50>
    5c46:	6803      	ldr	r3, [r0, #0]
    5c48:	2203      	movs	r2, #3
    5c4a:	4913      	ldr	r1, [pc, #76]	; (5c98 <Print::printFloat(double, unsigned char)+0x160>)
    5c4c:	e7ec      	b.n	5c28 <Print::printFloat(double, unsigned char)+0xf0>
	number += rounding;
    5c4e:	ee30 0b07 	vadd.f64	d0, d0, d7
    5c52:	220a      	movs	r2, #10
    5c54:	4628      	mov	r0, r5
    5c56:	eefc 7bc0 	vcvt.u32.f64	s15, d0
    5c5a:	ee17 1a90 	vmov	r1, s15
}
    5c5e:	b006      	add	sp, #24
    5c60:	ecbd 8b02 	vpop	{d8}
    5c64:	e8bd 4070 	ldmia.w	sp!, {r4, r5, r6, lr}
    5c68:	f7ff bee4 	b.w	5a34 <Print::printNumber(unsigned long, unsigned char, unsigned char) [clone .part.0]>
    5c6c:	f3af 8000 	nop.w
    5c70:	ffffffff 	.word	0xffffffff
    5c74:	7fefffff 	.word	0x7fefffff
    5c78:	e0000000 	.word	0xe0000000
    5c7c:	41efffff 	.word	0x41efffff
    5c80:	e0000000 	.word	0xe0000000
    5c84:	c1efffff 	.word	0xc1efffff
    5c88:	9999999a 	.word	0x9999999a
    5c8c:	3fb99999 	.word	0x3fb99999
    5c90:	200003b0 	.word	0x200003b0
    5c94:	200003ac 	.word	0x200003ac
    5c98:	200003a8 	.word	0x200003a8

00005c9c <teensy::inplace_function_detail::vtable<void>::vtable<void (*)()>(teensy::inplace_function_detail::wrapper<void (*)()>)::{lambda(void*)#1}::_FUN(void*)>:
        destructor_ptr{ [](storage_ptr_t) -> void {} }
    {}

    template<class C> explicit constexpr vtable(wrapper<C>) noexcept :
        invoke_ptr{ [](storage_ptr_t storage_ptr, Args&&... args) -> R
            { return (*static_cast<C*>(storage_ptr))(
    5c9c:	6803      	ldr	r3, [r0, #0]
    5c9e:	4718      	bx	r3

00005ca0 <teensy::inplace_function_detail::vtable<void>::vtable<void (*)()>(teensy::inplace_function_detail::wrapper<void (*)()>)::{lambda(void*, void*)#2}::_FUN(void*, void*)>:
                static_cast<Args&&>(args)...
            ); }
        },
        copy_ptr{ [](storage_ptr_t dst_ptr, storage_ptr_t src_ptr) -> void
            { ::new (dst_ptr) C{ (*static_cast<C*>(src_ptr)) }; }
    5ca0:	680b      	ldr	r3, [r1, #0]
    5ca2:	6003      	str	r3, [r0, #0]
        copy_ptr{ [](storage_ptr_t dst_ptr, storage_ptr_t src_ptr) -> void
    5ca4:	4770      	bx	lr
    5ca6:	bf00      	nop

00005ca8 <teensy::inplace_function_detail::vtable<void>::vtable<void (*)()>(teensy::inplace_function_detail::wrapper<void (*)()>)::{lambda(void*, void*)#3}::_FUN(void*, void*)>:
        },
        relocate_ptr{ [](storage_ptr_t dst_ptr, storage_ptr_t src_ptr) -> void
            {
                ::new (dst_ptr) C{ std::move(*static_cast<C*>(src_ptr)) };
    5ca8:	680b      	ldr	r3, [r1, #0]
    5caa:	6003      	str	r3, [r0, #0]
        relocate_ptr{ [](storage_ptr_t dst_ptr, storage_ptr_t src_ptr) -> void
    5cac:	4770      	bx	lr
    5cae:	bf00      	nop

00005cb0 <teensy::inplace_function_detail::vtable<void>::vtable<void (*)()>(teensy::inplace_function_detail::wrapper<void (*)()>)::{lambda(void*)#4}::_FUN(void*)>:
                static_cast<C*>(src_ptr)->~C();
            }
        },
        destructor_ptr{ [](storage_ptr_t src_ptr) -> void
    5cb0:	4770      	bx	lr
    5cb2:	bf00      	nop

00005cb4 <IntervalTimer::~IntervalTimer()>:
private:
	static const int32_t MAX_PERIOD = UINT32_MAX / (24000000 / 1000000); // need to change to int32_t to avoid warnings
public:
	constexpr IntervalTimer() {
	}
	~IntervalTimer() {
    5cb4:	b510      	push	{r4, lr}
    5cb6:	4604      	mov	r4, r0
		end();
    5cb8:	f002 f8c2 	bl	7e40 <IntervalTimer::end()>
	}
    5cbc:	4620      	mov	r0, r4
    5cbe:	bd10      	pop	{r4, pc}

00005cc0 <tone_interrupt()>:
	__enable_irq();
}


void tone_interrupt(void)
{
    5cc0:	b5f0      	push	{r4, r5, r6, r7, lr}
	if (tone_toggle_count) {  // odd = rising edge, even = falling edge
    5cc2:	4c30      	ldr	r4, [pc, #192]	; (5d84 <tone_interrupt()+0xc4>)
{
    5cc4:	b08d      	sub	sp, #52	; 0x34
		// not the end
		TONE_TOGGLE_PIN; // toggle
    5cc6:	4a30      	ldr	r2, [pc, #192]	; (5d88 <tone_interrupt()+0xc8>)
	if (tone_toggle_count) {  // odd = rising edge, even = falling edge
    5cc8:	6823      	ldr	r3, [r4, #0]
    5cca:	b153      	cbz	r3, 5ce2 <tone_interrupt()+0x22>
		TONE_TOGGLE_PIN; // toggle
    5ccc:	492f      	ldr	r1, [pc, #188]	; (5d8c <tone_interrupt()+0xcc>)
		tone_toggle_count--;
    5cce:	1e58      	subs	r0, r3, #1
		TONE_TOGGLE_PIN; // toggle
    5cd0:	6812      	ldr	r2, [r2, #0]
		if (tone_toggle_count == 0xFFFFFFFB) tone_toggle_count = 0xFFFFFFFD;
    5cd2:	3304      	adds	r3, #4
		TONE_TOGGLE_PIN; // toggle
    5cd4:	6809      	ldr	r1, [r1, #0]
    5cd6:	f8c2 108c 	str.w	r1, [r2, #140]	; 0x8c
		if (tone_toggle_count == 0xFFFFFFFB) tone_toggle_count = 0xFFFFFFFD;
    5cda:	d04b      	beq.n	5d74 <tone_interrupt()+0xb4>
		tone_toggle_count--;
    5cdc:	6020      	str	r0, [r4, #0]
			// finished playing
			tone_timer.end();
			tone_pin = 255;
		}
	}
}
    5cde:	b00d      	add	sp, #52	; 0x34
    5ce0:	bdf0      	pop	{r4, r5, r6, r7, pc}
		TONE_CLEAR_PIN; // clear
    5ce2:	4b2a      	ldr	r3, [pc, #168]	; (5d8c <tone_interrupt()+0xcc>)
		if (tone_new_count > 0) {
    5ce4:	4d2a      	ldr	r5, [pc, #168]	; (5d90 <tone_interrupt()+0xd0>)
		TONE_CLEAR_PIN; // clear
    5ce6:	6819      	ldr	r1, [r3, #0]
    5ce8:	6812      	ldr	r2, [r2, #0]
		if (tone_new_count > 0) {
    5cea:	682b      	ldr	r3, [r5, #0]
		TONE_CLEAR_PIN; // clear
    5cec:	f8c2 1088 	str.w	r1, [r2, #136]	; 0x88
		if (tone_new_count > 0) {
    5cf0:	2b00      	cmp	r3, #0
    5cf2:	d037      	beq.n	5d64 <tone_interrupt()+0xa4>
			tone_timer.begin(tone_interrupt, tone_usec);
    5cf4:	4927      	ldr	r1, [pc, #156]	; (5d94 <tone_interrupt()+0xd4>)
        static_assert(Alignment % alignof(C) == 0,
            "inplace_function cannot be constructed from object with this (large) alignment"
        );

        static const vtable_t vt{inplace_function_detail::wrapper<C>{}};
        vtable_ptr_ = std::addressof(vt);
    5cf6:	4b28      	ldr	r3, [pc, #160]	; (5d98 <tone_interrupt()+0xd8>)
    5cf8:	ed91 7a00 	vldr	s14, [r1]

        ::new (std::addressof(storage_)) C{std::forward<T>(closure)};
    5cfc:	4a27      	ldr	r2, [pc, #156]	; (5d9c <tone_interrupt()+0xdc>)

	template <typename period_t>
	uint32_t cyclesFromPeriod(period_t period) {
		static_assert(std::is_arithmetic_v<period_t>, "Period must be arithmetic");

		if (period < 0 || period > MAX_PERIOD)
    5cfe:	eeb5 7ac0 	vcmpe.f32	s14, #0.0
        vtable_ptr_ = std::addressof(vt);
    5d02:	9300      	str	r3, [sp, #0]
        ::new (std::addressof(storage_)) C{std::forward<T>(closure)};
    5d04:	9202      	str	r2, [sp, #8]
    5d06:	eef1 fa10 	vmrs	APSR_nzcv, fpscr
    5d0a:	d438      	bmi.n	5d7e <tone_interrupt()+0xbe>
    5d0c:	eddf 7a24 	vldr	s15, [pc, #144]	; 5da0 <tone_interrupt()+0xe0>
    5d10:	eeb4 7ae7 	vcmpe.f32	s14, s15
    5d14:	eef1 fa10 	vmrs	APSR_nzcv, fpscr
    5d18:	dc31      	bgt.n	5d7e <tone_interrupt()+0xbe>
			return 0;
		if constexpr (std::is_integral_v<period_t>)       // handles all integral types
			return (24000000 / 1000000) * period - 1;
		if constexpr (std::is_floating_point_v<period_t>) // handles all float types
			return (float)(24000000 / 1000000) * period - 0.5f;
    5d1a:	eef3 6a08 	vmov.f32	s13, #56	; 0x41c00000  24.0
    5d1e:	eefe 7a00 	vmov.f32	s15, #224	; 0xbf000000 -0.5
    5d22:	eee7 7a26 	vfma.f32	s15, s14, s13
    5d26:	eefc 7ae7 	vcvt.u32.f32	s15, s15
    5d2a:	ee17 6a90 	vmov	r6, s15
		return cycles >= 17 ? beginCycles(funct, cycles) : false;
    5d2e:	2e10      	cmp	r6, #16
    5d30:	d925      	bls.n	5d7e <tone_interrupt()+0xbe>
    {}

    inplace_function(const inplace_function& other) :
        vtable_ptr_{other.vtable_ptr_}
    {
        vtable_ptr_->copy_ptr(
    5d32:	af02      	add	r7, sp, #8
    5d34:	a808      	add	r0, sp, #32
        vtable_ptr_{other.vtable_ptr_}
    5d36:	9306      	str	r3, [sp, #24]
        vtable_ptr_->copy_ptr(
    5d38:	4639      	mov	r1, r7
    5d3a:	f7ff ffb1 	bl	5ca0 <teensy::inplace_function_detail::vtable<void>::vtable<void (*)()>(teensy::inplace_function_detail::wrapper<void (*)()>)::{lambda(void*, void*)#2}::_FUN(void*, void*)>
    5d3e:	4632      	mov	r2, r6
    5d40:	a906      	add	r1, sp, #24
    5d42:	4818      	ldr	r0, [pc, #96]	; (5da4 <tone_interrupt()+0xe4>)
    5d44:	f001 fffa 	bl	7d3c <IntervalTimer::beginCycles(teensy::inplace_function<void (), 16u, 8u>, unsigned long)>
        return *this;
    }

    ~inplace_function()
    {
        vtable_ptr_->destructor_ptr(std::addressof(storage_));
    5d48:	9b06      	ldr	r3, [sp, #24]
    5d4a:	a808      	add	r0, sp, #32
    5d4c:	68db      	ldr	r3, [r3, #12]
    5d4e:	4798      	blx	r3
    5d50:	9b00      	ldr	r3, [sp, #0]
    5d52:	68db      	ldr	r3, [r3, #12]
    5d54:	4638      	mov	r0, r7
    5d56:	4798      	blx	r3
			tone_toggle_count = tone_new_count;
    5d58:	682a      	ldr	r2, [r5, #0]
			tone_new_count = 0;
    5d5a:	2300      	movs	r3, #0
			tone_toggle_count = tone_new_count;
    5d5c:	6022      	str	r2, [r4, #0]
			tone_new_count = 0;
    5d5e:	602b      	str	r3, [r5, #0]
}
    5d60:	b00d      	add	sp, #52	; 0x34
    5d62:	bdf0      	pop	{r4, r5, r6, r7, pc}
			tone_timer.end();
    5d64:	480f      	ldr	r0, [pc, #60]	; (5da4 <tone_interrupt()+0xe4>)
    5d66:	f002 f86b 	bl	7e40 <IntervalTimer::end()>
			tone_pin = 255;
    5d6a:	4b0f      	ldr	r3, [pc, #60]	; (5da8 <tone_interrupt()+0xe8>)
    5d6c:	22ff      	movs	r2, #255	; 0xff
    5d6e:	701a      	strb	r2, [r3, #0]
}
    5d70:	b00d      	add	sp, #52	; 0x34
    5d72:	bdf0      	pop	{r4, r5, r6, r7, pc}
		if (tone_toggle_count == 0xFFFFFFFB) tone_toggle_count = 0xFFFFFFFD;
    5d74:	f06f 0302 	mvn.w	r3, #2
    5d78:	6023      	str	r3, [r4, #0]
}
    5d7a:	b00d      	add	sp, #52	; 0x34
    5d7c:	bdf0      	pop	{r4, r5, r6, r7, pc}
    5d7e:	4b0b      	ldr	r3, [pc, #44]	; (5dac <tone_interrupt()+0xec>)
    5d80:	af02      	add	r7, sp, #8
    5d82:	e7e7      	b.n	5d54 <tone_interrupt()+0x94>
    5d84:	20001dd4 	.word	0x20001dd4
    5d88:	20001dd8 	.word	0x20001dd8
    5d8c:	20001ddc 	.word	0x20001ddc
    5d90:	20001dd0 	.word	0x20001dd0
    5d94:	20001de0 	.word	0x20001de0
    5d98:	20000784 	.word	0x20000784
    5d9c:	00005cc1 	.word	0x00005cc1
    5da0:	4d2aaaab 	.word	0x4d2aaaab
    5da4:	20000d40 	.word	0x20000d40
    5da8:	20001432 	.word	0x20001432
    5dac:	00005cb1 	.word	0x00005cb1

00005db0 <tone(unsigned char, unsigned short, unsigned long)>:
	if (pin >= CORE_NUM_DIGITAL) return;
    5db0:	2827      	cmp	r0, #39	; 0x27
    5db2:	d876      	bhi.n	5ea2 <tone(unsigned char, unsigned short, unsigned long)+0xf2>
{
    5db4:	b5f0      	push	{r4, r5, r6, r7, lr}
    5db6:	b08d      	sub	sp, #52	; 0x34
	if (duration) {
    5db8:	2a00      	cmp	r2, #0
    5dba:	d157      	bne.n	5e6c <tone(unsigned char, unsigned short, unsigned long)+0xbc>
		count = 0xFFFFFFFD;
    5dbc:	f06f 0302 	mvn.w	r3, #2
	usec = (float)500000.0 / (float)frequency;
    5dc0:	2901      	cmp	r1, #1
	muxreg = portConfigRegister(pin);
    5dc2:	4a47      	ldr	r2, [pc, #284]	; (5ee0 <tone(unsigned char, unsigned short, unsigned long)+0x130>)
	usec = (float)500000.0 / (float)frequency;
    5dc4:	eddf 6a47 	vldr	s13, [pc, #284]	; 5ee4 <tone(unsigned char, unsigned short, unsigned long)+0x134>
	muxreg = portConfigRegister(pin);
    5dc8:	ea4f 1e00 	mov.w	lr, r0, lsl #4
	usec = (float)500000.0 / (float)frequency;
    5dcc:	bf38      	it	cc
    5dce:	2101      	movcc	r1, #1
    5dd0:	ee07 1a90 	vmov	s15, r1
	muxreg = portConfigRegister(pin);
    5dd4:	eb02 1100 	add.w	r1, r2, r0, lsl #4
	usec = (float)500000.0 / (float)frequency;
    5dd8:	eef8 7a67 	vcvt.f32.u32	s15, s15
	muxreg = portConfigRegister(pin);
    5ddc:	684c      	ldr	r4, [r1, #4]
	usec = (float)500000.0 / (float)frequency;
    5dde:	ee86 7aa7 	vdiv.f32	s14, s13, s15
	__disable_irq();
    5de2:	b672      	cpsid	i
	if (pin == tone_pin) {
    5de4:	4940      	ldr	r1, [pc, #256]	; (5ee8 <tone(unsigned char, unsigned short, unsigned long)+0x138>)
    5de6:	f891 c000 	ldrb.w	ip, [r1]
    5dea:	4584      	cmp	ip, r0
    5dec:	d05a      	beq.n	5ea4 <tone(unsigned char, unsigned short, unsigned long)+0xf4>
		if (tone_pin < CORE_NUM_DIGITAL) {
    5dee:	f1bc 0f27 	cmp.w	ip, #39	; 0x27
			TONE_CLEAR_PIN; // clear pin
    5df2:	4e3e      	ldr	r6, [pc, #248]	; (5eec <tone(unsigned char, unsigned short, unsigned long)+0x13c>)
    5df4:	f8df c11c 	ldr.w	ip, [pc, #284]	; 5f14 <tone(unsigned char, unsigned short, unsigned long)+0x164>
		if (tone_pin < CORE_NUM_DIGITAL) {
    5df8:	d804      	bhi.n	5e04 <tone(unsigned char, unsigned short, unsigned long)+0x54>
			TONE_CLEAR_PIN; // clear pin
    5dfa:	f8dc 5000 	ldr.w	r5, [ip]
    5dfe:	6837      	ldr	r7, [r6, #0]
    5e00:	f8c5 7088 	str.w	r7, [r5, #136]	; 0x88
		tone_pin = pin;
    5e04:	7008      	strb	r0, [r1, #0]
		tone_reg = portOutputRegister(pin);
    5e06:	eb02 000e 	add.w	r0, r2, lr
    5e0a:	f852 100e 	ldr.w	r1, [r2, lr]
		tone_mask = digitalPinToBitMask(pin);
    5e0e:	68c2      	ldr	r2, [r0, #12]
		if (period < 0 || period > MAX_PERIOD)
    5e10:	eddf 7a37 	vldr	s15, [pc, #220]	; 5ef0 <tone(unsigned char, unsigned short, unsigned long)+0x140>
		TONE_CLEAR_PIN; // clear pin
    5e14:	f8c1 2088 	str.w	r2, [r1, #136]	; 0x88
		TONE_OUTPUT_PIN; // output mode;
    5e18:	6848      	ldr	r0, [r1, #4]
    5e1a:	eeb4 7ae7 	vcmpe.f32	s14, s15
		tone_mask = digitalPinToBitMask(pin);
    5e1e:	6032      	str	r2, [r6, #0]
		TONE_OUTPUT_PIN; // output mode;
    5e20:	4302      	orrs	r2, r0
		tone_reg = portOutputRegister(pin);
    5e22:	f8cc 1000 	str.w	r1, [ip]
    5e26:	eef1 fa10 	vmrs	APSR_nzcv, fpscr
		*muxreg = 5;
    5e2a:	f04f 0005 	mov.w	r0, #5
		TONE_OUTPUT_PIN; // output mode;
    5e2e:	604a      	str	r2, [r1, #4]
		tone_toggle_count = count;
    5e30:	4a30      	ldr	r2, [pc, #192]	; (5ef4 <tone(unsigned char, unsigned short, unsigned long)+0x144>)
		tone_usec = usec;
    5e32:	4931      	ldr	r1, [pc, #196]	; (5ef8 <tone(unsigned char, unsigned short, unsigned long)+0x148>)
		tone_toggle_count = count;
    5e34:	6013      	str	r3, [r2, #0]
        vtable_ptr_ = std::addressof(vt);
    5e36:	4b31      	ldr	r3, [pc, #196]	; (5efc <tone(unsigned char, unsigned short, unsigned long)+0x14c>)
        ::new (std::addressof(storage_)) C{std::forward<T>(closure)};
    5e38:	4a31      	ldr	r2, [pc, #196]	; (5f00 <tone(unsigned char, unsigned short, unsigned long)+0x150>)
		*muxreg = 5;
    5e3a:	6020      	str	r0, [r4, #0]
		tone_usec = usec;
    5e3c:	ed81 7a00 	vstr	s14, [r1]
        vtable_ptr_ = std::addressof(vt);
    5e40:	9300      	str	r3, [sp, #0]
        ::new (std::addressof(storage_)) C{std::forward<T>(closure)};
    5e42:	9202      	str	r2, [sp, #8]
    5e44:	dc0b      	bgt.n	5e5e <tone(unsigned char, unsigned short, unsigned long)+0xae>
			return (float)(24000000 / 1000000) * period - 0.5f;
    5e46:	eef3 6a08 	vmov.f32	s13, #56	; 0x41c00000  24.0
    5e4a:	eefe 7a00 	vmov.f32	s15, #224	; 0xbf000000 -0.5
    5e4e:	eee7 7a26 	vfma.f32	s15, s14, s13
    5e52:	eefc 7ae7 	vcvt.u32.f32	s15, s15
    5e56:	ee17 4a90 	vmov	r4, s15
		return cycles >= 17 ? beginCycles(funct, cycles) : false;
    5e5a:	2c10      	cmp	r4, #16
    5e5c:	d80f      	bhi.n	5e7e <tone(unsigned char, unsigned short, unsigned long)+0xce>
    5e5e:	4b29      	ldr	r3, [pc, #164]	; (5f04 <tone(unsigned char, unsigned short, unsigned long)+0x154>)
    5e60:	ad02      	add	r5, sp, #8
        vtable_ptr_->destructor_ptr(std::addressof(storage_));
    5e62:	4628      	mov	r0, r5
    5e64:	4798      	blx	r3
	__enable_irq();
    5e66:	b662      	cpsie	i
}
    5e68:	b00d      	add	sp, #52	; 0x34
    5e6a:	bdf0      	pop	{r4, r5, r6, r7, pc}
		count = (frequency * duration / 1000) * 2;
    5e6c:	fb02 f301 	mul.w	r3, r2, r1
    5e70:	4a25      	ldr	r2, [pc, #148]	; (5f08 <tone(unsigned char, unsigned short, unsigned long)+0x158>)
    5e72:	fba2 2303 	umull	r2, r3, r2, r3
    5e76:	099b      	lsrs	r3, r3, #6
    5e78:	005b      	lsls	r3, r3, #1
		if (!(count & 1)) count++; // always full waveform cycles
    5e7a:	3301      	adds	r3, #1
    5e7c:	e7a0      	b.n	5dc0 <tone(unsigned char, unsigned short, unsigned long)+0x10>
        vtable_ptr_->copy_ptr(
    5e7e:	ad02      	add	r5, sp, #8
    5e80:	a808      	add	r0, sp, #32
        vtable_ptr_{other.vtable_ptr_}
    5e82:	9306      	str	r3, [sp, #24]
        vtable_ptr_->copy_ptr(
    5e84:	4629      	mov	r1, r5
    5e86:	f7ff ff0b 	bl	5ca0 <teensy::inplace_function_detail::vtable<void>::vtable<void (*)()>(teensy::inplace_function_detail::wrapper<void (*)()>)::{lambda(void*, void*)#2}::_FUN(void*, void*)>
    5e8a:	4622      	mov	r2, r4
    5e8c:	a906      	add	r1, sp, #24
    5e8e:	481f      	ldr	r0, [pc, #124]	; (5f0c <tone(unsigned char, unsigned short, unsigned long)+0x15c>)
    5e90:	f001 ff54 	bl	7d3c <IntervalTimer::beginCycles(teensy::inplace_function<void (), 16u, 8u>, unsigned long)>
        vtable_ptr_->destructor_ptr(std::addressof(storage_));
    5e94:	9b06      	ldr	r3, [sp, #24]
    5e96:	a808      	add	r0, sp, #32
    5e98:	68db      	ldr	r3, [r3, #12]
    5e9a:	4798      	blx	r3
    5e9c:	9b00      	ldr	r3, [sp, #0]
    5e9e:	68db      	ldr	r3, [r3, #12]
    }
    5ea0:	e7df      	b.n	5e62 <tone(unsigned char, unsigned short, unsigned long)+0xb2>
    5ea2:	4770      	bx	lr
		if (usec == tone_usec) {
    5ea4:	4a14      	ldr	r2, [pc, #80]	; (5ef8 <tone(unsigned char, unsigned short, unsigned long)+0x148>)
			tone_toggle_count = (tone_toggle_count & 1) + count - 1;
    5ea6:	4913      	ldr	r1, [pc, #76]	; (5ef4 <tone(unsigned char, unsigned short, unsigned long)+0x144>)
		if (usec == tone_usec) {
    5ea8:	edd2 7a00 	vldr	s15, [r2]
    5eac:	eef4 7a47 	vcmp.f32	s15, s14
    5eb0:	eef1 fa10 	vmrs	APSR_nzcv, fpscr
    5eb4:	d108      	bne.n	5ec8 <tone(unsigned char, unsigned short, unsigned long)+0x118>
			tone_toggle_count = (tone_toggle_count & 1) + count - 1;
    5eb6:	680a      	ldr	r2, [r1, #0]
    5eb8:	f002 0201 	and.w	r2, r2, #1
    5ebc:	3a01      	subs	r2, #1
    5ebe:	441a      	add	r2, r3
    5ec0:	600a      	str	r2, [r1, #0]
	__enable_irq();
    5ec2:	b662      	cpsie	i
}
    5ec4:	b00d      	add	sp, #52	; 0x34
    5ec6:	bdf0      	pop	{r4, r5, r6, r7, pc}
			tone_usec = usec;
    5ec8:	ed82 7a00 	vstr	s14, [r2]
			tone_toggle_count = (tone_toggle_count & 1);
    5ecc:	680a      	ldr	r2, [r1, #0]
			tone_new_count = count;
    5ece:	4810      	ldr	r0, [pc, #64]	; (5f10 <tone(unsigned char, unsigned short, unsigned long)+0x160>)
			tone_toggle_count = (tone_toggle_count & 1);
    5ed0:	f002 0201 	and.w	r2, r2, #1
			tone_new_count = count;
    5ed4:	6003      	str	r3, [r0, #0]
			tone_toggle_count = (tone_toggle_count & 1);
    5ed6:	600a      	str	r2, [r1, #0]
	__enable_irq();
    5ed8:	b662      	cpsie	i
}
    5eda:	b00d      	add	sp, #52	; 0x34
    5edc:	bdf0      	pop	{r4, r5, r6, r7, pc}
    5ede:	bf00      	nop
    5ee0:	200007a4 	.word	0x200007a4
    5ee4:	48f42400 	.word	0x48f42400
    5ee8:	20001432 	.word	0x20001432
    5eec:	20001ddc 	.word	0x20001ddc
    5ef0:	4d2aaaab 	.word	0x4d2aaaab
    5ef4:	20001dd4 	.word	0x20001dd4
    5ef8:	20001de0 	.word	0x20001de0
    5efc:	20000784 	.word	0x20000784
    5f00:	00005cc1 	.word	0x00005cc1
    5f04:	00005cb1 	.word	0x00005cb1
    5f08:	10624dd3 	.word	0x10624dd3
    5f0c:	20000d40 	.word	0x20000d40
    5f10:	20001dd0 	.word	0x20001dd0
    5f14:	20001dd8 	.word	0x20001dd8

00005f18 <noTone(unsigned char)>:

void noTone(uint8_t pin)
{
	if (pin >= CORE_NUM_DIGITAL) return;
    5f18:	2827      	cmp	r0, #39	; 0x27
    5f1a:	d807      	bhi.n	5f2c <noTone(unsigned char)+0x14>
{
    5f1c:	b510      	push	{r4, lr}
	__disable_irq();
    5f1e:	b672      	cpsid	i
	if (pin == tone_pin) {
    5f20:	4c09      	ldr	r4, [pc, #36]	; (5f48 <noTone(unsigned char)+0x30>)
    5f22:	7823      	ldrb	r3, [r4, #0]
    5f24:	4283      	cmp	r3, r0
    5f26:	d002      	beq.n	5f2e <noTone(unsigned char)+0x16>
		tone_timer.end();
		TONE_CLEAR_PIN; // clear
		tone_pin = 255;
	}
	__enable_irq();
    5f28:	b662      	cpsie	i
}
    5f2a:	bd10      	pop	{r4, pc}
    5f2c:	4770      	bx	lr
		tone_timer.end();
    5f2e:	4807      	ldr	r0, [pc, #28]	; (5f4c <noTone(unsigned char)+0x34>)
    5f30:	f001 ff86 	bl	7e40 <IntervalTimer::end()>
		TONE_CLEAR_PIN; // clear
    5f34:	4b06      	ldr	r3, [pc, #24]	; (5f50 <noTone(unsigned char)+0x38>)
    5f36:	4a07      	ldr	r2, [pc, #28]	; (5f54 <noTone(unsigned char)+0x3c>)
		tone_pin = 255;
    5f38:	21ff      	movs	r1, #255	; 0xff
		TONE_CLEAR_PIN; // clear
    5f3a:	681b      	ldr	r3, [r3, #0]
    5f3c:	6812      	ldr	r2, [r2, #0]
		tone_pin = 255;
    5f3e:	7021      	strb	r1, [r4, #0]
		TONE_CLEAR_PIN; // clear
    5f40:	f8c3 2088 	str.w	r2, [r3, #136]	; 0x88
	__enable_irq();
    5f44:	b662      	cpsie	i
}
    5f46:	bd10      	pop	{r4, pc}
    5f48:	20001432 	.word	0x20001432
    5f4c:	20000d40 	.word	0x20000d40
    5f50:	20001dd8 	.word	0x20001dd8
    5f54:	20001ddc 	.word	0x20001ddc

00005f58 <_GLOBAL__sub_I__Z4tonehtm>:
static IntervalTimer tone_timer;
    5f58:	4a02      	ldr	r2, [pc, #8]	; (5f64 <_GLOBAL__sub_I__Z4tonehtm+0xc>)
    5f5a:	4903      	ldr	r1, [pc, #12]	; (5f68 <_GLOBAL__sub_I__Z4tonehtm+0x10>)
    5f5c:	4803      	ldr	r0, [pc, #12]	; (5f6c <_GLOBAL__sub_I__Z4tonehtm+0x14>)
    5f5e:	f002 b887 	b.w	8070 <__aeabi_atexit>
    5f62:	bf00      	nop
    5f64:	20000db4 	.word	0x20000db4
    5f68:	00005cb5 	.word	0x00005cb5
    5f6c:	20000d40 	.word	0x20000d40

00005f70 <String::String(char const*)>:
String::String(const char *cstr)
    5f70:	b5f8      	push	{r3, r4, r5, r6, r7, lr}
	buffer = NULL;
    5f72:	2600      	movs	r6, #0
String::String(const char *cstr)
    5f74:	4604      	mov	r4, r0
	capacity = 0;
    5f76:	e9c0 6600 	strd	r6, r6, [r0]
	len = 0;
    5f7a:	6086      	str	r6, [r0, #8]
	if (cstr) copy(cstr, strlen(cstr));
    5f7c:	b129      	cbz	r1, 5f8a <String::String(char const*)+0x1a>
    5f7e:	4608      	mov	r0, r1
    5f80:	460d      	mov	r5, r1
    5f82:	f002 fcbd 	bl	8900 <strlen>
	if (length == 0) {
    5f86:	4607      	mov	r7, r0
    5f88:	b908      	cbnz	r0, 5f8e <String::String(char const*)+0x1e>
}
    5f8a:	4620      	mov	r0, r4
    5f8c:	bdf8      	pop	{r3, r4, r5, r6, r7, pc}
	char *newbuffer = (char *)realloc(buffer, maxStrLen + 1);
    5f8e:	3001      	adds	r0, #1
    5f90:	f002 f874 	bl	807c <malloc>
	if (newbuffer) {
    5f94:	2800      	cmp	r0, #0
    5f96:	d0f8      	beq.n	5f8a <String::String(char const*)+0x1a>
	strcpy(buffer, cstr);
    5f98:	4629      	mov	r1, r5
		if (len == 0) buffer[0] = 0;
    5f9a:	7006      	strb	r6, [r0, #0]
		buffer = newbuffer;
    5f9c:	6020      	str	r0, [r4, #0]
	len = length;
    5f9e:	e9c4 7701 	strd	r7, r7, [r4, #4]
	strcpy(buffer, cstr);
    5fa2:	f002 fc47 	bl	8834 <strcpy>
}
    5fa6:	4620      	mov	r0, r4
    5fa8:	bdf8      	pop	{r3, r4, r5, r6, r7, pc}
    5faa:	bf00      	nop

00005fac <String::~String()>:
String::~String()
    5fac:	b510      	push	{r4, lr}
    5fae:	4604      	mov	r4, r0
	free(buffer);
    5fb0:	6800      	ldr	r0, [r0, #0]
    5fb2:	f002 f86b 	bl	808c <free>
}
    5fb6:	4620      	mov	r0, r4
    5fb8:	bd10      	pop	{r4, pc}
    5fba:	bf00      	nop

00005fbc <String::operator=(String&&)>:
	if (this != &rval) move(rval);
    5fbc:	4288      	cmp	r0, r1
{
    5fbe:	b538      	push	{r3, r4, r5, lr}
    5fc0:	4605      	mov	r5, r0
	if (this != &rval) move(rval);
    5fc2:	d00e      	beq.n	5fe2 <String::operator=(String&&)+0x26>
	if (buffer) free(buffer);
    5fc4:	6800      	ldr	r0, [r0, #0]
    5fc6:	460c      	mov	r4, r1
    5fc8:	b108      	cbz	r0, 5fce <String::operator=(String&&)+0x12>
    5fca:	f002 f85f 	bl	808c <free>
	len = rhs.len;
    5fce:	68a0      	ldr	r0, [r4, #8]
	rhs.buffer = NULL;
    5fd0:	2300      	movs	r3, #0
	capacity = rhs.capacity;
    5fd2:	e9d4 1200 	ldrd	r1, r2, [r4]
	len = rhs.len;
    5fd6:	60a8      	str	r0, [r5, #8]
	capacity = rhs.capacity;
    5fd8:	e9c5 1200 	strd	r1, r2, [r5]
	rhs.capacity = 0;
    5fdc:	e9c4 3300 	strd	r3, r3, [r4]
	rhs.len = 0;
    5fe0:	60a3      	str	r3, [r4, #8]
}
    5fe2:	4628      	mov	r0, r5
    5fe4:	bd38      	pop	{r3, r4, r5, pc}
    5fe6:	bf00      	nop

00005fe8 <String::getBytes(unsigned char*, unsigned int, unsigned int) const>:
	if (!bufsize || !buf) return;
    5fe8:	b1c2      	cbz	r2, 601c <String::getBytes(unsigned char*, unsigned int, unsigned int) const+0x34>
{
    5fea:	b570      	push	{r4, r5, r6, lr}
	if (!bufsize || !buf) return;
    5fec:	fab1 f681 	clz	r6, r1
    5ff0:	460c      	mov	r4, r1
    5ff2:	0976      	lsrs	r6, r6, #5
    5ff4:	b119      	cbz	r1, 5ffe <String::getBytes(unsigned char*, unsigned int, unsigned int) const+0x16>
	if (index >= len) {
    5ff6:	6885      	ldr	r5, [r0, #8]
    5ff8:	429d      	cmp	r5, r3
    5ffa:	d801      	bhi.n	6000 <String::getBytes(unsigned char*, unsigned int, unsigned int) const+0x18>
		buf[0] = 0;
    5ffc:	700e      	strb	r6, [r1, #0]
}
    5ffe:	bd70      	pop	{r4, r5, r6, pc}
	if (n > len - index) n = len - index;
    6000:	1aed      	subs	r5, r5, r3
	unsigned int n = bufsize - 1;
    6002:	f102 3cff 	add.w	ip, r2, #4294967295
	strncpy((char *)buf, buffer + index, n);
    6006:	6801      	ldr	r1, [r0, #0]
    6008:	4620      	mov	r0, r4
    600a:	4565      	cmp	r5, ip
    600c:	4419      	add	r1, r3
    600e:	bf28      	it	cs
    6010:	4665      	movcs	r5, ip
    6012:	462a      	mov	r2, r5
    6014:	f002 fb9c 	bl	8750 <strncpy>
	buf[n] = 0;
    6018:	5566      	strb	r6, [r4, r5]
}
    601a:	bd70      	pop	{r4, r5, r6, pc}
    601c:	4770      	bx	lr
    601e:	bf00      	nop

00006020 <set_arm_clock>:
	uint32_t cbcmr = CCM_CBCMR; // pg 1023
	uint32_t dcdc = DCDC_REG3;

	// compute required voltage
	uint32_t voltage = 1150; // default = 1.15V
	if (frequency > 528000000) {
    6020:	49a2      	ldr	r1, [pc, #648]	; (62ac <set_arm_clock+0x28c>)
	uint32_t cbcdr = CCM_CBCDR; // pg 1021
    6022:	4ba3      	ldr	r3, [pc, #652]	; (62b0 <set_arm_clock+0x290>)
	if (frequency > 528000000) {
    6024:	4288      	cmp	r0, r1
{
    6026:	e92d 47f0 	stmdb	sp!, {r4, r5, r6, r7, r8, r9, sl, lr}
	uint32_t dcdc = DCDC_REG3;
    602a:	4ca2      	ldr	r4, [pc, #648]	; (62b4 <set_arm_clock+0x294>)
	uint32_t cbcdr = CCM_CBCDR; // pg 1021
    602c:	695e      	ldr	r6, [r3, #20]
	uint32_t cbcmr = CCM_CBCMR; // pg 1023
    602e:	699a      	ldr	r2, [r3, #24]
	uint32_t dcdc = DCDC_REG3;
    6030:	f8d4 800c 	ldr.w	r8, [r4, #12]
	if (frequency > 528000000) {
    6034:	d91b      	bls.n	606e <set_arm_clock+0x4e>
		voltage = 1250; // 1.25V
#if defined(OVERCLOCK_STEPSIZE) && defined(OVERCLOCK_MAX_VOLT)
		if (frequency > 600000000) {
    6036:	4ba0      	ldr	r3, [pc, #640]	; (62b8 <set_arm_clock+0x298>)
    6038:	4298      	cmp	r0, r3
    603a:	f240 8102 	bls.w	6242 <set_arm_clock+0x222>
			voltage += ((frequency - 600000000) / OVERCLOCK_STEPSIZE) * 25;
    603e:	1ac3      	subs	r3, r0, r3
    6040:	499e      	ldr	r1, [pc, #632]	; (62bc <set_arm_clock+0x29c>)
    6042:	0a1b      	lsrs	r3, r3, #8
    6044:	fba1 1303 	umull	r1, r3, r1, r3
		voltage = 950; // 0.95
	}

	// if voltage needs to increase, do it before switch clock speed
	CCM_CCGR6 |= CCM_CCGR6_DCDC(CCM_CCGR_ON);
	if ((dcdc & DCDC_REG3_TRG_MASK) < DCDC_REG3_TRG((voltage - 800) / 25)) {
    6048:	f240 6127 	movw	r1, #1575	; 0x627
			voltage += ((frequency - 600000000) / OVERCLOCK_STEPSIZE) * 25;
    604c:	09db      	lsrs	r3, r3, #7
    604e:	eb03 0383 	add.w	r3, r3, r3, lsl #2
    6052:	eb03 0383 	add.w	r3, r3, r3, lsl #2
    6056:	f203 43e2 	addw	r3, r3, #1250	; 0x4e2
	if ((dcdc & DCDC_REG3_TRG_MASK) < DCDC_REG3_TRG((voltage - 800) / 25)) {
    605a:	428b      	cmp	r3, r1
    605c:	bf28      	it	cs
    605e:	460b      	movcs	r3, r1
    6060:	f5a3 7748 	sub.w	r7, r3, #800	; 0x320
    6064:	4b96      	ldr	r3, [pc, #600]	; (62c0 <set_arm_clock+0x2a0>)
    6066:	fba3 3707 	umull	r3, r7, r3, r7
    606a:	08ff      	lsrs	r7, r7, #3
    606c:	e004      	b.n	6078 <set_arm_clock+0x58>
	} else if (frequency <= 24000000) {
    606e:	4f95      	ldr	r7, [pc, #596]	; (62c4 <set_arm_clock+0x2a4>)
    6070:	42b8      	cmp	r0, r7
    6072:	bf8c      	ite	hi
    6074:	270e      	movhi	r7, #14
    6076:	2706      	movls	r7, #6
	CCM_CCGR6 |= CCM_CCGR6_DCDC(CCM_CCGR_ON);
    6078:	498d      	ldr	r1, [pc, #564]	; (62b0 <set_arm_clock+0x290>)
	if ((dcdc & DCDC_REG3_TRG_MASK) < DCDC_REG3_TRG((voltage - 800) / 25)) {
    607a:	f008 091f 	and.w	r9, r8, #31
	CCM_CCGR6 |= CCM_CCGR6_DCDC(CCM_CCGR_ON);
    607e:	f8d1 3080 	ldr.w	r3, [r1, #128]	; 0x80
	if ((dcdc & DCDC_REG3_TRG_MASK) < DCDC_REG3_TRG((voltage - 800) / 25)) {
    6082:	45b9      	cmp	r9, r7
	CCM_CCGR6 |= CCM_CCGR6_DCDC(CCM_CCGR_ON);
    6084:	f043 03c0 	orr.w	r3, r3, #192	; 0xc0
    6088:	f8c1 3080 	str.w	r3, [r1, #128]	; 0x80
	if ((dcdc & DCDC_REG3_TRG_MASK) < DCDC_REG3_TRG((voltage - 800) / 25)) {
    608c:	d20c      	bcs.n	60a8 <set_arm_clock+0x88>
		printf("Increasing voltage to %u mV\n", voltage);
		dcdc &= ~DCDC_REG3_TRG_MASK;
    608e:	f028 081f 	bic.w	r8, r8, #31
		dcdc |= DCDC_REG3_TRG((voltage - 800) / 25);
		DCDC_REG3 = dcdc;
    6092:	f5a1 21f8 	sub.w	r1, r1, #507904	; 0x7c000
		dcdc |= DCDC_REG3_TRG((voltage - 800) / 25);
    6096:	ea48 0807 	orr.w	r8, r8, r7
		DCDC_REG3 = dcdc;
    609a:	f8c1 800c 	str.w	r8, [r1, #12]
		while (!(DCDC_REG0 & DCDC_REG0_STS_DC_OK)) ; // wait voltage settling
    609e:	680b      	ldr	r3, [r1, #0]
    60a0:	2b00      	cmp	r3, #0
    60a2:	dafc      	bge.n	609e <set_arm_clock+0x7e>
	scale_cpu_cycles_to_microseconds = 0xFFFFFFFFu / (uint32_t)(frequency / 1000000u);

	printf("New Frequency: ARM=%u, IPG=%u\n", frequency, frequency / div_ipg);

	// if voltage needs to decrease, do it after switch clock speed
	if ((dcdc & DCDC_REG3_TRG_MASK) > DCDC_REG3_TRG((voltage - 800) / 25)) {
    60a4:	f008 091f 	and.w	r9, r8, #31
	if (!(cbcdr & CCM_CBCDR_PERIPH_CLK_SEL)) {
    60a8:	f016 7300 	ands.w	r3, r6, #33554432	; 0x2000000
    60ac:	d124      	bne.n	60f8 <set_arm_clock+0xd8>
		if ((CCM_ANALOG_PLL_USB1 & need1s) == need1s) {
    60ae:	4986      	ldr	r1, [pc, #536]	; (62c8 <set_arm_clock+0x2a8>)
    60b0:	690c      	ldr	r4, [r1, #16]
    60b2:	4986      	ldr	r1, [pc, #536]	; (62cc <set_arm_clock+0x2ac>)
    60b4:	43a1      	bics	r1, r4
    60b6:	f000 80ea 	beq.w	628e <set_arm_clock+0x26e>
		if ((cbcmr & CCM_CBCMR_PERIPH_CLK2_SEL_MASK) != CCM_CBCMR_PERIPH_CLK2_SEL(sel)) {
    60ba:	f482 5180 	eor.w	r1, r2, #4096	; 0x1000
    60be:	4634      	mov	r4, r6
    60c0:	f44f 5580 	mov.w	r5, #4096	; 0x1000
		if ((cbcdr & CCM_CBCDR_PERIPH_CLK2_PODF_MASK) != CCM_CBCDR_PERIPH_CLK2_PODF(div)) {
    60c4:	f014 5f60 	tst.w	r4, #939524096	; 0x38000000
    60c8:	d004      	beq.n	60d4 <set_arm_clock+0xb4>
			cbcdr &= ~CCM_CBCDR_PERIPH_CLK2_PODF_MASK;
    60ca:	f026 5660 	bic.w	r6, r6, #939524096	; 0x38000000
			cbcdr |= CCM_CBCDR_PERIPH_CLK2_PODF(div);
    60ce:	431e      	orrs	r6, r3
			CCM_CBCDR = cbcdr;
    60d0:	4b77      	ldr	r3, [pc, #476]	; (62b0 <set_arm_clock+0x290>)
    60d2:	615e      	str	r6, [r3, #20]
		if ((cbcmr & CCM_CBCMR_PERIPH_CLK2_SEL_MASK) != CCM_CBCMR_PERIPH_CLK2_SEL(sel)) {
    60d4:	f411 5f40 	tst.w	r1, #12288	; 0x3000
    60d8:	d007      	beq.n	60ea <set_arm_clock+0xca>
			cbcmr &= ~CCM_CBCMR_PERIPH_CLK2_SEL_MASK;
    60da:	f422 5240 	bic.w	r2, r2, #12288	; 0x3000
			CCM_CBCMR = cbcmr;
    60de:	4974      	ldr	r1, [pc, #464]	; (62b0 <set_arm_clock+0x290>)
			cbcmr |= CCM_CBCMR_PERIPH_CLK2_SEL(sel);
    60e0:	432a      	orrs	r2, r5
			CCM_CBCMR = cbcmr;
    60e2:	618a      	str	r2, [r1, #24]
			while (CCM_CDHIPR & CCM_CDHIPR_PERIPH2_CLK_SEL_BUSY) ; // wait
    60e4:	6c8b      	ldr	r3, [r1, #72]	; 0x48
    60e6:	071a      	lsls	r2, r3, #28
    60e8:	d4fc      	bmi.n	60e4 <set_arm_clock+0xc4>
		cbcdr |= CCM_CBCDR_PERIPH_CLK_SEL;
    60ea:	f046 7600 	orr.w	r6, r6, #33554432	; 0x2000000
		CCM_CBCDR = cbcdr;
    60ee:	4a70      	ldr	r2, [pc, #448]	; (62b0 <set_arm_clock+0x290>)
    60f0:	6156      	str	r6, [r2, #20]
		while (CCM_CDHIPR & CCM_CDHIPR_PERIPH_CLK_SEL_BUSY) ; // wait
    60f2:	6c93      	ldr	r3, [r2, #72]	; 0x48
    60f4:	069b      	lsls	r3, r3, #26
    60f6:	d4fc      	bmi.n	60f2 <set_arm_clock+0xd2>
	while (frequency * div_arm * div_ahb < 648000000) {
    60f8:	4c75      	ldr	r4, [pc, #468]	; (62d0 <set_arm_clock+0x2b0>)
    60fa:	42a0      	cmp	r0, r4
    60fc:	f200 80ce 	bhi.w	629c <set_arm_clock+0x27c>
	uint32_t div_ahb = 1;
    6100:	f04f 0c01 	mov.w	ip, #1
    6104:	4601      	mov	r1, r0
	uint32_t div_arm = 1;
    6106:	4663      	mov	r3, ip
	while (frequency * div_arm * div_ahb < 648000000) {
    6108:	fb03 1201 	mla	r2, r3, r1, r1
			div_arm = div_arm + 1;
    610c:	f103 0e01 	add.w	lr, r3, #1
				div_ahb = div_ahb + 1;
    6110:	f10c 0501 	add.w	r5, ip, #1
	while (frequency * div_arm * div_ahb < 648000000) {
    6114:	42a2      	cmp	r2, r4
    6116:	d818      	bhi.n	614a <set_arm_clock+0x12a>
		if (div_arm < 8) {
    6118:	f1be 0f08 	cmp.w	lr, #8
				div_arm = 1;
    611c:	f04f 0301 	mov.w	r3, #1
		if (div_arm < 8) {
    6120:	f040 808d 	bne.w	623e <set_arm_clock+0x21e>
			if (div_ahb < 5) {
    6124:	f1bc 0f04 	cmp.w	ip, #4
    6128:	f200 8091 	bhi.w	624e <set_arm_clock+0x22e>
	while (frequency * div_arm * div_ahb < 648000000) {
    612c:	180a      	adds	r2, r1, r0
    612e:	42a2      	cmp	r2, r4
    6130:	f200 80a4 	bhi.w	627c <set_arm_clock+0x25c>
    6134:	fb05 f100 	mul.w	r1, r5, r0
				div_ahb = div_ahb + 1;
    6138:	46ac      	mov	ip, r5
			div_arm = div_arm + 1;
    613a:	f103 0e01 	add.w	lr, r3, #1
	while (frequency * div_arm * div_ahb < 648000000) {
    613e:	fb03 1201 	mla	r2, r3, r1, r1
				div_ahb = div_ahb + 1;
    6142:	f10c 0501 	add.w	r5, ip, #1
	while (frequency * div_arm * div_ahb < 648000000) {
    6146:	42a2      	cmp	r2, r4
    6148:	d9e6      	bls.n	6118 <set_arm_clock+0xf8>
	if ((cbcdr & CCM_CBCDR_AHB_PODF_MASK) != CCM_CBCDR_AHB_PODF(div_ahb - 1)) {
    614a:	f10c 31ff 	add.w	r1, ip, #4294967295
    614e:	028c      	lsls	r4, r1, #10
    6150:	ea86 2181 	eor.w	r1, r6, r1, lsl #10
	uint32_t mult = (frequency * div_arm * div_ahb + 6000000) / 12000000;
    6154:	485f      	ldr	r0, [pc, #380]	; (62d4 <set_arm_clock+0x2b4>)
    6156:	4410      	add	r0, r2
	if (mult > 108) mult = 108;
    6158:	4a5f      	ldr	r2, [pc, #380]	; (62d8 <set_arm_clock+0x2b8>)
    615a:	4290      	cmp	r0, r2
    615c:	d97f      	bls.n	625e <set_arm_clock+0x23e>
    615e:	f8df a1a4 	ldr.w	sl, [pc, #420]	; 6304 <set_arm_clock+0x2e4>
    6162:	226c      	movs	r2, #108	; 0x6c
    6164:	485d      	ldr	r0, [pc, #372]	; (62dc <set_arm_clock+0x2bc>)
	if ((CCM_ANALOG_PLL_ARM & arm_pll_mask) != (CCM_ANALOG_PLL_ARM_LOCK
    6166:	4d58      	ldr	r5, [pc, #352]	; (62c8 <set_arm_clock+0x2a8>)
	frequency = mult * 12000000 / div_arm / div_ahb;
    6168:	fbb0 f0fe 	udiv	r0, r0, lr
	if ((CCM_ANALOG_PLL_ARM & arm_pll_mask) != (CCM_ANALOG_PLL_ARM_LOCK
    616c:	f8d5 e000 	ldr.w	lr, [r5]
	frequency = mult * 12000000 / div_arm / div_ahb;
    6170:	fbb0 f0fc 	udiv	r0, r0, ip
	if ((CCM_ANALOG_PLL_ARM & arm_pll_mask) != (CCM_ANALOG_PLL_ARM_LOCK
    6174:	f8df c190 	ldr.w	ip, [pc, #400]	; 6308 <set_arm_clock+0x2e8>
    6178:	ea0e 0c0c 	and.w	ip, lr, ip
    617c:	45d4      	cmp	ip, sl
    617e:	d009      	beq.n	6194 <set_arm_clock+0x174>
			| CCM_ANALOG_PLL_ARM_DIV_SELECT(mult);
    6180:	f442 5200 	orr.w	r2, r2, #8192	; 0x2000
		CCM_ANALOG_PLL_ARM = CCM_ANALOG_PLL_ARM_POWERDOWN;
    6184:	f44f 5c80 	mov.w	ip, #4096	; 0x1000
    6188:	f8c5 c000 	str.w	ip, [r5]
		CCM_ANALOG_PLL_ARM = CCM_ANALOG_PLL_ARM_ENABLE
    618c:	602a      	str	r2, [r5, #0]
		while (!(CCM_ANALOG_PLL_ARM & CCM_ANALOG_PLL_ARM_LOCK)) ; // wait for lock
    618e:	682a      	ldr	r2, [r5, #0]
    6190:	2a00      	cmp	r2, #0
    6192:	dafc      	bge.n	618e <set_arm_clock+0x16e>
	if ((CCM_CACRR & CCM_CACRR_ARM_PODF_MASK) != (div_arm - 1)) {
    6194:	4a46      	ldr	r2, [pc, #280]	; (62b0 <set_arm_clock+0x290>)
    6196:	6915      	ldr	r5, [r2, #16]
    6198:	f005 0507 	and.w	r5, r5, #7
    619c:	429d      	cmp	r5, r3
    619e:	d003      	beq.n	61a8 <set_arm_clock+0x188>
		CCM_CACRR = CCM_CACRR_ARM_PODF(div_arm - 1);
    61a0:	6113      	str	r3, [r2, #16]
		while (CCM_CDHIPR & CCM_CDHIPR_ARM_PODF_BUSY) ; // wait
    61a2:	6c93      	ldr	r3, [r2, #72]	; 0x48
    61a4:	03dd      	lsls	r5, r3, #15
    61a6:	d4fc      	bmi.n	61a2 <set_arm_clock+0x182>
	if ((cbcdr & CCM_CBCDR_AHB_PODF_MASK) != CCM_CBCDR_AHB_PODF(div_ahb - 1)) {
    61a8:	f411 5fe0 	tst.w	r1, #7168	; 0x1c00
    61ac:	d009      	beq.n	61c2 <set_arm_clock+0x1a2>
		cbcdr &= ~CCM_CBCDR_AHB_PODF_MASK;
    61ae:	f426 56e0 	bic.w	r6, r6, #7168	; 0x1c00
		cbcdr |= CCM_CBCDR_AHB_PODF(div_ahb - 1);
    61b2:	f404 54e0 	and.w	r4, r4, #7168	; 0x1c00
		CCM_CBCDR = cbcdr;
    61b6:	4a3e      	ldr	r2, [pc, #248]	; (62b0 <set_arm_clock+0x290>)
		cbcdr |= CCM_CBCDR_AHB_PODF(div_ahb - 1);
    61b8:	4326      	orrs	r6, r4
		CCM_CBCDR = cbcdr;
    61ba:	6156      	str	r6, [r2, #20]
		while (CCM_CDHIPR & CCM_CDHIPR_AHB_PODF_BUSY); // wait
    61bc:	6c93      	ldr	r3, [r2, #72]	; 0x48
    61be:	0799      	lsls	r1, r3, #30
    61c0:	d4fc      	bmi.n	61bc <set_arm_clock+0x19c>
	uint32_t div_ipg = (frequency + 149999999) / 150000000;
    61c2:	4947      	ldr	r1, [pc, #284]	; (62e0 <set_arm_clock+0x2c0>)
	if (div_ipg > 4) div_ipg = 4;
    61c4:	4a47      	ldr	r2, [pc, #284]	; (62e4 <set_arm_clock+0x2c4>)
	uint32_t div_ipg = (frequency + 149999999) / 150000000;
    61c6:	4401      	add	r1, r0
	if (div_ipg > 4) div_ipg = 4;
    61c8:	4291      	cmp	r1, r2
    61ca:	d83c      	bhi.n	6246 <set_arm_clock+0x226>
	uint32_t div_ipg = (frequency + 149999999) / 150000000;
    61cc:	4b46      	ldr	r3, [pc, #280]	; (62e8 <set_arm_clock+0x2c8>)
    61ce:	09c9      	lsrs	r1, r1, #7
    61d0:	fba3 3101 	umull	r3, r1, r3, r1
    61d4:	0b09      	lsrs	r1, r1, #12
	if ((cbcdr & CCM_CBCDR_IPG_PODF_MASK) != (CCM_CBCDR_IPG_PODF(div_ipg - 1))) {
    61d6:	1e4b      	subs	r3, r1, #1
    61d8:	021b      	lsls	r3, r3, #8
    61da:	ea86 0203 	eor.w	r2, r6, r3
    61de:	f412 7f40 	tst.w	r2, #768	; 0x300
    61e2:	d006      	beq.n	61f2 <set_arm_clock+0x1d2>
		cbcdr &= ~CCM_CBCDR_IPG_PODF_MASK;
    61e4:	f426 7640 	bic.w	r6, r6, #768	; 0x300
		cbcdr |= CCM_CBCDR_IPG_PODF(div_ipg - 1);
    61e8:	f403 7340 	and.w	r3, r3, #768	; 0x300
		CCM_CBCDR = cbcdr;
    61ec:	4a30      	ldr	r2, [pc, #192]	; (62b0 <set_arm_clock+0x290>)
		cbcdr |= CCM_CBCDR_IPG_PODF(div_ipg - 1);
    61ee:	4333      	orrs	r3, r6
		CCM_CBCDR = cbcdr;
    61f0:	6153      	str	r3, [r2, #20]
	CCM_CBCDR &= ~CCM_CBCDR_PERIPH_CLK_SEL;
    61f2:	4a2f      	ldr	r2, [pc, #188]	; (62b0 <set_arm_clock+0x290>)
    61f4:	6953      	ldr	r3, [r2, #20]
    61f6:	f023 7300 	bic.w	r3, r3, #33554432	; 0x2000000
    61fa:	6153      	str	r3, [r2, #20]
	while (CCM_CDHIPR & CCM_CDHIPR_PERIPH_CLK_SEL_BUSY) ; // wait
    61fc:	6c93      	ldr	r3, [r2, #72]	; 0x48
    61fe:	069b      	lsls	r3, r3, #26
    6200:	d4fc      	bmi.n	61fc <set_arm_clock+0x1dc>
	scale_cpu_cycles_to_microseconds = 0xFFFFFFFFu / (uint32_t)(frequency / 1000000u);
    6202:	4b3a      	ldr	r3, [pc, #232]	; (62ec <set_arm_clock+0x2cc>)
	if ((dcdc & DCDC_REG3_TRG_MASK) > DCDC_REG3_TRG((voltage - 800) / 25)) {
    6204:	454f      	cmp	r7, r9
	scale_cpu_cycles_to_microseconds = 0xFFFFFFFFu / (uint32_t)(frequency / 1000000u);
    6206:	fba3 2300 	umull	r2, r3, r3, r0
    620a:	f04f 32ff 	mov.w	r2, #4294967295
    620e:	ea4f 4393 	mov.w	r3, r3, lsr #18
	F_BUS_ACTUAL = frequency / div_ipg;
    6212:	fbb0 f1f1 	udiv	r1, r0, r1
	scale_cpu_cycles_to_microseconds = 0xFFFFFFFFu / (uint32_t)(frequency / 1000000u);
    6216:	fbb2 f3f3 	udiv	r3, r2, r3
	F_CPU_ACTUAL = frequency;
    621a:	4a35      	ldr	r2, [pc, #212]	; (62f0 <set_arm_clock+0x2d0>)
    621c:	6010      	str	r0, [r2, #0]
	F_BUS_ACTUAL = frequency / div_ipg;
    621e:	4a35      	ldr	r2, [pc, #212]	; (62f4 <set_arm_clock+0x2d4>)
    6220:	6011      	str	r1, [r2, #0]
	scale_cpu_cycles_to_microseconds = 0xFFFFFFFFu / (uint32_t)(frequency / 1000000u);
    6222:	4a35      	ldr	r2, [pc, #212]	; (62f8 <set_arm_clock+0x2d8>)
    6224:	6013      	str	r3, [r2, #0]
	if ((dcdc & DCDC_REG3_TRG_MASK) > DCDC_REG3_TRG((voltage - 800) / 25)) {
    6226:	d208      	bcs.n	623a <set_arm_clock+0x21a>
		printf("Decreasing voltage to %u mV\n", voltage);
		dcdc &= ~DCDC_REG3_TRG_MASK;
    6228:	f028 081f 	bic.w	r8, r8, #31
		dcdc |= DCDC_REG3_TRG((voltage - 800) / 25);
		DCDC_REG3 = dcdc;
    622c:	4a21      	ldr	r2, [pc, #132]	; (62b4 <set_arm_clock+0x294>)
		dcdc |= DCDC_REG3_TRG((voltage - 800) / 25);
    622e:	ea48 0707 	orr.w	r7, r8, r7
		DCDC_REG3 = dcdc;
    6232:	60d7      	str	r7, [r2, #12]
		while (!(DCDC_REG0 & DCDC_REG0_STS_DC_OK)) ; // wait voltage settling
    6234:	6813      	ldr	r3, [r2, #0]
    6236:	2b00      	cmp	r3, #0
    6238:	dafc      	bge.n	6234 <set_arm_clock+0x214>
	}

	return frequency;
}
    623a:	e8bd 87f0 	ldmia.w	sp!, {r4, r5, r6, r7, r8, r9, sl, pc}
    623e:	4673      	mov	r3, lr
    6240:	e762      	b.n	6108 <set_arm_clock+0xe8>
    6242:	2712      	movs	r7, #18
    6244:	e718      	b.n	6078 <set_arm_clock+0x58>
    6246:	f44f 7340 	mov.w	r3, #768	; 0x300
	if (div_ipg > 4) div_ipg = 4;
    624a:	2104      	movs	r1, #4
    624c:	e7c5      	b.n	61da <set_arm_clock+0x1ba>
	if ((cbcdr & CCM_CBCDR_AHB_PODF_MASK) != CCM_CBCDR_AHB_PODF(div_ahb - 1)) {
    624e:	f10c 31ff 	add.w	r1, ip, #4294967295
	uint32_t mult = (frequency * div_arm * div_ahb + 6000000) / 12000000;
    6252:	4820      	ldr	r0, [pc, #128]	; (62d4 <set_arm_clock+0x2b4>)
    6254:	2307      	movs	r3, #7
	if ((cbcdr & CCM_CBCDR_AHB_PODF_MASK) != CCM_CBCDR_AHB_PODF(div_ahb - 1)) {
    6256:	028c      	lsls	r4, r1, #10
	uint32_t mult = (frequency * div_arm * div_ahb + 6000000) / 12000000;
    6258:	4410      	add	r0, r2
	if ((cbcdr & CCM_CBCDR_AHB_PODF_MASK) != CCM_CBCDR_AHB_PODF(div_ahb - 1)) {
    625a:	ea86 2181 	eor.w	r1, r6, r1, lsl #10
	uint32_t mult = (frequency * div_arm * div_ahb + 6000000) / 12000000;
    625e:	4a27      	ldr	r2, [pc, #156]	; (62fc <set_arm_clock+0x2dc>)
	  | CCM_ANALOG_PLL_ARM_ENABLE | CCM_ANALOG_PLL_ARM_DIV_SELECT(mult))) {
    6260:	f8df a0a8 	ldr.w	sl, [pc, #168]	; 630c <set_arm_clock+0x2ec>
	uint32_t mult = (frequency * div_arm * div_ahb + 6000000) / 12000000;
    6264:	fba2 2000 	umull	r2, r0, r2, r0
    6268:	0d02      	lsrs	r2, r0, #20
	frequency = mult * 12000000 / div_arm / div_ahb;
    626a:	4825      	ldr	r0, [pc, #148]	; (6300 <set_arm_clock+0x2e0>)
    626c:	2a36      	cmp	r2, #54	; 0x36
    626e:	bf38      	it	cc
    6270:	2236      	movcc	r2, #54	; 0x36
    6272:	fb02 f000 	mul.w	r0, r2, r0
	  | CCM_ANALOG_PLL_ARM_ENABLE | CCM_ANALOG_PLL_ARM_DIV_SELECT(mult))) {
    6276:	ea42 0a0a 	orr.w	sl, r2, sl
    627a:	e774      	b.n	6166 <set_arm_clock+0x146>
	if ((cbcdr & CCM_CBCDR_AHB_PODF_MASK) != CCM_CBCDR_AHB_PODF(div_ahb - 1)) {
    627c:	ea4f 248c 	mov.w	r4, ip, lsl #10
    6280:	2300      	movs	r3, #0
    6282:	ea86 218c 	eor.w	r1, r6, ip, lsl #10
				div_arm = 1;
    6286:	f04f 0e01 	mov.w	lr, #1
				div_ahb = div_ahb + 1;
    628a:	46ac      	mov	ip, r5
    628c:	e762      	b.n	6154 <set_arm_clock+0x134>
		if ((cbcdr & CCM_CBCDR_PERIPH_CLK2_PODF_MASK) != CCM_CBCDR_PERIPH_CLK2_PODF(div)) {
    628e:	461d      	mov	r5, r3
    6290:	f086 54c0 	eor.w	r4, r6, #402653184	; 0x18000000
    6294:	4611      	mov	r1, r2
    6296:	f04f 53c0 	mov.w	r3, #402653184	; 0x18000000
    629a:	e713      	b.n	60c4 <set_arm_clock+0xa4>
	while (frequency * div_arm * div_ahb < 648000000) {
    629c:	2400      	movs	r4, #0
	uint32_t div_ahb = 1;
    629e:	f04f 0c01 	mov.w	ip, #1
	while (frequency * div_arm * div_ahb < 648000000) {
    62a2:	4602      	mov	r2, r0
    62a4:	4631      	mov	r1, r6
    62a6:	4623      	mov	r3, r4
	uint32_t div_arm = 1;
    62a8:	46e6      	mov	lr, ip
    62aa:	e753      	b.n	6154 <set_arm_clock+0x134>
    62ac:	1f78a400 	.word	0x1f78a400
    62b0:	400fc000 	.word	0x400fc000
    62b4:	40080000 	.word	0x40080000
    62b8:	23c34600 	.word	0x23c34600
    62bc:	004cb223 	.word	0x004cb223
    62c0:	51eb851f 	.word	0x51eb851f
    62c4:	016e3600 	.word	0x016e3600
    62c8:	400d8000 	.word	0x400d8000
    62cc:	80003040 	.word	0x80003040
    62d0:	269fb1ff 	.word	0x269fb1ff
    62d4:	005b8d80 	.word	0x005b8d80
    62d8:	4df67eff 	.word	0x4df67eff
    62dc:	4d3f6400 	.word	0x4d3f6400
    62e0:	08f0d17f 	.word	0x08f0d17f
    62e4:	2cb4177f 	.word	0x2cb4177f
    62e8:	00e5109f 	.word	0x00e5109f
    62ec:	431bde83 	.word	0x431bde83
    62f0:	20000cdc 	.word	0x20000cdc
    62f4:	20000cd8 	.word	0x20000cd8
    62f8:	20002344 	.word	0x20002344
    62fc:	165e9f81 	.word	0x165e9f81
    6300:	00b71b00 	.word	0x00b71b00
    6304:	8000206c 	.word	0x8000206c
    6308:	8001307f 	.word	0x8001307f
    630c:	80002000 	.word	0x80002000

00006310 <delay>:
// or delayNanoseconds().
void delay(uint32_t msec)
{
	uint32_t start;

	if (msec == 0) return;
    6310:	b900      	cbnz	r0, 6314 <delay+0x4>
    6312:	4770      	bx	lr
{
    6314:	e92d 4ff8 	stmdb	sp!, {r3, r4, r5, r6, r7, r8, r9, sl, fp, lr}
 */
__attribute__( ( always_inline ) ) __STATIC_INLINE uint32_t __STREXW(uint32_t value, volatile uint32_t *addr)
{
   uint32_t result;

   __ASM volatile ("strex %0, %2, [%1]" : "=&r" (result) : "r" (addr), "r" (value) );
    6318:	2101      	movs	r1, #1
    631a:	4681      	mov	r9, r0
    631c:	4c21      	ldr	r4, [pc, #132]	; (63a4 <delay+0x94>)
    631e:	4d22      	ldr	r5, [pc, #136]	; (63a8 <delay+0x98>)
    6320:	4e22      	ldr	r6, [pc, #136]	; (63ac <delay+0x9c>)
   __ASM volatile ("ldrex %0, [%1]" : "=r" (result) : "r" (addr) );
    6322:	e854 3f00 	ldrex	r3, [r4]
uint32_t micros(void)
{
	uint32_t smc, scc;
	do {
		__LDREXW(&systick_safe_read);
		smc = systick_millis_count;
    6326:	682a      	ldr	r2, [r5, #0]
		scc = systick_cycle_count;
    6328:	6830      	ldr	r0, [r6, #0]
   __ASM volatile ("strex %0, %2, [%1]" : "=&r" (result) : "r" (addr), "r" (value) );
    632a:	e844 1300 	strex	r3, r1, [r4]
	} while ( __STREXW(1, &systick_safe_read));
    632e:	2b00      	cmp	r3, #0
    6330:	d1f7      	bne.n	6322 <delay+0x12>
	uint32_t cyccnt = ARM_DWT_CYCCNT;
    6332:	491f      	ldr	r1, [pc, #124]	; (63b0 <delay+0xa0>)
    6334:	684b      	ldr	r3, [r1, #4]
	asm volatile("" : : : "memory");
	uint32_t ccdelta = cyccnt - scc;
	uint32_t frac = ((uint64_t)ccdelta * scale_cpu_cycles_to_microseconds) >> 32;
	if (frac > 1000) frac = 1000;
	uint32_t usec = 1000*smc + frac;
    6336:	f44f 7b7a 	mov.w	fp, #1000	; 0x3e8
	uint32_t frac = ((uint64_t)ccdelta * scale_cpu_cycles_to_microseconds) >> 32;
    633a:	f8df a078 	ldr.w	sl, [pc, #120]	; 63b4 <delay+0xa4>
	uint32_t ccdelta = cyccnt - scc;
    633e:	1a1b      	subs	r3, r3, r0
    6340:	2701      	movs	r7, #1
	uint32_t usec = 1000*smc + frac;
    6342:	fb0b f802 	mul.w	r8, fp, r2
	uint32_t frac = ((uint64_t)ccdelta * scale_cpu_cycles_to_microseconds) >> 32;
    6346:	f8da 2000 	ldr.w	r2, [sl]
    634a:	fba3 3202 	umull	r3, r2, r3, r2
	uint32_t usec = 1000*smc + frac;
    634e:	455a      	cmp	r2, fp
    6350:	bf94      	ite	ls
    6352:	4490      	addls	r8, r2
    6354:	44d8      	addhi	r8, fp
   __ASM volatile ("ldrex %0, [%1]" : "=r" (result) : "r" (addr) );
    6356:	e854 3f00 	ldrex	r3, [r4]
		smc = systick_millis_count;
    635a:	682a      	ldr	r2, [r5, #0]
		scc = systick_cycle_count;
    635c:	6830      	ldr	r0, [r6, #0]
   __ASM volatile ("strex %0, %2, [%1]" : "=&r" (result) : "r" (addr), "r" (value) );
    635e:	e844 7300 	strex	r3, r7, [r4]
	} while ( __STREXW(1, &systick_safe_read));
    6362:	2b00      	cmp	r3, #0
    6364:	d1f7      	bne.n	6356 <delay+0x46>
	uint32_t cyccnt = ARM_DWT_CYCCNT;
    6366:	684b      	ldr	r3, [r1, #4]
	uint32_t frac = ((uint64_t)ccdelta * scale_cpu_cycles_to_microseconds) >> 32;
    6368:	f8da c000 	ldr.w	ip, [sl]
	uint32_t ccdelta = cyccnt - scc;
    636c:	1a1b      	subs	r3, r3, r0
	uint32_t usec = 1000*smc + frac;
    636e:	fb0b f202 	mul.w	r2, fp, r2
	uint32_t frac = ((uint64_t)ccdelta * scale_cpu_cycles_to_microseconds) >> 32;
    6372:	fba3 3c0c 	umull	r3, ip, r3, ip
	uint32_t usec = 1000*smc + frac;
    6376:	f5bc 7f7a 	cmp.w	ip, #1000	; 0x3e8
    637a:	bf94      	ite	ls
    637c:	4462      	addls	r2, ip
    637e:	f502 727a 	addhi.w	r2, r2, #1000	; 0x3e8
		while ((micros() - start) >= 1000) {
    6382:	eba2 0208 	sub.w	r2, r2, r8
    6386:	f5b2 7f7a 	cmp.w	r2, #1000	; 0x3e8
    638a:	d306      	bcc.n	639a <delay+0x8a>
			if (--msec == 0) return;
    638c:	f1b9 0901 	subs.w	r9, r9, #1
			start += 1000;
    6390:	f508 787a 	add.w	r8, r8, #1000	; 0x3e8
			if (--msec == 0) return;
    6394:	d1df      	bne.n	6356 <delay+0x46>
}
    6396:	e8bd 8ff8 	ldmia.w	sp!, {r3, r4, r5, r6, r7, r8, r9, sl, fp, pc}
		yield();
    639a:	f001 fc09 	bl	7bb0 <yield>
		while ((micros() - start) >= 1000) {
    639e:	4904      	ldr	r1, [pc, #16]	; (63b0 <delay+0xa0>)
    63a0:	e7d9      	b.n	6356 <delay+0x46>
    63a2:	bf00      	nop
    63a4:	20002350 	.word	0x20002350
    63a8:	2000234c 	.word	0x2000234c
    63ac:	20002348 	.word	0x20002348
    63b0:	e0001000 	.word	0xe0001000
    63b4:	20002344 	.word	0x20002344

000063b8 <micros>:
{
    63b8:	b430      	push	{r4, r5}
    63ba:	4b0f      	ldr	r3, [pc, #60]	; (63f8 <micros+0x40>)
    63bc:	f04f 0c01 	mov.w	ip, #1
    63c0:	4d0e      	ldr	r5, [pc, #56]	; (63fc <micros+0x44>)
    63c2:	4c0f      	ldr	r4, [pc, #60]	; (6400 <micros+0x48>)
   __ASM volatile ("ldrex %0, [%1]" : "=r" (result) : "r" (addr) );
    63c4:	e853 2f00 	ldrex	r2, [r3]
		smc = systick_millis_count;
    63c8:	6828      	ldr	r0, [r5, #0]
		scc = systick_cycle_count;
    63ca:	6821      	ldr	r1, [r4, #0]
   __ASM volatile ("strex %0, %2, [%1]" : "=&r" (result) : "r" (addr), "r" (value) );
    63cc:	e843 c200 	strex	r2, ip, [r3]
	} while ( __STREXW(1, &systick_safe_read));
    63d0:	2a00      	cmp	r2, #0
    63d2:	d1f7      	bne.n	63c4 <micros+0xc>
	uint32_t cyccnt = ARM_DWT_CYCCNT;
    63d4:	4b0b      	ldr	r3, [pc, #44]	; (6404 <micros+0x4c>)
    63d6:	685b      	ldr	r3, [r3, #4]
	uint32_t frac = ((uint64_t)ccdelta * scale_cpu_cycles_to_microseconds) >> 32;
    63d8:	4a0b      	ldr	r2, [pc, #44]	; (6408 <micros+0x50>)
	uint32_t ccdelta = cyccnt - scc;
    63da:	1a5b      	subs	r3, r3, r1
	uint32_t usec = 1000*smc + frac;
    63dc:	f44f 717a 	mov.w	r1, #1000	; 0x3e8
	uint32_t frac = ((uint64_t)ccdelta * scale_cpu_cycles_to_microseconds) >> 32;
    63e0:	6812      	ldr	r2, [r2, #0]
	uint32_t usec = 1000*smc + frac;
    63e2:	fb01 f000 	mul.w	r0, r1, r0
	uint32_t frac = ((uint64_t)ccdelta * scale_cpu_cycles_to_microseconds) >> 32;
    63e6:	fba3 3202 	umull	r3, r2, r3, r2
	return usec;
}
    63ea:	bc30      	pop	{r4, r5}
    63ec:	428a      	cmp	r2, r1
    63ee:	bf94      	ite	ls
    63f0:	1880      	addls	r0, r0, r2
    63f2:	1840      	addhi	r0, r0, r1
    63f4:	4770      	bx	lr
    63f6:	bf00      	nop
    63f8:	20002350 	.word	0x20002350
    63fc:	2000234c 	.word	0x2000234c
    6400:	20002348 	.word	0x20002348
    6404:	e0001000 	.word	0xe0001000
    6408:	20002344 	.word	0x20002344

0000640c <digitalWrite>:
void digitalWrite(uint8_t pin, uint8_t val)
{
	const struct digital_pin_bitband_and_config_table_struct *p;
	uint32_t pinmode, mask;

	if (pin >= CORE_NUM_DIGITAL) return;
    640c:	2827      	cmp	r0, #39	; 0x27
    640e:	d816      	bhi.n	643e <digitalWrite+0x32>
	p = digital_pin_to_info_PGM + pin;
    6410:	0102      	lsls	r2, r0, #4
    6412:	4b10      	ldr	r3, [pc, #64]	; (6454 <digitalWrite+0x48>)
    6414:	eb03 1000 	add.w	r0, r3, r0, lsl #4
	pinmode = *(p->reg + 1);
    6418:	589b      	ldr	r3, [r3, r2]
{
    641a:	b410      	push	{r4}
	mask = p->mask;
    641c:	68c2      	ldr	r2, [r0, #12]
	pinmode = *(p->reg + 1);
    641e:	685c      	ldr	r4, [r3, #4]
	if (pinmode & mask) {
    6420:	4214      	tst	r4, r2
    6422:	d005      	beq.n	6430 <digitalWrite+0x24>
		// pin is configured for output mode
		if (val) {
    6424:	b961      	cbnz	r1, 6440 <digitalWrite+0x34>
			*(p->pad) = IOMUXC_PAD_DSE(7) | IOMUXC_PAD_PKE | IOMUXC_PAD_PUE | IOMUXC_PAD_PUS(3) | IOMUXC_PAD_HYS;
		} else {
			*(p->pad) = IOMUXC_PAD_DSE(7) | IOMUXC_PAD_PKE | IOMUXC_PAD_PUE | IOMUXC_PAD_PUS(0) | IOMUXC_PAD_HYS;
		}
	}
}
    6426:	f85d 4b04 	ldr.w	r4, [sp], #4
			*(p->reg + 0x22) = mask; // clear register
    642a:	f8c3 2088 	str.w	r2, [r3, #136]	; 0x88
}
    642e:	4770      	bx	lr
			*(p->pad) = IOMUXC_PAD_DSE(7) | IOMUXC_PAD_PKE | IOMUXC_PAD_PUE | IOMUXC_PAD_PUS(3) | IOMUXC_PAD_HYS;
    6430:	6883      	ldr	r3, [r0, #8]
		if (val) {
    6432:	b151      	cbz	r1, 644a <digitalWrite+0x3e>
			*(p->pad) = IOMUXC_PAD_DSE(7) | IOMUXC_PAD_PKE | IOMUXC_PAD_PUE | IOMUXC_PAD_PUS(3) | IOMUXC_PAD_HYS;
    6434:	4a08      	ldr	r2, [pc, #32]	; (6458 <digitalWrite+0x4c>)
}
    6436:	f85d 4b04 	ldr.w	r4, [sp], #4
			*(p->pad) = IOMUXC_PAD_DSE(7) | IOMUXC_PAD_PKE | IOMUXC_PAD_PUE | IOMUXC_PAD_PUS(3) | IOMUXC_PAD_HYS;
    643a:	601a      	str	r2, [r3, #0]
}
    643c:	4770      	bx	lr
    643e:	4770      	bx	lr
    6440:	f85d 4b04 	ldr.w	r4, [sp], #4
			*(p->reg + 0x21) = mask; // set register
    6444:	f8c3 2084 	str.w	r2, [r3, #132]	; 0x84
}
    6448:	4770      	bx	lr
			*(p->pad) = IOMUXC_PAD_DSE(7) | IOMUXC_PAD_PKE | IOMUXC_PAD_PUE | IOMUXC_PAD_PUS(0) | IOMUXC_PAD_HYS;
    644a:	4a04      	ldr	r2, [pc, #16]	; (645c <digitalWrite+0x50>)
}
    644c:	f85d 4b04 	ldr.w	r4, [sp], #4
			*(p->pad) = IOMUXC_PAD_DSE(7) | IOMUXC_PAD_PKE | IOMUXC_PAD_PUE | IOMUXC_PAD_PUS(0) | IOMUXC_PAD_HYS;
    6450:	601a      	str	r2, [r3, #0]
}
    6452:	4770      	bx	lr
    6454:	200007a4 	.word	0x200007a4
    6458:	0001f038 	.word	0x0001f038
    645c:	00013038 	.word	0x00013038

00006460 <digitalRead>:

uint8_t digitalRead(uint8_t pin)
{
	const struct digital_pin_bitband_and_config_table_struct *p;

	if (pin >= CORE_NUM_DIGITAL) return 0;
    6460:	2827      	cmp	r0, #39	; 0x27
    6462:	d80b      	bhi.n	647c <digitalRead+0x1c>
	p = digital_pin_to_info_PGM + pin;
    6464:	4b06      	ldr	r3, [pc, #24]	; (6480 <digitalRead+0x20>)
    6466:	0102      	lsls	r2, r0, #4
    6468:	eb03 1000 	add.w	r0, r3, r0, lsl #4
	return (*(p->reg + 2) & p->mask) ? 1 : 0;
    646c:	589a      	ldr	r2, [r3, r2]
    646e:	68c3      	ldr	r3, [r0, #12]
    6470:	6892      	ldr	r2, [r2, #8]
    6472:	421a      	tst	r2, r3
    6474:	bf14      	ite	ne
    6476:	2001      	movne	r0, #1
    6478:	2000      	moveq	r0, #0
    647a:	4770      	bx	lr
	if (pin >= CORE_NUM_DIGITAL) return 0;
    647c:	2000      	movs	r0, #0
}
    647e:	4770      	bx	lr
    6480:	200007a4 	.word	0x200007a4

00006484 <pinMode>:

void pinMode(uint8_t pin, uint8_t mode)
{
	const struct digital_pin_bitband_and_config_table_struct *p;

	if (pin >= CORE_NUM_DIGITAL) return;
    6484:	2827      	cmp	r0, #39	; 0x27
    6486:	d829      	bhi.n	64dc <pinMode+0x58>
	p = digital_pin_to_info_PGM + pin;
    6488:	4b16      	ldr	r3, [pc, #88]	; (64e4 <pinMode+0x60>)
    648a:	0102      	lsls	r2, r0, #4
	if (mode == OUTPUT || mode == OUTPUT_OPENDRAIN) {
    648c:	2901      	cmp	r1, #1
	p = digital_pin_to_info_PGM + pin;
    648e:	eb03 1000 	add.w	r0, r3, r0, lsl #4
			*(p->pad) = IOMUXC_PAD_DSE(7);
		} else { // OUTPUT_OPENDRAIN
			*(p->pad) = IOMUXC_PAD_DSE(7) | IOMUXC_PAD_ODE;
		}
	} else {
		*(p->reg + 1) &= ~(p->mask); // TODO: atomic
    6492:	589a      	ldr	r2, [r3, r2]
{
    6494:	b410      	push	{r4}
		*(p->reg + 1) &= ~(p->mask); // TODO: atomic
    6496:	6853      	ldr	r3, [r2, #4]
    6498:	68c4      	ldr	r4, [r0, #12]
	if (mode == OUTPUT || mode == OUTPUT_OPENDRAIN) {
    649a:	d00e      	beq.n	64ba <pinMode+0x36>
    649c:	2904      	cmp	r1, #4
    649e:	d00c      	beq.n	64ba <pinMode+0x36>
		*(p->reg + 1) &= ~(p->mask); // TODO: atomic
    64a0:	ea23 0304 	bic.w	r3, r3, r4
    64a4:	6053      	str	r3, [r2, #4]
		if (mode == INPUT) {
			*(p->pad) = IOMUXC_PAD_DSE(7);
    64a6:	6883      	ldr	r3, [r0, #8]
		if (mode == INPUT) {
    64a8:	b1a9      	cbz	r1, 64d6 <pinMode+0x52>
		} else if (mode == INPUT_PULLUP) {
    64aa:	2902      	cmp	r1, #2
    64ac:	d017      	beq.n	64de <pinMode+0x5a>
			*(p->pad) = IOMUXC_PAD_DSE(7) | IOMUXC_PAD_PKE | IOMUXC_PAD_PUE | IOMUXC_PAD_PUS(3) | IOMUXC_PAD_HYS;
		} else if (mode == INPUT_PULLDOWN) {
    64ae:	2903      	cmp	r1, #3
			*(p->pad) = IOMUXC_PAD_DSE(7) | IOMUXC_PAD_PKE | IOMUXC_PAD_PUE | IOMUXC_PAD_PUS(0) | IOMUXC_PAD_HYS;
    64b0:	bf0c      	ite	eq
    64b2:	4a0d      	ldreq	r2, [pc, #52]	; (64e8 <pinMode+0x64>)
		} else { // INPUT_DISABLE
			*(p->pad) = IOMUXC_PAD_DSE(7) | IOMUXC_PAD_HYS;
    64b4:	4a0d      	ldrne	r2, [pc, #52]	; (64ec <pinMode+0x68>)
    64b6:	601a      	str	r2, [r3, #0]
    64b8:	e007      	b.n	64ca <pinMode+0x46>
		*(p->reg + 1) |= p->mask; // TODO: atomic
    64ba:	4323      	orrs	r3, r4
		if (mode == OUTPUT) {
    64bc:	2901      	cmp	r1, #1
		*(p->reg + 1) |= p->mask; // TODO: atomic
    64be:	6053      	str	r3, [r2, #4]
			*(p->pad) = IOMUXC_PAD_DSE(7);
    64c0:	6883      	ldr	r3, [r0, #8]
		if (mode == OUTPUT) {
    64c2:	d008      	beq.n	64d6 <pinMode+0x52>
			*(p->pad) = IOMUXC_PAD_DSE(7) | IOMUXC_PAD_ODE;
    64c4:	f640 0238 	movw	r2, #2104	; 0x838
    64c8:	601a      	str	r2, [r3, #0]
		}
	}
	*(p->mux) = 5 | 0x10;
    64ca:	6843      	ldr	r3, [r0, #4]
    64cc:	2215      	movs	r2, #21
}
    64ce:	f85d 4b04 	ldr.w	r4, [sp], #4
	*(p->mux) = 5 | 0x10;
    64d2:	601a      	str	r2, [r3, #0]
}
    64d4:	4770      	bx	lr
			*(p->pad) = IOMUXC_PAD_DSE(7);
    64d6:	2238      	movs	r2, #56	; 0x38
    64d8:	601a      	str	r2, [r3, #0]
    64da:	e7f6      	b.n	64ca <pinMode+0x46>
    64dc:	4770      	bx	lr
			*(p->pad) = IOMUXC_PAD_DSE(7) | IOMUXC_PAD_PKE | IOMUXC_PAD_PUE | IOMUXC_PAD_PUS(3) | IOMUXC_PAD_HYS;
    64de:	4a04      	ldr	r2, [pc, #16]	; (64f0 <pinMode+0x6c>)
    64e0:	601a      	str	r2, [r3, #0]
    64e2:	e7f2      	b.n	64ca <pinMode+0x46>
    64e4:	200007a4 	.word	0x200007a4
    64e8:	00013038 	.word	0x00013038
    64ec:	00010038 	.word	0x00010038
    64f0:	0001f038 	.word	0x0001f038

000064f4 <pulseIn_high>:
        return value;
}

//(*portInputRegister(pin) & digitalPinToBitMask(pin))
uint32_t pulseIn_high(uint8_t pin, uint32_t timeout)
{
    64f4:	b570      	push	{r4, r5, r6, lr}
	const struct digital_pin_bitband_and_config_table_struct *p;
	p = digital_pin_to_info_PGM + pin;
    64f6:	4c1a      	ldr	r4, [pc, #104]	; (6560 <pulseIn_high+0x6c>)
{
    64f8:	460d      	mov	r5, r1
	p = digital_pin_to_info_PGM + pin;
    64fa:	eb04 1400 	add.w	r4, r4, r0, lsl #4

	uint32_t usec_start, usec_stop;

	// wait for any previous pulse to end
	usec_start = micros();
    64fe:	f7ff ff5b 	bl	63b8 <micros>
    6502:	4606      	mov	r6, r0
	while ((*(p->reg + 2) & p->mask)) {
    6504:	e004      	b.n	6510 <pulseIn_high+0x1c>
		if (micros()-usec_start > timeout) return 0;
    6506:	f7ff ff57 	bl	63b8 <micros>
    650a:	1b80      	subs	r0, r0, r6
    650c:	42a8      	cmp	r0, r5
    650e:	d824      	bhi.n	655a <pulseIn_high+0x66>
	while ((*(p->reg + 2) & p->mask)) {
    6510:	6822      	ldr	r2, [r4, #0]
    6512:	68e3      	ldr	r3, [r4, #12]
    6514:	6892      	ldr	r2, [r2, #8]
    6516:	421a      	tst	r2, r3
    6518:	d1f5      	bne.n	6506 <pulseIn_high+0x12>
	}
	// wait for the pulse to start
	usec_start = micros();
    651a:	f7ff ff4d 	bl	63b8 <micros>
    651e:	4606      	mov	r6, r0
	while (!(*(p->reg + 2) & p->mask)) {
    6520:	e004      	b.n	652c <pulseIn_high+0x38>
		if (micros()-usec_start > timeout) return 0;
    6522:	f7ff ff49 	bl	63b8 <micros>
    6526:	1b80      	subs	r0, r0, r6
    6528:	42a8      	cmp	r0, r5
    652a:	d816      	bhi.n	655a <pulseIn_high+0x66>
	while (!(*(p->reg + 2) & p->mask)) {
    652c:	6822      	ldr	r2, [r4, #0]
    652e:	68e3      	ldr	r3, [r4, #12]
    6530:	6892      	ldr	r2, [r2, #8]
    6532:	421a      	tst	r2, r3
    6534:	d0f5      	beq.n	6522 <pulseIn_high+0x2e>
	}
	usec_start = micros();
    6536:	f7ff ff3f 	bl	63b8 <micros>
    653a:	4606      	mov	r6, r0
	// wait for the pulse to stop
	while ((*(p->reg + 2) & p->mask)) {
    653c:	e004      	b.n	6548 <pulseIn_high+0x54>
		if (micros()-usec_start > timeout) return 0;
    653e:	f7ff ff3b 	bl	63b8 <micros>
    6542:	1b80      	subs	r0, r0, r6
    6544:	42a8      	cmp	r0, r5
    6546:	d808      	bhi.n	655a <pulseIn_high+0x66>
	while ((*(p->reg + 2) & p->mask)) {
    6548:	6822      	ldr	r2, [r4, #0]
    654a:	68e3      	ldr	r3, [r4, #12]
    654c:	6892      	ldr	r2, [r2, #8]
    654e:	421a      	tst	r2, r3
    6550:	d1f5      	bne.n	653e <pulseIn_high+0x4a>
	}
	usec_stop = micros();
    6552:	f7ff ff31 	bl	63b8 <micros>
	return usec_stop - usec_start;
    6556:	1b80      	subs	r0, r0, r6
}
    6558:	bd70      	pop	{r4, r5, r6, pc}
		if (micros()-usec_start > timeout) return 0;
    655a:	2000      	movs	r0, #0
}
    655c:	bd70      	pop	{r4, r5, r6, pc}
    655e:	bf00      	nop
    6560:	200007a4 	.word	0x200007a4

00006564 <pulseIn_low>:

uint32_t pulseIn_low(uint8_t pin, uint32_t timeout)
{
    6564:	b570      	push	{r4, r5, r6, lr}
	const struct digital_pin_bitband_and_config_table_struct *p;
	p = digital_pin_to_info_PGM + pin;
    6566:	4c1a      	ldr	r4, [pc, #104]	; (65d0 <pulseIn_low+0x6c>)
{
    6568:	460d      	mov	r5, r1
	p = digital_pin_to_info_PGM + pin;
    656a:	eb04 1400 	add.w	r4, r4, r0, lsl #4

	uint32_t usec_start, usec_stop;

	// wait for any previous pulse to end
	usec_start = micros();
    656e:	f7ff ff23 	bl	63b8 <micros>
    6572:	4606      	mov	r6, r0
	while (!(*(p->reg + 2) & p->mask)) {
    6574:	e004      	b.n	6580 <pulseIn_low+0x1c>
		if (micros() - usec_start > timeout) return 0;
    6576:	f7ff ff1f 	bl	63b8 <micros>
    657a:	1b80      	subs	r0, r0, r6
    657c:	42a8      	cmp	r0, r5
    657e:	d824      	bhi.n	65ca <pulseIn_low+0x66>
	while (!(*(p->reg + 2) & p->mask)) {
    6580:	6822      	ldr	r2, [r4, #0]
    6582:	68e3      	ldr	r3, [r4, #12]
    6584:	6892      	ldr	r2, [r2, #8]
    6586:	421a      	tst	r2, r3
    6588:	d0f5      	beq.n	6576 <pulseIn_low+0x12>
	}
	// wait for the pulse to start
	usec_start = micros();
    658a:	f7ff ff15 	bl	63b8 <micros>
    658e:	4606      	mov	r6, r0
	while ((*(p->reg + 2) & p->mask)) {
    6590:	e004      	b.n	659c <pulseIn_low+0x38>
		if (micros() - usec_start > timeout) return 0;
    6592:	f7ff ff11 	bl	63b8 <micros>
    6596:	1b80      	subs	r0, r0, r6
    6598:	42a8      	cmp	r0, r5
    659a:	d816      	bhi.n	65ca <pulseIn_low+0x66>
	while ((*(p->reg + 2) & p->mask)) {
    659c:	6822      	ldr	r2, [r4, #0]
    659e:	68e3      	ldr	r3, [r4, #12]
    65a0:	6892      	ldr	r2, [r2, #8]
    65a2:	421a      	tst	r2, r3
    65a4:	d1f5      	bne.n	6592 <pulseIn_low+0x2e>
	}
	usec_start = micros();
    65a6:	f7ff ff07 	bl	63b8 <micros>
    65aa:	4606      	mov	r6, r0
	// wait for the pulse to stop
	while (!(*(p->reg + 2) & p->mask)) {
    65ac:	e004      	b.n	65b8 <pulseIn_low+0x54>
		if (micros() - usec_start > timeout) return 0;
    65ae:	f7ff ff03 	bl	63b8 <micros>
    65b2:	1b80      	subs	r0, r0, r6
    65b4:	42a8      	cmp	r0, r5
    65b6:	d808      	bhi.n	65ca <pulseIn_low+0x66>
	while (!(*(p->reg + 2) & p->mask)) {
    65b8:	6822      	ldr	r2, [r4, #0]
    65ba:	68e3      	ldr	r3, [r4, #12]
    65bc:	6892      	ldr	r2, [r2, #8]
    65be:	421a      	tst	r2, r3
    65c0:	d0f5      	beq.n	65ae <pulseIn_low+0x4a>
	}
	usec_stop = micros();
    65c2:	f7ff fef9 	bl	63b8 <micros>
	return usec_stop - usec_start;
    65c6:	1b80      	subs	r0, r0, r6
}
    65c8:	bd70      	pop	{r4, r5, r6, pc}
		if (micros() - usec_start > timeout) return 0;
    65ca:	2000      	movs	r0, #0
}
    65cc:	bd70      	pop	{r4, r5, r6, pc}
    65ce:	bf00      	nop
    65d0:	200007a4 	.word	0x200007a4

000065d4 <pulseIn>:

// TODO: an inline version should handle the common case where state is const
uint32_t pulseIn(uint8_t pin, uint8_t state, uint32_t timeout)
{
	if (pin >= CORE_NUM_DIGITAL) return 0;
    65d4:	2827      	cmp	r0, #39	; 0x27
{
    65d6:	460b      	mov	r3, r1
    65d8:	4611      	mov	r1, r2
	if (pin >= CORE_NUM_DIGITAL) return 0;
    65da:	d804      	bhi.n	65e6 <pulseIn+0x12>
	if (state) return pulseIn_high(pin, timeout);
    65dc:	b90b      	cbnz	r3, 65e2 <pulseIn+0xe>
	return pulseIn_low(pin, timeout);
    65de:	f7ff bfc1 	b.w	6564 <pulseIn_low>
	if (state) return pulseIn_high(pin, timeout);
    65e2:	f7ff bf87 	b.w	64f4 <pulseIn_high>
}
    65e6:	2000      	movs	r0, #0
    65e8:	4770      	bx	lr
    65ea:	bf00      	nop

000065ec <dummy_isr>:
static void dummy_isr() {};
    65ec:	4770      	bx	lr
    65ee:	bf00      	nop

000065f0 <attachInterrupt>:

#endif

void attachInterrupt(uint8_t pin, void (*function)(void), int mode)
{
	if (pin >= CORE_NUM_DIGITAL) return;
    65f0:	2827      	cmp	r0, #39	; 0x27
    65f2:	d858      	bhi.n	66a6 <attachInterrupt+0xb6>
	//printf("attachInterrupt, pin=%u\n", pin);
	volatile uint32_t *gpio = portOutputRegister(pin);
    65f4:	0100      	lsls	r0, r0, #4
{
    65f6:	b4f0      	push	{r4, r5, r6, r7}
	volatile uint32_t *gpio = portOutputRegister(pin);
    65f8:	4c34      	ldr	r4, [pc, #208]	; (66cc <attachInterrupt+0xdc>)

	voidFuncPtr *table;

#if defined(__IMXRT1062__)

	switch((uint32_t)gpio) {
    65fa:	4d35      	ldr	r5, [pc, #212]	; (66d0 <attachInterrupt+0xe0>)
	volatile uint32_t *gpio = portOutputRegister(pin);
    65fc:	5823      	ldr	r3, [r4, r0]
	switch((uint32_t)gpio) {
    65fe:	42ab      	cmp	r3, r5
    6600:	d056      	beq.n	66b0 <attachInterrupt+0xc0>
    6602:	d849      	bhi.n	6698 <attachInterrupt+0xa8>
    6604:	f1b3 4f84 	cmp.w	r3, #1107296256	; 0x42000000
    6608:	d04b      	beq.n	66a2 <attachInterrupt+0xb2>
    660a:	f5a5 4580 	sub.w	r5, r5, #16384	; 0x4000
    660e:	42ab      	cmp	r3, r5
    6610:	d140      	bne.n	6694 <attachInterrupt+0xa4>
    6612:	4d30      	ldr	r5, [pc, #192]	; (66d4 <attachInterrupt+0xe4>)
	volatile uint32_t *mux = portConfigRegister(pin);
    6614:	4420      	add	r0, r4
    6616:	4e30      	ldr	r6, [pc, #192]	; (66d8 <attachInterrupt+0xe8>)
    6618:	4c30      	ldr	r4, [pc, #192]	; (66dc <attachInterrupt+0xec>)
    661a:	f8c4 62b4 	str.w	r6, [r4, #692]	; 0x2b4
	volatile uint32_t *pad = portControlRegister(pin);
    661e:	e9d0 c401 	ldrd	ip, r4, [r0, #4]
	uint32_t mask = digitalPinToBitMask(pin);
    6622:	68c0      	ldr	r0, [r0, #12]
		default:
			return;
	}

	attachInterruptVector(IRQ_GPIO6789, &irq_gpio6789);
	NVIC_ENABLE_IRQ(IRQ_GPIO6789);
    6624:	f04f 26e0 	mov.w	r6, #3758153728	; 0xe000e000
    6628:	f04f 5700 	mov.w	r7, #536870912	; 0x20000000
    662c:	2a04      	cmp	r2, #4
    662e:	f8c6 7110 	str.w	r7, [r6, #272]	; 0x110

#endif

	uint32_t icr;
	switch (mode) {
    6632:	d82f      	bhi.n	6694 <attachInterrupt+0xa4>
		case HIGH:    icr = 1; break;
		default: return;
	}

	// TODO: global interrupt disable to protect these read-modify-write accesses?
	gpio[IMR_INDEX] &= ~mask;	// disable interrupt
    6634:	695e      	ldr	r6, [r3, #20]
    6636:	ea26 0600 	bic.w	r6, r6, r0
    663a:	615e      	str	r6, [r3, #20]
	*mux = 5;			// pin is GPIO
    663c:	f04f 0605 	mov.w	r6, #5
    6640:	f8cc 6000 	str.w	r6, [ip]
	*pad |= IOMUXC_PAD_HYS;		// use hystersis avoid false trigger by slow signals
    6644:	6826      	ldr	r6, [r4, #0]
    6646:	f446 3680 	orr.w	r6, r6, #65536	; 0x10000
    664a:	6026      	str	r6, [r4, #0]
	gpio[GDIR_INDEX] &= ~mask;	// pin to input mode
    664c:	685c      	ldr	r4, [r3, #4]
    664e:	ea24 0400 	bic.w	r4, r4, r0
    6652:	605c      	str	r4, [r3, #4]
    6654:	4c22      	ldr	r4, [pc, #136]	; (66e0 <attachInterrupt+0xf0>)
    6656:	f854 4022 	ldr.w	r4, [r4, r2, lsl #2]
	uint32_t index = __builtin_ctz(mask);
    665a:	fa90 f2a0 	rbit	r2, r0
    665e:	fab2 f282 	clz	r2, r2
	table[index] = function;
    6662:	f845 1022 	str.w	r1, [r5, r2, lsl #2]
	gpio[IMR_INDEX] &= ~mask;	// disable interrupt
    6666:	ea6f 0100 	mvn.w	r1, r0
	if (mode == CHANGE) {
    666a:	d01d      	beq.n	66a8 <attachInterrupt+0xb8>
		gpio[EDGE_INDEX] |= mask;
	} else {
		gpio[EDGE_INDEX] &= ~mask;
    666c:	69dd      	ldr	r5, [r3, #28]
		if (index < 16) {
    666e:	2a0f      	cmp	r2, #15
		gpio[EDGE_INDEX] &= ~mask;
    6670:	ea01 0105 	and.w	r1, r1, r5
    6674:	61d9      	str	r1, [r3, #28]
		if (index < 16) {
    6676:	dc1d      	bgt.n	66b4 <attachInterrupt+0xc4>
			uint32_t shift = index * 2;
    6678:	0052      	lsls	r2, r2, #1
			gpio[ICR1_INDEX] = (gpio[ICR1_INDEX] & ~(3 << shift)) | (icr << shift);
    667a:	2503      	movs	r5, #3
    667c:	68d9      	ldr	r1, [r3, #12]
    667e:	4094      	lsls	r4, r2
    6680:	fa05 f202 	lsl.w	r2, r5, r2
    6684:	ea21 0202 	bic.w	r2, r1, r2
    6688:	4322      	orrs	r2, r4
    668a:	60da      	str	r2, [r3, #12]
		} else {
			uint32_t shift = (index - 16) * 2;
			gpio[ICR2_INDEX] = (gpio[ICR2_INDEX] & ~(3 << shift)) | (icr << shift);
		}
	}
	gpio[ISR_INDEX] = mask;  // clear any prior pending interrupt
    668c:	6198      	str	r0, [r3, #24]
	gpio[IMR_INDEX] |= mask; // enable interrupt
    668e:	695a      	ldr	r2, [r3, #20]
    6690:	4302      	orrs	r2, r0
    6692:	615a      	str	r2, [r3, #20]
}
    6694:	bcf0      	pop	{r4, r5, r6, r7}
    6696:	4770      	bx	lr
	switch((uint32_t)gpio) {
    6698:	4d12      	ldr	r5, [pc, #72]	; (66e4 <attachInterrupt+0xf4>)
    669a:	42ab      	cmp	r3, r5
    669c:	d1fa      	bne.n	6694 <attachInterrupt+0xa4>
			table = isr_table_gpio4;
    669e:	4d12      	ldr	r5, [pc, #72]	; (66e8 <attachInterrupt+0xf8>)
    66a0:	e7b8      	b.n	6614 <attachInterrupt+0x24>
			table = isr_table_gpio1;
    66a2:	4d12      	ldr	r5, [pc, #72]	; (66ec <attachInterrupt+0xfc>)
    66a4:	e7b6      	b.n	6614 <attachInterrupt+0x24>
    66a6:	4770      	bx	lr
		gpio[EDGE_INDEX] |= mask;
    66a8:	69da      	ldr	r2, [r3, #28]
    66aa:	4302      	orrs	r2, r0
    66ac:	61da      	str	r2, [r3, #28]
    66ae:	e7ed      	b.n	668c <attachInterrupt+0x9c>
			table = isr_table_gpio3;
    66b0:	4d0f      	ldr	r5, [pc, #60]	; (66f0 <attachInterrupt+0x100>)
    66b2:	e7af      	b.n	6614 <attachInterrupt+0x24>
			uint32_t shift = (index - 16) * 2;
    66b4:	3a10      	subs	r2, #16
			gpio[ICR2_INDEX] = (gpio[ICR2_INDEX] & ~(3 << shift)) | (icr << shift);
    66b6:	2503      	movs	r5, #3
    66b8:	6919      	ldr	r1, [r3, #16]
			uint32_t shift = (index - 16) * 2;
    66ba:	0052      	lsls	r2, r2, #1
			gpio[ICR2_INDEX] = (gpio[ICR2_INDEX] & ~(3 << shift)) | (icr << shift);
    66bc:	4094      	lsls	r4, r2
    66be:	fa05 f202 	lsl.w	r2, r5, r2
    66c2:	ea21 0202 	bic.w	r2, r1, r2
    66c6:	4322      	orrs	r2, r4
    66c8:	611a      	str	r2, [r3, #16]
    66ca:	e7df      	b.n	668c <attachInterrupt+0x9c>
    66cc:	200007a4 	.word	0x200007a4
    66d0:	42008000 	.word	0x42008000
    66d4:	20001260 	.word	0x20001260
    66d8:	00000021 	.word	0x00000021
    66dc:	20001800 	.word	0x20001800
    66e0:	200002f4 	.word	0x200002f4
    66e4:	4200c000 	.word	0x4200c000
    66e8:	20001360 	.word	0x20001360
    66ec:	200011e0 	.word	0x200011e0
    66f0:	200012e0 	.word	0x200012e0

000066f4 <detachInterrupt>:

void detachInterrupt(uint8_t pin)
{
	if (pin >= CORE_NUM_DIGITAL) return;
    66f4:	2827      	cmp	r0, #39	; 0x27
    66f6:	d809      	bhi.n	670c <detachInterrupt+0x18>
	volatile uint32_t *gpio = portOutputRegister(pin);
    66f8:	4b05      	ldr	r3, [pc, #20]	; (6710 <detachInterrupt+0x1c>)
    66fa:	0102      	lsls	r2, r0, #4
    66fc:	eb03 1000 	add.w	r0, r3, r0, lsl #4
    6700:	589a      	ldr	r2, [r3, r2]
	uint32_t mask = digitalPinToBitMask(pin);
	gpio[IMR_INDEX] &= ~mask;
    6702:	68c1      	ldr	r1, [r0, #12]
    6704:	6953      	ldr	r3, [r2, #20]
    6706:	ea23 0301 	bic.w	r3, r3, r1
    670a:	6153      	str	r3, [r2, #20]
}
    670c:	4770      	bx	lr
    670e:	bf00      	nop
    6710:	200007a4 	.word	0x200007a4

00006714 <main>:
 */

#include <Arduino.h>

extern "C" int main(void)
{
    6714:	b508      	push	{r3, lr}
	}


#else
	// Arduino's main() function just calls setup() and loop()....
	setup();
    6716:	f7f9 fd23 	bl	160 <setup>
	while (1) {
		loop();
    671a:	f7f9 fdd1 	bl	2c0 <loop>
		yield();
    671e:	f001 fa47 	bl	7bb0 <yield>
	while (1) {
    6722:	e7fa      	b.n	671a <main+0x6>

00006724 <memcpy>:
	@ r1: src
	@ r2: len
#ifdef __ARM_FEATURE_UNALIGNED
	/* In case of UNALIGNED access supported, ip is not used in
	   function body.  */
	mov	ip, r0
    6724:	4684      	mov	ip, r0
#else
	push	{r0}
#endif
	orr	r3, r1, r0
    6726:	ea41 0300 	orr.w	r3, r1, r0
	ands	r3, r3, #3
    672a:	f013 0303 	ands.w	r3, r3, #3
	bne	.Lmisaligned_copy
    672e:	d16d      	bne.n	680c <memcpy+0xe8>

.Lbig_block:
	subs	r2, __OPT_BIG_BLOCK_SIZE
    6730:	3a40      	subs	r2, #64	; 0x40
	blo	.Lmid_block
    6732:	d341      	bcc.n	67b8 <memcpy+0x94>
.Lbig_block_loop:
	BEGIN_UNROLL_BIG_BLOCK
#ifdef __ARM_ARCH_7EM__
	ldr	r3, [r1], #4
	str	r3, [r0], #4
	END_UNROLL
    6734:	f851 3b04 	ldr.w	r3, [r1], #4
    6738:	f840 3b04 	str.w	r3, [r0], #4
    673c:	f851 3b04 	ldr.w	r3, [r1], #4
    6740:	f840 3b04 	str.w	r3, [r0], #4
    6744:	f851 3b04 	ldr.w	r3, [r1], #4
    6748:	f840 3b04 	str.w	r3, [r0], #4
    674c:	f851 3b04 	ldr.w	r3, [r1], #4
    6750:	f840 3b04 	str.w	r3, [r0], #4
    6754:	f851 3b04 	ldr.w	r3, [r1], #4
    6758:	f840 3b04 	str.w	r3, [r0], #4
    675c:	f851 3b04 	ldr.w	r3, [r1], #4
    6760:	f840 3b04 	str.w	r3, [r0], #4
    6764:	f851 3b04 	ldr.w	r3, [r1], #4
    6768:	f840 3b04 	str.w	r3, [r0], #4
    676c:	f851 3b04 	ldr.w	r3, [r1], #4
    6770:	f840 3b04 	str.w	r3, [r0], #4
    6774:	f851 3b04 	ldr.w	r3, [r1], #4
    6778:	f840 3b04 	str.w	r3, [r0], #4
    677c:	f851 3b04 	ldr.w	r3, [r1], #4
    6780:	f840 3b04 	str.w	r3, [r0], #4
    6784:	f851 3b04 	ldr.w	r3, [r1], #4
    6788:	f840 3b04 	str.w	r3, [r0], #4
    678c:	f851 3b04 	ldr.w	r3, [r1], #4
    6790:	f840 3b04 	str.w	r3, [r0], #4
    6794:	f851 3b04 	ldr.w	r3, [r1], #4
    6798:	f840 3b04 	str.w	r3, [r0], #4
    679c:	f851 3b04 	ldr.w	r3, [r1], #4
    67a0:	f840 3b04 	str.w	r3, [r0], #4
    67a4:	f851 3b04 	ldr.w	r3, [r1], #4
    67a8:	f840 3b04 	str.w	r3, [r0], #4
    67ac:	f851 3b04 	ldr.w	r3, [r1], #4
    67b0:	f840 3b04 	str.w	r3, [r0], #4
	str	r3, [r0, \offset]
	END_UNROLL
	adds	r0, __OPT_BIG_BLOCK_SIZE
	adds	r1, __OPT_BIG_BLOCK_SIZE
#endif
	subs	r2, __OPT_BIG_BLOCK_SIZE
    67b4:	3a40      	subs	r2, #64	; 0x40
	bhs .Lbig_block_loop
    67b6:	d2bd      	bcs.n	6734 <memcpy+0x10>

.Lmid_block:
	adds	r2, __OPT_BIG_BLOCK_SIZE - __OPT_MID_BLOCK_SIZE
    67b8:	3230      	adds	r2, #48	; 0x30
	blo	.Lcopy_word_by_word
    67ba:	d311      	bcc.n	67e0 <memcpy+0xbc>
.Lmid_block_loop:
	BEGIN_UNROLL_MID_BLOCK
#ifdef __ARM_ARCH_7EM__
	ldr	r3, [r1], #4
	str	r3, [r0], #4
	END_UNROLL
    67bc:	f851 3b04 	ldr.w	r3, [r1], #4
    67c0:	f840 3b04 	str.w	r3, [r0], #4
    67c4:	f851 3b04 	ldr.w	r3, [r1], #4
    67c8:	f840 3b04 	str.w	r3, [r0], #4
    67cc:	f851 3b04 	ldr.w	r3, [r1], #4
    67d0:	f840 3b04 	str.w	r3, [r0], #4
    67d4:	f851 3b04 	ldr.w	r3, [r1], #4
    67d8:	f840 3b04 	str.w	r3, [r0], #4
	str	r3, [r0, \offset]
	END_UNROLL
	adds    r0, __OPT_MID_BLOCK_SIZE
	adds    r1, __OPT_MID_BLOCK_SIZE
#endif
	subs	r2, __OPT_MID_BLOCK_SIZE
    67dc:	3a10      	subs	r2, #16
	bhs	.Lmid_block_loop
    67de:	d2ed      	bcs.n	67bc <memcpy+0x98>

.Lcopy_word_by_word:
	adds	r2, __OPT_MID_BLOCK_SIZE - 4
    67e0:	320c      	adds	r2, #12
	blo	.Lcopy_less_than_4
    67e2:	d305      	bcc.n	67f0 <memcpy+0xcc>

	/* Kernel loop for small block copy */
	.align 2
.Lcopy_word_by_word_loop:
	ldr	r3, [r1], #4
    67e4:	f851 3b04 	ldr.w	r3, [r1], #4
	str	r3, [r0], #4
    67e8:	f840 3b04 	str.w	r3, [r0], #4
	subs	r2, #4
    67ec:	3a04      	subs	r2, #4
	bhs	.Lcopy_word_by_word_loop
    67ee:	d2f9      	bcs.n	67e4 <memcpy+0xc0>

.Lcopy_less_than_4:
	adds	r2, #4
    67f0:	3204      	adds	r2, #4
	beq	.Ldone
    67f2:	d008      	beq.n	6806 <memcpy+0xe2>

	lsls	r2, r2, #31
    67f4:	07d2      	lsls	r2, r2, #31
	itt ne
    67f6:	bf1c      	itt	ne
	ldrbne  r3, [r1], #1
    67f8:	f811 3b01 	ldrbne.w	r3, [r1], #1
	strbne  r3, [r0], #1
    67fc:	f800 3b01 	strbne.w	r3, [r0], #1

	bcc	.Ldone
    6800:	d301      	bcc.n	6806 <memcpy+0xe2>
#ifdef __ARM_FEATURE_UNALIGNED
	ldrh	r3, [r1]
    6802:	880b      	ldrh	r3, [r1, #0]
	strh	r3, [r0]
    6804:	8003      	strh	r3, [r0, #0]
	strb	r3, [r0, #1]
#endif /* __ARM_FEATURE_UNALIGNED */

.Ldone:
#ifdef __ARM_FEATURE_UNALIGNED
	mov	r0, ip
    6806:	4660      	mov	r0, ip
#else
	pop	{r0}
#endif
	bx	lr
    6808:	4770      	bx	lr
    680a:	bf00      	nop
#define Ldst_aligned Lbig_block

	/* Copy word by word using LDR when alignment can be done in hardware,
	i.e., SCTLR.A is set, supporting unaligned access in LDR and STR.  */

	cmp	r2, #8
    680c:	2a08      	cmp	r2, #8
	blo	.Lbyte_copy
    680e:	d313      	bcc.n	6838 <memcpy+0x114>

	/* if src is aligned, just go to the big block loop.  */
	lsls	r3, r1, #30
    6810:	078b      	lsls	r3, r1, #30
	beq	.Ldst_aligned
    6812:	d08d      	beq.n	6730 <memcpy+0xc>
	handling of aligned src and misaligned dst need more overhead than
	otherwise.  By doing this the worst case is when initial src is aligned,
	additional up to 4 byte additional copy will executed, which is
	acceptable.  */

	ands	r3, r0, #3
    6814:	f010 0303 	ands.w	r3, r0, #3
	beq	.Ldst_aligned
    6818:	d08a      	beq.n	6730 <memcpy+0xc>

	rsb	r3, #4
    681a:	f1c3 0304 	rsb	r3, r3, #4
	subs	r2, r3
    681e:	1ad2      	subs	r2, r2, r3

	lsls    r3, r3, #31
    6820:	07db      	lsls	r3, r3, #31
	itt ne
    6822:	bf1c      	itt	ne
	ldrbne  r3, [r1], #1
    6824:	f811 3b01 	ldrbne.w	r3, [r1], #1
	strbne  r3, [r0], #1
    6828:	f800 3b01 	strbne.w	r3, [r0], #1

	bcc .Ldst_aligned
    682c:	d380      	bcc.n	6730 <memcpy+0xc>

#ifdef __ARM_FEATURE_UNALIGNED
	ldrh    r3, [r1], #2
    682e:	f831 3b02 	ldrh.w	r3, [r1], #2
	strh    r3, [r0], #2
    6832:	f820 3b02 	strh.w	r3, [r0], #2
	b	.Ldst_aligned
    6836:	e77b      	b.n	6730 <memcpy+0xc>
	pop	{r4, r5}

#endif /* __ARM_FEATURE_UNALIGNED */

.Lbyte_copy:
	subs	r2, #4
    6838:	3a04      	subs	r2, #4
	blo	.Lcopy_less_than_4
    683a:	d3d9      	bcc.n	67f0 <memcpy+0xcc>

.Lbyte_copy_loop:
	subs    r2, #1
    683c:	3a01      	subs	r2, #1
	ldrb    r3, [r1], #1
    683e:	f811 3b01 	ldrb.w	r3, [r1], #1
	strb    r3, [r0], #1
    6842:	f800 3b01 	strb.w	r3, [r0], #1
	bhs	.Lbyte_copy_loop
    6846:	d2f9      	bcs.n	683c <memcpy+0x118>

	ldrb	r3, [r1]
    6848:	780b      	ldrb	r3, [r1, #0]
	strb	r3, [r0]
    684a:	7003      	strb	r3, [r0, #0]
	ldrb	r3, [r1, #1]
    684c:	784b      	ldrb	r3, [r1, #1]
	strb	r3, [r0, #1]
    684e:	7043      	strb	r3, [r0, #1]
	ldrb	r3, [r1, #2]
    6850:	788b      	ldrb	r3, [r1, #2]
	strb	r3, [r0, #2]
    6852:	7083      	strb	r3, [r0, #2]

#ifdef __ARM_FEATURE_UNALIGNED
	mov	r0, ip
    6854:	4660      	mov	r0, ip
#else
	pop	{r0}
#endif
	bx	lr
    6856:	4770      	bx	lr

00006858 <operator new(unsigned int)>:

#include <stdlib.h>

void * operator new(size_t size)
{
	return malloc(size);
    6858:	f001 bc10 	b.w	807c <malloc>

0000685c <operator new[](unsigned int)>:
    685c:	f001 bc0e 	b.w	807c <malloc>

00006860 <operator delete[](void*)>:
    6860:	f001 bc14 	b.w	808c <free>

00006864 <ultoa>:


char * ultoa(unsigned long val, char *buf, int radix)
{
	unsigned digit;
	int i=0, j;
    6864:	f101 3cff 	add.w	ip, r1, #4294967295
{
    6868:	b570      	push	{r4, r5, r6, lr}
	char t;

	while (1) {
		digit = val % radix;
    686a:	4666      	mov	r6, ip
	int i=0, j;
    686c:	2400      	movs	r4, #0
    686e:	e000      	b.n	6872 <ultoa+0xe>
		buf[i] = ((digit < 10) ? '0' + digit : 'A' + digit - 10);
		val /= radix;
		if (val == 0) break;
		i++;
    6870:	3401      	adds	r4, #1
		digit = val % radix;
    6872:	fbb0 f5f2 	udiv	r5, r0, r2
    6876:	fb02 0315 	mls	r3, r2, r5, r0
		buf[i] = ((digit < 10) ? '0' + digit : 'A' + digit - 10);
    687a:	2b09      	cmp	r3, #9
    687c:	f103 0e37 	add.w	lr, r3, #55	; 0x37
    6880:	f103 0330 	add.w	r3, r3, #48	; 0x30
    6884:	fa5f fe8e 	uxtb.w	lr, lr
    6888:	bf98      	it	ls
    688a:	fa5f fe83 	uxtbls.w	lr, r3
		if (val == 0) break;
    688e:	4290      	cmp	r0, r2
		val /= radix;
    6890:	4628      	mov	r0, r5
		buf[i] = ((digit < 10) ? '0' + digit : 'A' + digit - 10);
    6892:	f806 ef01 	strb.w	lr, [r6, #1]!
		if (val == 0) break;
    6896:	d2eb      	bcs.n	6870 <ultoa+0xc>
	}
	buf[i + 1] = 0;
    6898:	1c63      	adds	r3, r4, #1
    689a:	2200      	movs	r2, #0
    689c:	18c8      	adds	r0, r1, r3
    689e:	54ca      	strb	r2, [r1, r3]
	for (j=0; j < i; j++, i--) {
    68a0:	b17c      	cbz	r4, 68c2 <ultoa+0x5e>
		t = buf[j];
    68a2:	4662      	mov	r2, ip
    68a4:	f81c 5f01 	ldrb.w	r5, [ip, #1]!
		buf[j] = buf[i];
    68a8:	f810 6d01 	ldrb.w	r6, [r0, #-1]!
	for (j=0; j < i; j++, i--) {
    68ac:	eba1 030c 	sub.w	r3, r1, ip
    68b0:	3202      	adds	r2, #2
		buf[j] = buf[i];
    68b2:	f88c 6000 	strb.w	r6, [ip]
	for (j=0; j < i; j++, i--) {
    68b6:	3b01      	subs	r3, #1
    68b8:	1a52      	subs	r2, r2, r1
		buf[i] = t;
    68ba:	7005      	strb	r5, [r0, #0]
	for (j=0; j < i; j++, i--) {
    68bc:	4423      	add	r3, r4
    68be:	429a      	cmp	r2, r3
    68c0:	dbef      	blt.n	68a2 <ultoa+0x3e>
	}
	return buf;
}
    68c2:	4608      	mov	r0, r1
    68c4:	bd70      	pop	{r4, r5, r6, pc}
    68c6:	bf00      	nop

000068c8 <unused_interrupt_vector>:
	__disable_irq();
    68c8:	b672      	cpsid	i
	asm volatile("mrs %0, ipsr\n" : "=r" (ipsr) :: "memory");
    68ca:	f3ef 8305 	mrs	r3, IPSR
	info->ipsr = ipsr;
    68ce:	4c52      	ldr	r4, [pc, #328]	; (6a18 <unused_interrupt_vector+0x150>)
    68d0:	f8c4 3084 	str.w	r3, [r4, #132]	; 0x84
	asm volatile("tst lr, #4\nite eq\nmrseq %0, msp\nmrsne %0, psp\n" : "=r" (stack) :: "memory");
    68d4:	f01e 0f04 	tst.w	lr, #4
    68d8:	bf0c      	ite	eq
    68da:	f3ef 8208 	mrseq	r2, MSP
    68de:	f3ef 8209 	mrsne	r2, PSP
	info->cfsr = SCB_CFSR;
    68e2:	f04f 23e0 	mov.w	r3, #3758153728	; 0xe000e000
	p = (uint32_t *)info;
    68e6:	4e4d      	ldr	r6, [pc, #308]	; (6a1c <unused_interrupt_vector+0x154>)
	while (p < end) {
    68e8:	4d4d      	ldr	r5, [pc, #308]	; (6a20 <unused_interrupt_vector+0x158>)
	info->cfsr = SCB_CFSR;
    68ea:	f8d3 0d28 	ldr.w	r0, [r3, #3368]	; 0xd28
	info->hfsr = SCB_HFSR;
    68ee:	f8d3 1d2c 	ldr.w	r1, [r3, #3372]	; 0xd2c
    68f2:	e9c4 0122 	strd	r0, r1, [r4, #136]	; 0x88
	info->mmfar = SCB_MMFAR;
    68f6:	f8d3 1d34 	ldr.w	r1, [r3, #3380]	; 0xd34
	info->bfar = SCB_BFAR;
    68fa:	f8d3 3d38 	ldr.w	r3, [r3, #3384]	; 0xd38
    68fe:	e9c4 1324 	strd	r1, r3, [r4, #144]	; 0x90
	info->ret = stack[6];
    6902:	6993      	ldr	r3, [r2, #24]
    6904:	f8c4 3098 	str.w	r3, [r4, #152]	; 0x98
	info->xpsr = stack[7];
    6908:	69d3      	ldr	r3, [r2, #28]
    690a:	f8c4 309c 	str.w	r3, [r4, #156]	; 0x9c
	info->temp = tempmonGetTemp();
    690e:	f000 f8bf 	bl	6a90 <tempmonGetTemp>
    6912:	ed84 0a28 	vstr	s0, [r4, #160]	; 0xa0
	info->time = rtc_get();
    6916:	f001 fb99 	bl	804c <rtc_get>
	info->len = sizeof(*info) / 4;
    691a:	210b      	movs	r1, #11
	crc = 0xFFFFFFFF;
    691c:	f04f 32ff 	mov.w	r2, #4294967295
	info->time = rtc_get();
    6920:	f8c4 00a4 	str.w	r0, [r4, #164]	; 0xa4
	info->len = sizeof(*info) / 4;
    6924:	460b      	mov	r3, r1
    6926:	f8c4 1080 	str.w	r1, [r4, #128]	; 0x80
		for (i=0; i < 32; i++) crc = (crc >> 1) ^ (crc & 1)*0xEDB88320;
    692a:	493e      	ldr	r1, [pc, #248]	; (6a24 <unused_interrupt_vector+0x15c>)
		crc ^= *p++;
    692c:	1d30      	adds	r0, r6, #4
    692e:	405a      	eors	r2, r3
    6930:	2420      	movs	r4, #32
		for (i=0; i < 32; i++) crc = (crc >> 1) ^ (crc & 1)*0xEDB88320;
    6932:	f002 0301 	and.w	r3, r2, #1
    6936:	3c01      	subs	r4, #1
    6938:	fb01 f303 	mul.w	r3, r1, r3
    693c:	ea83 0252 	eor.w	r2, r3, r2, lsr #1
    6940:	d1f7      	bne.n	6932 <unused_interrupt_vector+0x6a>
	while (p < end) {
    6942:	42a8      	cmp	r0, r5
    6944:	d002      	beq.n	694c <unused_interrupt_vector+0x84>
		crc ^= *p++;
    6946:	6873      	ldr	r3, [r6, #4]
    6948:	4606      	mov	r6, r0
    694a:	e7ef      	b.n	692c <unused_interrupt_vector+0x64>
	info->crc = crc;
    694c:	4b32      	ldr	r3, [pc, #200]	; (6a18 <unused_interrupt_vector+0x150>)
    694e:	f8c3 20a8 	str.w	r2, [r3, #168]	; 0xa8
static inline void arm_dcache_flush_delete(void *addr, uint32_t size)
{
	uint32_t location = (uint32_t)addr & 0xFFFFFFE0;
	uint32_t end_addr = (uint32_t)addr + size;
	asm volatile("": : :"memory");
	asm("dsb");
    6952:	f3bf 8f4f 	dsb	sy
	do {
		SCB_CACHE_DCCIMVAC = location;
    6956:	f04f 23e0 	mov.w	r3, #3758153728	; 0xe000e000
    695a:	4930      	ldr	r1, [pc, #192]	; (6a1c <unused_interrupt_vector+0x154>)
    695c:	4a32      	ldr	r2, [pc, #200]	; (6a28 <unused_interrupt_vector+0x160>)
    695e:	f8c3 1f70 	str.w	r1, [r3, #3952]	; 0xf70
    6962:	f8c3 2f70 	str.w	r2, [r3, #3952]	; 0xf70
		location += 32;
	} while (location < end_addr);
	asm("dsb");
    6966:	f3bf 8f4f 	dsb	sy
	asm("isb");
    696a:	f3bf 8f6f 	isb	sy
	CCM_CCGR1 |= CCM_CCGR1_PIT(CCM_CCGR_ON);
    696e:	4a2f      	ldr	r2, [pc, #188]	; (6a2c <unused_interrupt_vector+0x164>)
	PIT_MCR = PIT_MCR_MDIS;
    6970:	2502      	movs	r5, #2
    6972:	482f      	ldr	r0, [pc, #188]	; (6a30 <unused_interrupt_vector+0x168>)
	CCM_CCGR1 |= CCM_CCGR1_PIT(CCM_CCGR_ON);
    6974:	6ed3      	ldr	r3, [r2, #108]	; 0x6c
  	if (F_CPU_ACTUAL > 198000000) set_arm_clock(198000000);
    6976:	492f      	ldr	r1, [pc, #188]	; (6a34 <unused_interrupt_vector+0x16c>)
	CCM_CCGR1 |= CCM_CCGR1_PIT(CCM_CCGR_ON);
    6978:	f443 5340 	orr.w	r3, r3, #12288	; 0x3000
    697c:	66d3      	str	r3, [r2, #108]	; 0x6c
	PIT_MCR = PIT_MCR_MDIS;
    697e:	6005      	str	r5, [r0, #0]
	CCM_CSCMR1 = (CCM_CSCMR1 & ~CCM_CSCMR1_PERCLK_PODF(0x3F)) | CCM_CSCMR1_PERCLK_CLK_SEL;
    6980:	69d3      	ldr	r3, [r2, #28]
  	if (F_CPU_ACTUAL > 198000000) set_arm_clock(198000000);
    6982:	482d      	ldr	r0, [pc, #180]	; (6a38 <unused_interrupt_vector+0x170>)
	CCM_CSCMR1 = (CCM_CSCMR1 & ~CCM_CSCMR1_PERCLK_PODF(0x3F)) | CCM_CSCMR1_PERCLK_CLK_SEL;
    6984:	f023 037f 	bic.w	r3, r3, #127	; 0x7f
    6988:	f043 0340 	orr.w	r3, r3, #64	; 0x40
    698c:	61d3      	str	r3, [r2, #28]
  	if (F_CPU_ACTUAL > 198000000) set_arm_clock(198000000);
    698e:	680b      	ldr	r3, [r1, #0]
    6990:	4283      	cmp	r3, r0
    6992:	d83d      	bhi.n	6a10 <unused_interrupt_vector+0x148>
	PIT_MCR = 0;
    6994:	4d26      	ldr	r5, [pc, #152]	; (6a30 <unused_interrupt_vector+0x168>)
    6996:	2100      	movs	r1, #0
	NVIC_ICER0 = 0xFFFFFFFF;
    6998:	f04f 23e0 	mov.w	r3, #3758153728	; 0xe000e000
    699c:	f04f 32ff 	mov.w	r2, #4294967295
	PIT_MCR = 0;
    69a0:	6029      	str	r1, [r5, #0]
	PIT_TCTRL0 = PIT_TCTRL_TEN;
    69a2:	2601      	movs	r6, #1
	PIT_TCTRL0 = 0;
    69a4:	f8c5 1108 	str.w	r1, [r5, #264]	; 0x108
	PIT_LDVAL0 = 2400000; // 2400000 = 100ms
    69a8:	4924      	ldr	r1, [pc, #144]	; (6a3c <unused_interrupt_vector+0x174>)
    69aa:	f8c5 1100 	str.w	r1, [r5, #256]	; 0x100
	PIT_TCTRL0 = PIT_TCTRL_TEN;
    69ae:	f8c5 6108 	str.w	r6, [r5, #264]	; 0x108
	NVIC_ICER0 = 0xFFFFFFFF;
    69b2:	f8c3 2180 	str.w	r2, [r3, #384]	; 0x180
	NVIC_ICER1 = 0xFFFFFFFF;
    69b6:	f8c3 2184 	str.w	r2, [r3, #388]	; 0x184
	NVIC_ICER2 = 0xFFFFFFFF;
    69ba:	f8c3 2188 	str.w	r2, [r3, #392]	; 0x188
	NVIC_ICER3 = 0xFFFFFFFF;
    69be:	f8c3 218c 	str.w	r2, [r3, #396]	; 0x18c
	NVIC_ICER4 = 0xFFFFFFFF;
    69c2:	f8c3 2190 	str.w	r2, [r3, #400]	; 0x190
	count = 0;
    69c6:	e001      	b.n	69cc <unused_interrupt_vector+0x104>
		usb_isr();
    69c8:	f000 f954 	bl	6c74 <usb_isr>
		if (PIT_TFLG0) {
    69cc:	f8d5 310c 	ldr.w	r3, [r5, #268]	; 0x10c
    69d0:	2b00      	cmp	r3, #0
    69d2:	d0f9      	beq.n	69c8 <unused_interrupt_vector+0x100>
			if (++count >= 80) break;  // reboot after 8 seconds
    69d4:	3401      	adds	r4, #1
			PIT_TFLG0 = 1;
    69d6:	f8c5 610c 	str.w	r6, [r5, #268]	; 0x10c
			if (++count >= 80) break;  // reboot after 8 seconds
    69da:	2c4f      	cmp	r4, #79	; 0x4f
    69dc:	d9f4      	bls.n	69c8 <unused_interrupt_vector+0x100>
	USBPHY1_CTRL_SET = USBPHY_CTRL_SFTRST;
    69de:	4b18      	ldr	r3, [pc, #96]	; (6a40 <unused_interrupt_vector+0x178>)
	USB1_USBCMD = USB_USBCMD_RST;
    69e0:	2002      	movs	r0, #2
    69e2:	4918      	ldr	r1, [pc, #96]	; (6a44 <unused_interrupt_vector+0x17c>)
	USBPHY1_CTRL_SET = USBPHY_CTRL_SFTRST;
    69e4:	f04f 4200 	mov.w	r2, #2147483648	; 0x80000000
	USB1_USBCMD = USB_USBCMD_RST;
    69e8:	f8c1 0140 	str.w	r0, [r1, #320]	; 0x140
	USBPHY1_CTRL_SET = USBPHY_CTRL_SFTRST;
    69ec:	635a      	str	r2, [r3, #52]	; 0x34
	while (PIT_TFLG0 == 0) /* wait 0.1 second for PC to know USB unplugged */
    69ee:	f8d5 310c 	ldr.w	r3, [r5, #268]	; 0x10c
    69f2:	b93b      	cbnz	r3, 6a04 <unused_interrupt_vector+0x13c>
	SRC_GPR5 = 0x0BAD00F1;
    69f4:	4814      	ldr	r0, [pc, #80]	; (6a48 <unused_interrupt_vector+0x180>)
    69f6:	4915      	ldr	r1, [pc, #84]	; (6a4c <unused_interrupt_vector+0x184>)
	while (PIT_TFLG0 == 0) /* wait 0.1 second for PC to know USB unplugged */
    69f8:	4a0d      	ldr	r2, [pc, #52]	; (6a30 <unused_interrupt_vector+0x168>)
	SRC_GPR5 = 0x0BAD00F1;
    69fa:	6301      	str	r1, [r0, #48]	; 0x30
	while (PIT_TFLG0 == 0) /* wait 0.1 second for PC to know USB unplugged */
    69fc:	f8d2 310c 	ldr.w	r3, [r2, #268]	; 0x10c
    6a00:	2b00      	cmp	r3, #0
    6a02:	d0fa      	beq.n	69fa <unused_interrupt_vector+0x132>
	SCB_AIRCR = 0x05FA0004;
    6a04:	f04f 23e0 	mov.w	r3, #3758153728	; 0xe000e000
    6a08:	4a11      	ldr	r2, [pc, #68]	; (6a50 <unused_interrupt_vector+0x188>)
    6a0a:	f8c3 2d0c 	str.w	r2, [r3, #3340]	; 0xd0c
	while (1) ;
    6a0e:	e7fe      	b.n	6a0e <unused_interrupt_vector+0x146>
  	if (F_CPU_ACTUAL > 198000000) set_arm_clock(198000000);
    6a10:	f7ff fb06 	bl	6020 <set_arm_clock>
    6a14:	e7be      	b.n	6994 <unused_interrupt_vector+0xcc>
    6a16:	bf00      	nop
    6a18:	2027ff00 	.word	0x2027ff00
    6a1c:	2027ff80 	.word	0x2027ff80
    6a20:	2027ffa8 	.word	0x2027ffa8
    6a24:	edb88320 	.word	0xedb88320
    6a28:	2027ffa0 	.word	0x2027ffa0
    6a2c:	400fc000 	.word	0x400fc000
    6a30:	40084000 	.word	0x40084000
    6a34:	20000cdc 	.word	0x20000cdc
    6a38:	0bcd3d80 	.word	0x0bcd3d80
    6a3c:	00249f00 	.word	0x00249f00
    6a40:	400d9000 	.word	0x400d9000
    6a44:	402e0000 	.word	0x402e0000
    6a48:	400f8000 	.word	0x400f8000
    6a4c:	0bad00f1 	.word	0x0bad00f1
    6a50:	05fa0004 	.word	0x05fa0004

00006a54 <_sbrk>:
char *__brkval = (char *)&_heap_start;

__attribute__((weak))
void * _sbrk(int incr)
{
        char *prev = __brkval;
    6a54:	490a      	ldr	r1, [pc, #40]	; (6a80 <_sbrk+0x2c>)
    6a56:	680a      	ldr	r2, [r1, #0]
        if (incr != 0) {
    6a58:	b138      	cbz	r0, 6a6a <_sbrk+0x16>
{
    6a5a:	b508      	push	{r3, lr}
                if (prev + incr > (char *)&_heap_end) {
    6a5c:	1813      	adds	r3, r2, r0
    6a5e:	4809      	ldr	r0, [pc, #36]	; (6a84 <_sbrk+0x30>)
    6a60:	4283      	cmp	r3, r0
    6a62:	d804      	bhi.n	6a6e <_sbrk+0x1a>
                        return (void *)-1;
                }
                __brkval = prev + incr;
        }
        return prev;
}
    6a64:	4610      	mov	r0, r2
                __brkval = prev + incr;
    6a66:	600b      	str	r3, [r1, #0]
}
    6a68:	bd08      	pop	{r3, pc}
    6a6a:	4610      	mov	r0, r2
    6a6c:	4770      	bx	lr
                        errno = ENOMEM;
    6a6e:	f001 feb3 	bl	87d8 <__errno>
    6a72:	230c      	movs	r3, #12
                        return (void *)-1;
    6a74:	f04f 32ff 	mov.w	r2, #4294967295
                        errno = ENOMEM;
    6a78:	6003      	str	r3, [r0, #0]
}
    6a7a:	4610      	mov	r0, r2
    6a7c:	bd08      	pop	{r3, pc}
    6a7e:	bf00      	nop
    6a80:	20000db0 	.word	0x20000db0
    6a84:	20280000 	.word	0x20280000

00006a88 <__cxa_pure_virtual>:
}

__attribute__((weak))
void __cxa_pure_virtual()
{
	while (1) asm ("WFI");
    6a88:	bf30      	wfi
    6a8a:	e7fd      	b.n	6a88 <__cxa_pure_virtual>

00006a8c <Panic_Temp_isr>:
  unused_interrupt_vector();
    6a8c:	f7ff bf1c 	b.w	68c8 <unused_interrupt_vector>

00006a90 <tempmonGetTemp>:
float tempmonGetTemp(void)
{
    uint32_t nmeas;
    float tmeas;

    while (!(TEMPMON_TEMPSENSE0 & 0x4U))
    6a90:	4a12      	ldr	r2, [pc, #72]	; (6adc <tempmonGetTemp+0x4c>)
    6a92:	f8d2 3080 	ldr.w	r3, [r2, #128]	; 0x80
    6a96:	075b      	lsls	r3, r3, #29
    6a98:	d5fb      	bpl.n	6a92 <tempmonGetTemp+0x2>
    {
    }

    /* ready to read temperature code value */
    nmeas = (TEMPMON_TEMPSENSE0 & 0xFFF00U) >> 8U;
    6a9a:	f8d2 3080 	ldr.w	r3, [r2, #128]	; 0x80
    /* Calculate temperature */
    tmeas = s_hotTemp - (((float)nmeas - (float)s_hotCount) * s_hot_ROOM / s_roomC_hotC);
    6a9e:	4810      	ldr	r0, [pc, #64]	; (6ae0 <tempmonGetTemp+0x50>)
    nmeas = (TEMPMON_TEMPSENSE0 & 0xFFF00U) >> 8U;
    6aa0:	f3c3 230b 	ubfx	r3, r3, #8, #12
    tmeas = s_hotTemp - (((float)nmeas - (float)s_hotCount) * s_hot_ROOM / s_roomC_hotC);
    6aa4:	490f      	ldr	r1, [pc, #60]	; (6ae4 <tempmonGetTemp+0x54>)
    6aa6:	ed90 7a00 	vldr	s14, [r0]
    nmeas = (TEMPMON_TEMPSENSE0 & 0xFFF00U) >> 8U;
    6aaa:	ee07 3a90 	vmov	s15, r3
    tmeas = s_hotTemp - (((float)nmeas - (float)s_hotCount) * s_hot_ROOM / s_roomC_hotC);
    6aae:	ed91 6a00 	vldr	s12, [r1]
    6ab2:	eeb8 7a47 	vcvt.f32.u32	s14, s14
    6ab6:	4a0c      	ldr	r2, [pc, #48]	; (6ae8 <tempmonGetTemp+0x58>)
    6ab8:	eef8 7ae7 	vcvt.f32.s32	s15, s15
    6abc:	4b0b      	ldr	r3, [pc, #44]	; (6aec <tempmonGetTemp+0x5c>)
    6abe:	edd2 6a00 	vldr	s13, [r2]
    6ac2:	ee77 7ac7 	vsub.f32	s15, s15, s14
    6ac6:	ed93 7a00 	vldr	s14, [r3]
    6aca:	eeb8 7a47 	vcvt.f32.u32	s14, s14
    6ace:	ee67 7a86 	vmul.f32	s15, s15, s12
    6ad2:	ee87 0aa6 	vdiv.f32	s0, s15, s13

    return tmeas;
}
    6ad6:	ee37 0a40 	vsub.f32	s0, s14, s0
    6ada:	4770      	bx	lr
    6adc:	400d8100 	.word	0x400d8100
    6ae0:	20002334 	.word	0x20002334
    6ae4:	2000233c 	.word	0x2000233c
    6ae8:	20002340 	.word	0x20002340
    6aec:	20002338 	.word	0x20002338

00006af0 <schedule_transfer>:
{
	// when we stop at 6, why is the last transfer missing from the USB output?
	//if (transfer_log_count >= 6) return;

	//uint32_t ret = (*(const uint8_t *)transfer->pointer0) << 8;
	if (endpoint->callback_function) {
    6af0:	6b83      	ldr	r3, [r0, #56]	; 0x38
{
    6af2:	b4f0      	push	{r4, r5, r6, r7}
	if (endpoint->callback_function) {
    6af4:	b11b      	cbz	r3, 6afe <schedule_transfer+0xe>
		transfer->status |= (1<<15);
    6af6:	6853      	ldr	r3, [r2, #4]
    6af8:	f443 4300 	orr.w	r3, r3, #32768	; 0x8000
    6afc:	6053      	str	r3, [r2, #4]
	}
	__disable_irq();
    6afe:	b672      	cpsid	i
	//digitalWriteFast(1, HIGH);
	// Executing A Transfer Descriptor, page 2468 (RT1060 manual, Rev 1, 12/2018)
	transfer_t *last = endpoint->last_transfer;
    6b00:	6b44      	ldr	r4, [r0, #52]	; 0x34
	if (last) {
    6b02:	b33c      	cbz	r4, 6b54 <schedule_transfer+0x64>
		last->next = (uint32_t)transfer;
		if (USB1_ENDPTPRIME & epmask) goto end;
    6b04:	4b1a      	ldr	r3, [pc, #104]	; (6b70 <schedule_transfer+0x80>)
		last->next = (uint32_t)transfer;
    6b06:	6022      	str	r2, [r4, #0]
		if (USB1_ENDPTPRIME & epmask) goto end;
    6b08:	f8d3 41b0 	ldr.w	r4, [r3, #432]	; 0x1b0
    6b0c:	420c      	tst	r4, r1
    6b0e:	d11d      	bne.n	6b4c <schedule_transfer+0x5c>
		//digitalWriteFast(2, HIGH);
		//ret |= 0x01;
		uint32_t status, cyccnt=ARM_DWT_CYCCNT;
    6b10:	4e18      	ldr	r6, [pc, #96]	; (6b74 <schedule_transfer+0x84>)
    6b12:	6877      	ldr	r7, [r6, #4]
    6b14:	e004      	b.n	6b20 <schedule_transfer+0x30>
		do {
			USB1_USBCMD |= USB_USBCMD_ATDTW;
			status = USB1_ENDPTSTATUS;
		} while (!(USB1_USBCMD & USB_USBCMD_ATDTW) && (ARM_DWT_CYCCNT - cyccnt < 2400));
    6b16:	6874      	ldr	r4, [r6, #4]
    6b18:	1be4      	subs	r4, r4, r7
    6b1a:	f5b4 6f16 	cmp.w	r4, #2400	; 0x960
    6b1e:	d20b      	bcs.n	6b38 <schedule_transfer+0x48>
			USB1_USBCMD |= USB_USBCMD_ATDTW;
    6b20:	f8d3 4140 	ldr.w	r4, [r3, #320]	; 0x140
    6b24:	f444 4480 	orr.w	r4, r4, #16384	; 0x4000
    6b28:	f8c3 4140 	str.w	r4, [r3, #320]	; 0x140
			status = USB1_ENDPTSTATUS;
    6b2c:	f8d3 51b8 	ldr.w	r5, [r3, #440]	; 0x1b8
		} while (!(USB1_USBCMD & USB_USBCMD_ATDTW) && (ARM_DWT_CYCCNT - cyccnt < 2400));
    6b30:	f8d3 4140 	ldr.w	r4, [r3, #320]	; 0x140
    6b34:	0464      	lsls	r4, r4, #17
    6b36:	d5ee      	bpl.n	6b16 <schedule_transfer+0x26>
		//USB1_USBCMD &= ~USB_USBCMD_ATDTW;
		if (status & epmask) goto end;
    6b38:	400d      	ands	r5, r1
    6b3a:	d107      	bne.n	6b4c <schedule_transfer+0x5c>
		//ret |= 0x02;
		endpoint->next = (uint32_t)transfer;
		endpoint->status = 0;
		USB1_ENDPTPRIME |= epmask;
    6b3c:	4c0c      	ldr	r4, [pc, #48]	; (6b70 <schedule_transfer+0x80>)
		endpoint->status = 0;
    6b3e:	e9c0 2502 	strd	r2, r5, [r0, #8]
		USB1_ENDPTPRIME |= epmask;
    6b42:	f8d4 31b0 	ldr.w	r3, [r4, #432]	; 0x1b0
    6b46:	430b      	orrs	r3, r1
    6b48:	f8c4 31b0 	str.w	r3, [r4, #432]	; 0x1b0
	endpoint->next = (uint32_t)transfer;
	endpoint->status = 0;
	USB1_ENDPTPRIME |= epmask;
	endpoint->first_transfer = transfer;
end:
	endpoint->last_transfer = transfer;
    6b4c:	6342      	str	r2, [r0, #52]	; 0x34
	__enable_irq();
    6b4e:	b662      	cpsie	i
	//digitalWriteFast(2, LOW);
	//digitalWriteFast(1, LOW);
	//if (transfer_log_head > LOG_SIZE) transfer_log_head = 0;
	//transfer_log[transfer_log_head++] = ret;
	//transfer_log_count++;
}
    6b50:	bcf0      	pop	{r4, r5, r6, r7}
    6b52:	4770      	bx	lr
	USB1_ENDPTPRIME |= epmask;
    6b54:	4d06      	ldr	r5, [pc, #24]	; (6b70 <schedule_transfer+0x80>)
	endpoint->status = 0;
    6b56:	e9c0 2402 	strd	r2, r4, [r0, #8]
	USB1_ENDPTPRIME |= epmask;
    6b5a:	f8d5 31b0 	ldr.w	r3, [r5, #432]	; 0x1b0
    6b5e:	430b      	orrs	r3, r1
    6b60:	f8c5 31b0 	str.w	r3, [r5, #432]	; 0x1b0
	endpoint->first_transfer = transfer;
    6b64:	6302      	str	r2, [r0, #48]	; 0x30
	endpoint->last_transfer = transfer;
    6b66:	6342      	str	r2, [r0, #52]	; 0x34
	__enable_irq();
    6b68:	b662      	cpsie	i
}
    6b6a:	bcf0      	pop	{r4, r5, r6, r7}
    6b6c:	4770      	bx	lr
    6b6e:	bf00      	nop
    6b70:	402e0000 	.word	0x402e0000
    6b74:	e0001000 	.word	0xe0001000

00006b78 <run_callbacks>:
	void (*callback_function)(transfer_t *completed_transfer);
	uint32_t unused1;
};*/

static void run_callbacks(endpoint_t *ep)
{
    6b78:	b570      	push	{r4, r5, r6, lr}
	//printf("run_callbacks\n");
	transfer_t *first = ep->first_transfer;
    6b7a:	6b05      	ldr	r5, [r0, #48]	; 0x30
	if (first == NULL) return;
    6b7c:	b19d      	cbz	r5, 6ba6 <run_callbacks+0x2e>
    6b7e:	4606      	mov	r6, r0
    6b80:	462a      	mov	r2, r5

	// count how many transfers are completed, then remove them from the endpoint's list
	uint32_t count = 0;
    6b82:	2400      	movs	r4, #0
    6b84:	e003      	b.n	6b8e <run_callbacks+0x16>
			//printf(" still active\n");
			ep->first_transfer = t;
			break;
		}
		count++;
		t = (transfer_t *)t->next;
    6b86:	6812      	ldr	r2, [r2, #0]
		count++;
    6b88:	3401      	adds	r4, #1
		if ((uint32_t)t == 1) {
    6b8a:	2a01      	cmp	r2, #1
    6b8c:	d00c      	beq.n	6ba8 <run_callbacks+0x30>
		if (t->status & (1<<7)) {
    6b8e:	6853      	ldr	r3, [r2, #4]
    6b90:	f013 0380 	ands.w	r3, r3, #128	; 0x80
    6b94:	d0f7      	beq.n	6b86 <run_callbacks+0xe>
			ep->first_transfer = t;
    6b96:	6332      	str	r2, [r6, #48]	; 0x30
			ep->last_transfer = NULL;
			break;
		}
	}
	// do all the callbacks
	while (count) {
    6b98:	b12c      	cbz	r4, 6ba6 <run_callbacks+0x2e>
		transfer_t *next = (transfer_t *)first->next;
    6b9a:	4628      	mov	r0, r5
		ep->callback_function(first);
    6b9c:	6bb3      	ldr	r3, [r6, #56]	; 0x38
		transfer_t *next = (transfer_t *)first->next;
    6b9e:	682d      	ldr	r5, [r5, #0]
		ep->callback_function(first);
    6ba0:	4798      	blx	r3
	while (count) {
    6ba2:	3c01      	subs	r4, #1
    6ba4:	d1f9      	bne.n	6b9a <run_callbacks+0x22>
		first = next;
		count--;
	}
}
    6ba6:	bd70      	pop	{r4, r5, r6, pc}
			ep->last_transfer = NULL;
    6ba8:	e9c6 330c 	strd	r3, r3, [r6, #48]	; 0x30
			break;
    6bac:	e7f4      	b.n	6b98 <run_callbacks+0x20>
    6bae:	bf00      	nop

00006bb0 <endpoint0_transmit.constprop.0>:
static void endpoint0_transmit(const void *data, uint32_t len, int notify)
    6bb0:	b430      	push	{r4, r5}
	if (len > 0) {
    6bb2:	b9d9      	cbnz	r1, 6bec <endpoint0_transmit.constprop.0+0x3c>
    6bb4:	4c1f      	ldr	r4, [pc, #124]	; (6c34 <endpoint0_transmit.constprop.0+0x84>)
	endpoint0_transfer_ack.next = 1;
    6bb6:	4b20      	ldr	r3, [pc, #128]	; (6c38 <endpoint0_transmit.constprop.0+0x88>)
	endpoint0_transfer_ack.pointer0 = 0;
    6bb8:	2100      	movs	r1, #0
	USB1_ENDPTCOMPLETE = (1<<0) | (1<<16);
    6bba:	4a20      	ldr	r2, [pc, #128]	; (6c3c <endpoint0_transmit.constprop.0+0x8c>)
	endpoint0_transfer_ack.next = 1;
    6bbc:	2501      	movs	r5, #1
	USB1_ENDPTCOMPLETE = (1<<0) | (1<<16);
    6bbe:	f04f 1001 	mov.w	r0, #65537	; 0x10001
	endpoint0_transfer_ack.pointer0 = 0;
    6bc2:	6099      	str	r1, [r3, #8]
	endpoint0_transfer_ack.next = 1;
    6bc4:	601d      	str	r5, [r3, #0]
	endpoint_queue_head[0].status = 0;
    6bc6:	e9c4 3102 	strd	r3, r1, [r4, #8]
	endpoint0_transfer_ack.status = (1<<7) | (notify ? (1 << 15) : 0);
    6bca:	2480      	movs	r4, #128	; 0x80
    6bcc:	605c      	str	r4, [r3, #4]
	USB1_ENDPTCOMPLETE = (1<<0) | (1<<16);
    6bce:	f8c2 01bc 	str.w	r0, [r2, #444]	; 0x1bc
	USB1_ENDPTPRIME |= (1<<0);
    6bd2:	f8d2 31b0 	ldr.w	r3, [r2, #432]	; 0x1b0
	endpoint0_notify_mask = (notify ? (1 << 0) : 0);
    6bd6:	481a      	ldr	r0, [pc, #104]	; (6c40 <endpoint0_transmit.constprop.0+0x90>)
	USB1_ENDPTPRIME |= (1<<0);
    6bd8:	432b      	orrs	r3, r5
    6bda:	f8c2 31b0 	str.w	r3, [r2, #432]	; 0x1b0
	endpoint0_notify_mask = (notify ? (1 << 0) : 0);
    6bde:	6001      	str	r1, [r0, #0]
	while (USB1_ENDPTPRIME) ;
    6be0:	f8d2 31b0 	ldr.w	r3, [r2, #432]	; 0x1b0
    6be4:	2b00      	cmp	r3, #0
    6be6:	d1fb      	bne.n	6be0 <endpoint0_transmit.constprop.0+0x30>
}
    6be8:	bc30      	pop	{r4, r5}
    6bea:	4770      	bx	lr
		endpoint0_transfer_data.status = (len << 16) | (1<<7);
    6bec:	0409      	lsls	r1, r1, #16
		endpoint0_transfer_data.next = 1;
    6bee:	4b15      	ldr	r3, [pc, #84]	; (6c44 <endpoint0_transmit.constprop.0+0x94>)
		endpoint_queue_head[1].next = (uint32_t)&endpoint0_transfer_data;
    6bf0:	4c10      	ldr	r4, [pc, #64]	; (6c34 <endpoint0_transmit.constprop.0+0x84>)
		endpoint0_transfer_data.next = 1;
    6bf2:	2501      	movs	r5, #1
		endpoint0_transfer_data.status = (len << 16) | (1<<7);
    6bf4:	f041 0180 	orr.w	r1, r1, #128	; 0x80
		endpoint0_transfer_data.pointer0 = addr; // format: table 55-60, pg 3159
    6bf8:	6098      	str	r0, [r3, #8]
		USB1_ENDPTPRIME |= (1<<16);
    6bfa:	4a10      	ldr	r2, [pc, #64]	; (6c3c <endpoint0_transmit.constprop.0+0x8c>)
		endpoint0_transfer_data.status = (len << 16) | (1<<7);
    6bfc:	6059      	str	r1, [r3, #4]
		endpoint0_transfer_data.pointer1 = addr + 4096;
    6bfe:	f500 5180 	add.w	r1, r0, #4096	; 0x1000
		endpoint0_transfer_data.next = 1;
    6c02:	601d      	str	r5, [r3, #0]
		endpoint0_transfer_data.pointer1 = addr + 4096;
    6c04:	60d9      	str	r1, [r3, #12]
		endpoint0_transfer_data.pointer2 = addr + 8192;
    6c06:	f500 5100 	add.w	r1, r0, #8192	; 0x2000
		endpoint_queue_head[1].next = (uint32_t)&endpoint0_transfer_data;
    6c0a:	64a3      	str	r3, [r4, #72]	; 0x48
		endpoint0_transfer_data.pointer2 = addr + 8192;
    6c0c:	6119      	str	r1, [r3, #16]
		endpoint0_transfer_data.pointer3 = addr + 12288;
    6c0e:	f500 5140 	add.w	r1, r0, #12288	; 0x3000
		endpoint0_transfer_data.pointer4 = addr + 16384;
    6c12:	f500 4080 	add.w	r0, r0, #16384	; 0x4000
		endpoint0_transfer_data.pointer3 = addr + 12288;
    6c16:	6159      	str	r1, [r3, #20]
		endpoint_queue_head[1].status = 0;
    6c18:	2100      	movs	r1, #0
		endpoint0_transfer_data.pointer4 = addr + 16384;
    6c1a:	6198      	str	r0, [r3, #24]
		endpoint_queue_head[1].status = 0;
    6c1c:	64e1      	str	r1, [r4, #76]	; 0x4c
		USB1_ENDPTPRIME |= (1<<16);
    6c1e:	f8d2 31b0 	ldr.w	r3, [r2, #432]	; 0x1b0
    6c22:	f443 3380 	orr.w	r3, r3, #65536	; 0x10000
    6c26:	f8c2 31b0 	str.w	r3, [r2, #432]	; 0x1b0
		while (USB1_ENDPTPRIME) ;
    6c2a:	f8d2 31b0 	ldr.w	r3, [r2, #432]	; 0x1b0
    6c2e:	2b00      	cmp	r3, #0
    6c30:	d1fb      	bne.n	6c2a <endpoint0_transmit.constprop.0+0x7a>
    6c32:	e7c0      	b.n	6bb6 <endpoint0_transmit.constprop.0+0x6>
    6c34:	20000000 	.word	0x20000000
    6c38:	20001b20 	.word	0x20001b20
    6c3c:	402e0000 	.word	0x402e0000
    6c40:	20002120 	.word	0x20002120
    6c44:	20001b40 	.word	0x20001b40

00006c48 <usb_stop_sof_interrupts>:
	sof_usage &= ~(1 << interface);
    6c48:	4908      	ldr	r1, [pc, #32]	; (6c6c <usb_stop_sof_interrupts+0x24>)
    6c4a:	2201      	movs	r2, #1
    6c4c:	780b      	ldrb	r3, [r1, #0]
    6c4e:	fa02 f000 	lsl.w	r0, r2, r0
    6c52:	ea23 0000 	bic.w	r0, r3, r0
    6c56:	7008      	strb	r0, [r1, #0]
	if (sof_usage == 0) {
    6c58:	b930      	cbnz	r0, 6c68 <usb_stop_sof_interrupts+0x20>
		USB1_USBINTR &= ~USB_USBINTR_SRE;
    6c5a:	4a05      	ldr	r2, [pc, #20]	; (6c70 <usb_stop_sof_interrupts+0x28>)
    6c5c:	f8d2 3148 	ldr.w	r3, [r2, #328]	; 0x148
    6c60:	f023 0380 	bic.w	r3, r3, #128	; 0x80
    6c64:	f8c2 3148 	str.w	r3, [r2, #328]	; 0x148
}
    6c68:	4770      	bx	lr
    6c6a:	bf00      	nop
    6c6c:	20002379 	.word	0x20002379
    6c70:	402e0000 	.word	0x402e0000

00006c74 <usb_isr>:
{
    6c74:	e92d 4ff0 	stmdb	sp!, {r4, r5, r6, r7, r8, r9, sl, fp, lr}
	uint32_t status = USB1_USBSTS;
    6c78:	4c97      	ldr	r4, [pc, #604]	; (6ed8 <usb_isr+0x264>)
{
    6c7a:	b083      	sub	sp, #12
	uint32_t status = USB1_USBSTS;
    6c7c:	f8d4 7144 	ldr.w	r7, [r4, #324]	; 0x144
	if (status & USB_USBSTS_UI) {
    6c80:	07fb      	lsls	r3, r7, #31
	USB1_USBSTS = status;
    6c82:	f8c4 7144 	str.w	r7, [r4, #324]	; 0x144
	if (status & USB_USBSTS_UI) {
    6c86:	d553      	bpl.n	6d30 <usb_isr+0xbc>
		uint32_t setupstatus = USB1_ENDPTSETUPSTAT;
    6c88:	f8d4 21ac 	ldr.w	r2, [r4, #428]	; 0x1ac
		while (setupstatus) {
    6c8c:	2a00      	cmp	r2, #0
    6c8e:	d04a      	beq.n	6d26 <usb_isr+0xb2>
    6c90:	4e92      	ldr	r6, [pc, #584]	; (6edc <usb_isr+0x268>)
    6c92:	f8df a260 	ldr.w	sl, [pc, #608]	; 6ef4 <usb_isr+0x280>
		uint32_t addr = (uint32_t)data;
    6c96:	f8df 9274 	ldr.w	r9, [pc, #628]	; 6f0c <usb_isr+0x298>
		endpoint_queue_head[2].pointer4 = 0xB8C6CF5D;
    6c9a:	f8df b274 	ldr.w	fp, [pc, #628]	; 6f10 <usb_isr+0x29c>
			*((volatile uint32_t *)&USB1_ENDPTCTRL0 + endpoint) |= USB_ENDPTCTRL_RXS;
    6c9e:	f8df 8274 	ldr.w	r8, [pc, #628]	; 6f14 <usb_isr+0x2a0>
			USB1_ENDPTSETUPSTAT = setupstatus;
    6ca2:	f8c4 21ac 	str.w	r2, [r4, #428]	; 0x1ac
				s.word2 = endpoint_queue_head[0].setup1;
    6ca6:	e9d6 200a 	ldrd	r2, r0, [r6, #40]	; 0x28
				USB1_USBCMD |= USB_USBCMD_SUTW;
    6caa:	f8d4 3140 	ldr.w	r3, [r4, #320]	; 0x140
    6cae:	f443 5300 	orr.w	r3, r3, #8192	; 0x2000
    6cb2:	f8c4 3140 	str.w	r3, [r4, #320]	; 0x140
			} while (!(USB1_USBCMD & USB_USBCMD_SUTW));
    6cb6:	f8d4 3140 	ldr.w	r3, [r4, #320]	; 0x140
    6cba:	049d      	lsls	r5, r3, #18
    6cbc:	d5f5      	bpl.n	6caa <usb_isr+0x36>
			USB1_USBCMD &= ~USB_USBCMD_SUTW;
    6cbe:	f8d4 3140 	ldr.w	r3, [r4, #320]	; 0x140
    6cc2:	f423 5300 	bic.w	r3, r3, #8192	; 0x2000
    6cc6:	f8c4 3140 	str.w	r3, [r4, #320]	; 0x140
			USB1_ENDPTFLUSH = (1<<16) | (1<<0); // page 3174
    6cca:	f04f 1301 	mov.w	r3, #65537	; 0x10001
    6cce:	f8c4 31b4 	str.w	r3, [r4, #436]	; 0x1b4
			while (USB1_ENDPTFLUSH & ((1<<16) | (1<<0))) ;
    6cd2:	f8d4 51b4 	ldr.w	r5, [r4, #436]	; 0x1b4
    6cd6:	f015 1501 	ands.w	r5, r5, #65537	; 0x10001
    6cda:	d1fa      	bne.n	6cd2 <usb_isr+0x5e>
			endpoint0_notify_mask = 0;
    6cdc:	b293      	uxth	r3, r2
	setup.bothwords = setupdata;
    6cde:	4684      	mov	ip, r0
			endpoint0_notify_mask = 0;
    6ce0:	f8ca 5000 	str.w	r5, [sl]
	switch (setup.wRequestAndType) {
    6ce4:	f5b3 6f08 	cmp.w	r3, #2176	; 0x880
    6ce8:	f000 81cf 	beq.w	708a <usb_isr+0x416>
    6cec:	f200 80db 	bhi.w	6ea6 <usb_isr+0x232>
    6cf0:	f240 3102 	movw	r1, #770	; 0x302
    6cf4:	428b      	cmp	r3, r1
    6cf6:	f000 81e7 	beq.w	70c8 <usb_isr+0x454>
    6cfa:	f200 809a 	bhi.w	6e32 <usb_isr+0x1be>
    6cfe:	2b82      	cmp	r3, #130	; 0x82
    6d00:	f000 81cb 	beq.w	709a <usb_isr+0x426>
    6d04:	f5b3 7f81 	cmp.w	r3, #258	; 0x102
    6d08:	f040 808a 	bne.w	6e20 <usb_isr+0x1ac>
		if (endpoint > 7) break;
    6d0c:	f010 0f78 	tst.w	r0, #120	; 0x78
    6d10:	b283      	uxth	r3, r0
    6d12:	f000 8203 	beq.w	711c <usb_isr+0x4a8>
	USB1_ENDPTCTRL0 = 0x000010001; // stall
    6d16:	f04f 1301 	mov.w	r3, #65537	; 0x10001
    6d1a:	f8c4 31c0 	str.w	r3, [r4, #448]	; 0x1c0
			setupstatus = USB1_ENDPTSETUPSTAT; // page 3175
    6d1e:	f8d4 21ac 	ldr.w	r2, [r4, #428]	; 0x1ac
		while (setupstatus) {
    6d22:	2a00      	cmp	r2, #0
    6d24:	d1bd      	bne.n	6ca2 <usb_isr+0x2e>
		uint32_t completestatus = USB1_ENDPTCOMPLETE;
    6d26:	4a6c      	ldr	r2, [pc, #432]	; (6ed8 <usb_isr+0x264>)
    6d28:	f8d2 31bc 	ldr.w	r3, [r2, #444]	; 0x1bc
		if (completestatus) {
    6d2c:	2b00      	cmp	r3, #0
    6d2e:	d142      	bne.n	6db6 <usb_isr+0x142>
	if (status & USB_USBSTS_URI) { // page 3164
    6d30:	067e      	lsls	r6, r7, #25
    6d32:	d516      	bpl.n	6d62 <usb_isr+0xee>
		USB1_ENDPTSETUPSTAT = USB1_ENDPTSETUPSTAT; // Clear all setup token semaphores
    6d34:	4b68      	ldr	r3, [pc, #416]	; (6ed8 <usb_isr+0x264>)
    6d36:	f8d3 21ac 	ldr.w	r2, [r3, #428]	; 0x1ac
    6d3a:	f8c3 21ac 	str.w	r2, [r3, #428]	; 0x1ac
		USB1_ENDPTCOMPLETE = USB1_ENDPTCOMPLETE; // Clear all the endpoint complete status
    6d3e:	f8d3 21bc 	ldr.w	r2, [r3, #444]	; 0x1bc
    6d42:	f8c3 21bc 	str.w	r2, [r3, #444]	; 0x1bc
		while (USB1_ENDPTPRIME != 0) ; // Wait for any endpoint priming
    6d46:	f8d3 41b0 	ldr.w	r4, [r3, #432]	; 0x1b0
    6d4a:	2c00      	cmp	r4, #0
    6d4c:	d1fb      	bne.n	6d46 <usb_isr+0xd2>
		USB1_ENDPTFLUSH = 0xFFFFFFFF;  // Cancel all endpoint primed status
    6d4e:	f04f 32ff 	mov.w	r2, #4294967295
    6d52:	f8c3 21b4 	str.w	r2, [r3, #436]	; 0x1b4
		if ((USB1_PORTSC1 & USB_PORTSC1_PR)) {
    6d56:	f8d3 3184 	ldr.w	r3, [r3, #388]	; 0x184
		usb_serial_reset();
    6d5a:	f000 fd2d 	bl	77b8 <usb_serial_reset>
		endpointN_notify_mask = 0;
    6d5e:	4b60      	ldr	r3, [pc, #384]	; (6ee0 <usb_isr+0x26c>)
    6d60:	601c      	str	r4, [r3, #0]
	if (status & USB_USBSTS_TI0) {
    6d62:	01fc      	lsls	r4, r7, #7
    6d64:	d503      	bpl.n	6d6e <usb_isr+0xfa>
		if (usb_timer0_callback != NULL) usb_timer0_callback();
    6d66:	4b5f      	ldr	r3, [pc, #380]	; (6ee4 <usb_isr+0x270>)
    6d68:	681b      	ldr	r3, [r3, #0]
    6d6a:	b103      	cbz	r3, 6d6e <usb_isr+0xfa>
    6d6c:	4798      	blx	r3
	if (status & USB_USBSTS_TI1) {
    6d6e:	01b8      	lsls	r0, r7, #6
    6d70:	d503      	bpl.n	6d7a <usb_isr+0x106>
		if (usb_timer1_callback != NULL) usb_timer1_callback();
    6d72:	4b5d      	ldr	r3, [pc, #372]	; (6ee8 <usb_isr+0x274>)
    6d74:	681b      	ldr	r3, [r3, #0]
    6d76:	b103      	cbz	r3, 6d7a <usb_isr+0x106>
    6d78:	4798      	blx	r3
	if (status & USB_USBSTS_PCI) {
    6d7a:	0779      	lsls	r1, r7, #29
    6d7c:	d508      	bpl.n	6d90 <usb_isr+0x11c>
		if (USB1_PORTSC1 & USB_PORTSC1_HSP) {
    6d7e:	4b56      	ldr	r3, [pc, #344]	; (6ed8 <usb_isr+0x264>)
    6d80:	f8d3 3184 	ldr.w	r3, [r3, #388]	; 0x184
    6d84:	f413 7300 	ands.w	r3, r3, #512	; 0x200
    6d88:	d047      	beq.n	6e1a <usb_isr+0x1a6>
			usb_high_speed = 1;
    6d8a:	4b58      	ldr	r3, [pc, #352]	; (6eec <usb_isr+0x278>)
    6d8c:	2201      	movs	r2, #1
    6d8e:	701a      	strb	r2, [r3, #0]
	if ((USB1_USBINTR & USB_USBINTR_SRE) && (status & USB_USBSTS_SRI)) {
    6d90:	4b51      	ldr	r3, [pc, #324]	; (6ed8 <usb_isr+0x264>)
    6d92:	f8d3 3148 	ldr.w	r3, [r3, #328]	; 0x148
    6d96:	061a      	lsls	r2, r3, #24
    6d98:	d50a      	bpl.n	6db0 <usb_isr+0x13c>
    6d9a:	063b      	lsls	r3, r7, #24
    6d9c:	d508      	bpl.n	6db0 <usb_isr+0x13c>
		if (usb_reboot_timer) {
    6d9e:	4a54      	ldr	r2, [pc, #336]	; (6ef0 <usb_isr+0x27c>)
    6da0:	7813      	ldrb	r3, [r2, #0]
    6da2:	b12b      	cbz	r3, 6db0 <usb_isr+0x13c>
			if (--usb_reboot_timer == 0) {
    6da4:	3b01      	subs	r3, #1
    6da6:	b2db      	uxtb	r3, r3
    6da8:	7013      	strb	r3, [r2, #0]
    6daa:	2b00      	cmp	r3, #0
    6dac:	f000 8272 	beq.w	7294 <usb_isr+0x620>
}
    6db0:	b003      	add	sp, #12
    6db2:	e8bd 8ff0 	ldmia.w	sp!, {r4, r5, r6, r7, r8, r9, sl, fp, pc}
			if (completestatus & endpoint0_notify_mask) {
    6db6:	494f      	ldr	r1, [pc, #316]	; (6ef4 <usb_isr+0x280>)
			USB1_ENDPTCOMPLETE = completestatus;
    6db8:	f8c2 31bc 	str.w	r3, [r2, #444]	; 0x1bc
			if (completestatus & endpoint0_notify_mask) {
    6dbc:	6808      	ldr	r0, [r1, #0]
    6dbe:	4203      	tst	r3, r0
    6dc0:	f040 81d1 	bne.w	7166 <usb_isr+0x4f2>
			completestatus &= endpointN_notify_mask;
    6dc4:	4a46      	ldr	r2, [pc, #280]	; (6ee0 <usb_isr+0x26c>)
    6dc6:	6814      	ldr	r4, [r2, #0]
			if (completestatus) {
    6dc8:	401c      	ands	r4, r3
    6dca:	d0b1      	beq.n	6d30 <usb_isr+0xbc>
				while (tx) {
    6dcc:	ea5f 4814 	movs.w	r8, r4, lsr #16
    6dd0:	d010      	beq.n	6df4 <usb_isr+0x180>
    6dd2:	4e42      	ldr	r6, [pc, #264]	; (6edc <usb_isr+0x268>)
					tx &= ~(1<<p);
    6dd4:	f04f 0901 	mov.w	r9, #1
					int p=__builtin_ctz(tx);
    6dd8:	fa98 f5a8 	rbit	r5, r8
    6ddc:	fab5 f585 	clz	r5, r5
					run_callbacks(endpoint_queue_head + p * 2 + 1);
    6de0:	eb06 10c5 	add.w	r0, r6, r5, lsl #7
					tx &= ~(1<<p);
    6de4:	fa09 f505 	lsl.w	r5, r9, r5
					run_callbacks(endpoint_queue_head + p * 2 + 1);
    6de8:	3040      	adds	r0, #64	; 0x40
    6dea:	f7ff fec5 	bl	6b78 <run_callbacks>
				while (tx) {
    6dee:	ea38 0805 	bics.w	r8, r8, r5
    6df2:	d1f1      	bne.n	6dd8 <usb_isr+0x164>
				uint32_t rx = completestatus & 0xffff;
    6df4:	b2a4      	uxth	r4, r4
				while(rx) {
    6df6:	2c00      	cmp	r4, #0
    6df8:	d09a      	beq.n	6d30 <usb_isr+0xbc>
    6dfa:	4e38      	ldr	r6, [pc, #224]	; (6edc <usb_isr+0x268>)
					rx &= ~(1<<p);
    6dfc:	f04f 0801 	mov.w	r8, #1
					int p=__builtin_ctz(rx);
    6e00:	fa94 f5a4 	rbit	r5, r4
    6e04:	fab5 f585 	clz	r5, r5
					run_callbacks(endpoint_queue_head + p * 2);
    6e08:	eb06 10c5 	add.w	r0, r6, r5, lsl #7
					rx &= ~(1<<p);
    6e0c:	fa08 f505 	lsl.w	r5, r8, r5
					run_callbacks(endpoint_queue_head + p * 2);
    6e10:	f7ff feb2 	bl	6b78 <run_callbacks>
				while(rx) {
    6e14:	43ac      	bics	r4, r5
    6e16:	d1f3      	bne.n	6e00 <usb_isr+0x18c>
    6e18:	e78a      	b.n	6d30 <usb_isr+0xbc>
			usb_high_speed = 0;
    6e1a:	4a34      	ldr	r2, [pc, #208]	; (6eec <usb_isr+0x278>)
    6e1c:	7013      	strb	r3, [r2, #0]
    6e1e:	e7b7      	b.n	6d90 <usb_isr+0x11c>
	switch (setup.wRequestAndType) {
    6e20:	2b80      	cmp	r3, #128	; 0x80
    6e22:	f47f af78 	bne.w	6d16 <usb_isr+0xa2>
		reply_buffer[0] = 0;
    6e26:	4834      	ldr	r0, [pc, #208]	; (6ef8 <usb_isr+0x284>)
		endpoint0_transmit(reply_buffer, 2, 0);
    6e28:	2102      	movs	r1, #2
		reply_buffer[0] = 0;
    6e2a:	8005      	strh	r5, [r0, #0]
		endpoint0_transmit(reply_buffer, 2, 0);
    6e2c:	f7ff fec0 	bl	6bb0 <endpoint0_transmit.constprop.0>
		return;
    6e30:	e775      	b.n	6d1e <usb_isr+0xaa>
	switch (setup.wRequestAndType) {
    6e32:	f5b3 6fa0 	cmp.w	r3, #1280	; 0x500
    6e36:	f000 810b 	beq.w	7050 <usb_isr+0x3dc>
    6e3a:	f5a3 63d0 	sub.w	r3, r3, #1664	; 0x680
    6e3e:	2b01      	cmp	r3, #1
    6e40:	f63f af69 	bhi.w	6d16 <usb_isr+0xa2>
		for (list = usb_descriptor_list; list->addr != NULL; list++) {
    6e44:	4b2d      	ldr	r3, [pc, #180]	; (6efc <usb_isr+0x288>)
    6e46:	685d      	ldr	r5, [r3, #4]
    6e48:	2d00      	cmp	r5, #0
    6e4a:	f43f af64 	beq.w	6d16 <usb_isr+0xa2>
			if (setup.wValue == list->wValue && setup.wIndex == list->wIndex) {
    6e4e:	fa1f fc8c 	uxth.w	ip, ip
    6e52:	ea4f 4e12 	mov.w	lr, r2, lsr #16
    6e56:	e004      	b.n	6e62 <usb_isr+0x1ee>
		for (list = usb_descriptor_list; list->addr != NULL; list++) {
    6e58:	691d      	ldr	r5, [r3, #16]
    6e5a:	330c      	adds	r3, #12
    6e5c:	2d00      	cmp	r5, #0
    6e5e:	f43f af5a 	beq.w	6d16 <usb_isr+0xa2>
			if (setup.wValue == list->wValue && setup.wIndex == list->wIndex) {
    6e62:	881a      	ldrh	r2, [r3, #0]
    6e64:	4572      	cmp	r2, lr
    6e66:	d1f7      	bne.n	6e58 <usb_isr+0x1e4>
    6e68:	885a      	ldrh	r2, [r3, #2]
    6e6a:	4562      	cmp	r2, ip
    6e6c:	d1f4      	bne.n	6e58 <usb_isr+0x1e4>
				if ((setup.wValue >> 8) == 3) {
    6e6e:	ea4f 221e 	mov.w	r2, lr, lsr #8
    6e72:	2a03      	cmp	r2, #3
    6e74:	f000 81a5 	beq.w	71c2 <usb_isr+0x54e>
					datalen = list->length;
    6e78:	891a      	ldrh	r2, [r3, #8]
				if (datalen > setup.wLength) datalen = setup.wLength;
    6e7a:	0c00      	lsrs	r0, r0, #16
    6e7c:	4282      	cmp	r2, r0
    6e7e:	bf28      	it	cs
    6e80:	4602      	movcs	r2, r0
				if (setup.wValue == 0x200) {
    6e82:	f5be 7f00 	cmp.w	lr, #512	; 0x200
    6e86:	f040 81a1 	bne.w	71cc <usb_isr+0x558>
					if (usb_high_speed) src = usb_config_descriptor_480;
    6e8a:	4b18      	ldr	r3, [pc, #96]	; (6eec <usb_isr+0x278>)
    6e8c:	491c      	ldr	r1, [pc, #112]	; (6f00 <usb_isr+0x28c>)
    6e8e:	7818      	ldrb	r0, [r3, #0]
    6e90:	4b1c      	ldr	r3, [pc, #112]	; (6f04 <usb_isr+0x290>)
					memcpy(usb_descriptor_buffer, src, datalen);
    6e92:	9201      	str	r2, [sp, #4]
    6e94:	2800      	cmp	r0, #0
    6e96:	bf18      	it	ne
    6e98:	4619      	movne	r1, r3
    6e9a:	481b      	ldr	r0, [pc, #108]	; (6f08 <usb_isr+0x294>)
    6e9c:	f7ff fc42 	bl	6724 <memcpy>
    6ea0:	4d19      	ldr	r5, [pc, #100]	; (6f08 <usb_isr+0x294>)
    6ea2:	9a01      	ldr	r2, [sp, #4]
    6ea4:	e1e1      	b.n	726a <usb_isr+0x5f6>
	switch (setup.wRequestAndType) {
    6ea6:	f242 2121 	movw	r1, #8737	; 0x2221
    6eaa:	428b      	cmp	r3, r1
    6eac:	d07c      	beq.n	6fa8 <usb_isr+0x334>
    6eae:	d933      	bls.n	6f18 <usb_isr+0x2a4>
    6eb0:	f242 3121 	movw	r1, #8993	; 0x2321
    6eb4:	428b      	cmp	r3, r1
    6eb6:	f000 8081 	beq.w	6fbc <usb_isr+0x348>
    6eba:	f64f 01c0 	movw	r1, #63680	; 0xf8c0
    6ebe:	428b      	cmp	r3, r1
    6ec0:	f47f af29 	bne.w	6d16 <usb_isr+0xa2>
		if ((setup.wIndex & 0xFF00) != 0) break; // 1=Genre, 4=Compat ID, 5=Properties
    6ec4:	f410 4f7f 	tst.w	r0, #65280	; 0xff00
    6ec8:	b283      	uxth	r3, r0
    6eca:	f47f af24 	bne.w	6d16 <usb_isr+0xa2>
		setup.wIndex |= 0xEE00; // alter wIndex and treat as normal USB descriptor
    6ece:	f443 436e 	orr.w	r3, r3, #60928	; 0xee00
    6ed2:	f363 0c0f 	bfi	ip, r3, #0, #16
    6ed6:	e7b5      	b.n	6e44 <usb_isr+0x1d0>
    6ed8:	402e0000 	.word	0x402e0000
    6edc:	20000000 	.word	0x20000000
    6ee0:	20002124 	.word	0x20002124
    6ee4:	20002364 	.word	0x20002364
    6ee8:	20002368 	.word	0x20002368
    6eec:	20002380 	.word	0x20002380
    6ef0:	20002381 	.word	0x20002381
    6ef4:	20002120 	.word	0x20002120
    6ef8:	200022fc 	.word	0x200022fc
    6efc:	20000b30 	.word	0x20000b30
    6f00:	60001b40 	.word	0x60001b40
    6f04:	60001ba4 	.word	0x60001ba4
    6f08:	20200000 	.word	0x20200000
    6f0c:	20002118 	.word	0x20002118
    6f10:	b8c6cf5d 	.word	0xb8c6cf5d
    6f14:	402e01c0 	.word	0x402e01c0
	switch (setup.wRequestAndType) {
    6f18:	f5b3 6f10 	cmp.w	r3, #2304	; 0x900
    6f1c:	d066      	beq.n	6fec <usb_isr+0x378>
    6f1e:	f242 0121 	movw	r1, #8225	; 0x2021
    6f22:	428b      	cmp	r3, r1
    6f24:	f47f aef7 	bne.w	6d16 <usb_isr+0xa2>
		if (setup.wLength != 7) break;
    6f28:	0c03      	lsrs	r3, r0, #16
    6f2a:	2b07      	cmp	r3, #7
    6f2c:	f47f aef3 	bne.w	6d16 <usb_isr+0xa2>
		endpoint0_transfer_data.next = 1;
    6f30:	4bb2      	ldr	r3, [pc, #712]	; (71fc <usb_isr+0x588>)
		endpoint0_transfer_data.pointer1 = addr + 4096;
    6f32:	49b3      	ldr	r1, [pc, #716]	; (7200 <usb_isr+0x58c>)
		endpoint_queue_head[0].status = 0;
    6f34:	60f5      	str	r5, [r6, #12]
		endpoint0_transfer_data.pointer1 = addr + 4096;
    6f36:	60d9      	str	r1, [r3, #12]
		endpoint0_setupdata.bothwords = setupdata;
    6f38:	49b2      	ldr	r1, [pc, #712]	; (7204 <usb_isr+0x590>)
		endpoint_queue_head[0].next = (uint32_t)&endpoint0_transfer_data;
    6f3a:	60b3      	str	r3, [r6, #8]
		endpoint0_transfer_data.pointer0 = addr; // format: table 55-60, pg 3159
    6f3c:	f8c3 9008 	str.w	r9, [r3, #8]
		endpoint0_setupdata.bothwords = setupdata;
    6f40:	e9c1 2000 	strd	r2, r0, [r1]
		endpoint0_transfer_data.next = 1;
    6f44:	2201      	movs	r2, #1
    6f46:	601a      	str	r2, [r3, #0]
		endpoint0_transfer_data.status = (len << 16) | (1<<7);
    6f48:	4aaf      	ldr	r2, [pc, #700]	; (7208 <usb_isr+0x594>)
    6f4a:	605a      	str	r2, [r3, #4]
		endpoint0_transfer_data.pointer2 = addr + 8192;
    6f4c:	4aaf      	ldr	r2, [pc, #700]	; (720c <usb_isr+0x598>)
    6f4e:	611a      	str	r2, [r3, #16]
		USB1_ENDPTPRIME |= (1<<0);
    6f50:	f8d4 11b0 	ldr.w	r1, [r4, #432]	; 0x1b0
    6f54:	f041 0101 	orr.w	r1, r1, #1
    6f58:	f8c4 11b0 	str.w	r1, [r4, #432]	; 0x1b0
		endpoint0_transfer_data.pointer3 = addr + 12288;
    6f5c:	f502 5180 	add.w	r1, r2, #4096	; 0x1000
		endpoint0_transfer_data.pointer4 = addr + 16384;
    6f60:	f502 5200 	add.w	r2, r2, #8192	; 0x2000
		endpoint0_transfer_data.pointer3 = addr + 12288;
    6f64:	6159      	str	r1, [r3, #20]
		endpoint0_transfer_data.pointer4 = addr + 16384;
    6f66:	619a      	str	r2, [r3, #24]
		while (USB1_ENDPTPRIME) ;
    6f68:	f8d4 31b0 	ldr.w	r3, [r4, #432]	; 0x1b0
    6f6c:	2b00      	cmp	r3, #0
    6f6e:	d1fb      	bne.n	6f68 <usb_isr+0x2f4>
	endpoint0_transfer_ack.next = 1;
    6f70:	4aa7      	ldr	r2, [pc, #668]	; (7210 <usb_isr+0x59c>)
	endpoint_queue_head[1].status = 0;
    6f72:	64f3      	str	r3, [r6, #76]	; 0x4c
	endpoint0_transfer_ack.pointer0 = 0;
    6f74:	6093      	str	r3, [r2, #8]
	endpoint0_transfer_ack.next = 1;
    6f76:	2301      	movs	r3, #1
	endpoint_queue_head[1].next = (uint32_t)&endpoint0_transfer_ack;
    6f78:	64b2      	str	r2, [r6, #72]	; 0x48
	endpoint0_transfer_ack.next = 1;
    6f7a:	6013      	str	r3, [r2, #0]
	endpoint0_transfer_ack.status = (1<<7) | (notify ? (1 << 15) : 0);
    6f7c:	f248 0380 	movw	r3, #32896	; 0x8080
    6f80:	6053      	str	r3, [r2, #4]
	USB1_ENDPTCOMPLETE = (1<<0) | (1<<16);
    6f82:	f04f 1301 	mov.w	r3, #65537	; 0x10001
    6f86:	f8c4 31bc 	str.w	r3, [r4, #444]	; 0x1bc
	USB1_ENDPTPRIME |= (1<<16);
    6f8a:	f8d4 31b0 	ldr.w	r3, [r4, #432]	; 0x1b0
    6f8e:	f443 3380 	orr.w	r3, r3, #65536	; 0x10000
    6f92:	f8c4 31b0 	str.w	r3, [r4, #432]	; 0x1b0
	endpoint0_notify_mask = (notify ? (1 << 16) : 0);
    6f96:	f44f 3380 	mov.w	r3, #65536	; 0x10000
    6f9a:	f8ca 3000 	str.w	r3, [sl]
	while (USB1_ENDPTPRIME) ;
    6f9e:	f8d4 31b0 	ldr.w	r3, [r4, #432]	; 0x1b0
    6fa2:	2b00      	cmp	r3, #0
    6fa4:	d1fb      	bne.n	6f9e <usb_isr+0x32a>
    6fa6:	e6ba      	b.n	6d1e <usb_isr+0xaa>
		if (setup.wIndex == CDC_STATUS_INTERFACE) {
    6fa8:	b280      	uxth	r0, r0
    6faa:	b938      	cbnz	r0, 6fbc <usb_isr+0x348>
			usb_cdc_line_rtsdtr_millis = systick_millis_count;
    6fac:	4b99      	ldr	r3, [pc, #612]	; (7214 <usb_isr+0x5a0>)
			usb_cdc_line_rtsdtr = setup.wValue;
    6fae:	f3c2 4207 	ubfx	r2, r2, #16, #8
			usb_cdc_line_rtsdtr_millis = systick_millis_count;
    6fb2:	6819      	ldr	r1, [r3, #0]
    6fb4:	4b98      	ldr	r3, [pc, #608]	; (7218 <usb_isr+0x5a4>)
    6fb6:	6019      	str	r1, [r3, #0]
			usb_cdc_line_rtsdtr = setup.wValue;
    6fb8:	4b98      	ldr	r3, [pc, #608]	; (721c <usb_isr+0x5a8>)
    6fba:	701a      	strb	r2, [r3, #0]
	endpoint0_transfer_ack.next = 1;
    6fbc:	4b94      	ldr	r3, [pc, #592]	; (7210 <usb_isr+0x59c>)
	endpoint0_transfer_ack.pointer0 = 0;
    6fbe:	2200      	movs	r2, #0
    6fc0:	609a      	str	r2, [r3, #8]
	endpoint_queue_head[1].status = 0;
    6fc2:	64f2      	str	r2, [r6, #76]	; 0x4c
	endpoint0_transfer_ack.next = 1;
    6fc4:	2201      	movs	r2, #1
	endpoint_queue_head[1].next = (uint32_t)&endpoint0_transfer_ack;
    6fc6:	64b3      	str	r3, [r6, #72]	; 0x48
	endpoint0_transfer_ack.next = 1;
    6fc8:	601a      	str	r2, [r3, #0]
	endpoint0_transfer_ack.status = (1<<7) | (notify ? (1 << 15) : 0);
    6fca:	2280      	movs	r2, #128	; 0x80
    6fcc:	605a      	str	r2, [r3, #4]
	USB1_ENDPTCOMPLETE = (1<<0) | (1<<16);
    6fce:	f04f 1301 	mov.w	r3, #65537	; 0x10001
    6fd2:	f8c4 31bc 	str.w	r3, [r4, #444]	; 0x1bc
	USB1_ENDPTPRIME |= (1<<16);
    6fd6:	f8d4 31b0 	ldr.w	r3, [r4, #432]	; 0x1b0
    6fda:	f443 3380 	orr.w	r3, r3, #65536	; 0x10000
    6fde:	f8c4 31b0 	str.w	r3, [r4, #432]	; 0x1b0
	while (USB1_ENDPTPRIME) ;
    6fe2:	f8d4 31b0 	ldr.w	r3, [r4, #432]	; 0x1b0
    6fe6:	2b00      	cmp	r3, #0
    6fe8:	d1fb      	bne.n	6fe2 <usb_isr+0x36e>
    6fea:	e698      	b.n	6d1e <usb_isr+0xaa>
		usb_configuration = setup.wValue;
    6fec:	f3c2 4207 	ubfx	r2, r2, #16, #8
    6ff0:	4b8b      	ldr	r3, [pc, #556]	; (7220 <usb_isr+0x5ac>)
    6ff2:	701a      	strb	r2, [r3, #0]
		USB1_ENDPTCTRL2 = ENDPOINT2_CONFIG;
    6ff4:	4b8b      	ldr	r3, [pc, #556]	; (7224 <usb_isr+0x5b0>)
    6ff6:	f8c4 31c8 	str.w	r3, [r4, #456]	; 0x1c8
		USB1_ENDPTCTRL3 = ENDPOINT3_CONFIG;
    6ffa:	4b8b      	ldr	r3, [pc, #556]	; (7228 <usb_isr+0x5b4>)
    6ffc:	f8c4 31cc 	str.w	r3, [r4, #460]	; 0x1cc
		USB1_ENDPTCTRL4 = ENDPOINT4_CONFIG;
    7000:	4b8a      	ldr	r3, [pc, #552]	; (722c <usb_isr+0x5b8>)
    7002:	f8c4 31d0 	str.w	r3, [r4, #464]	; 0x1d0
		usb_serial_configure();
    7006:	f000 fbd9 	bl	77bc <usb_serial_configure>
		memset(endpoint_queue_head + 2, 0, sizeof(endpoint_t) * 2);
    700a:	2280      	movs	r2, #128	; 0x80
    700c:	4629      	mov	r1, r5
    700e:	4888      	ldr	r0, [pc, #544]	; (7230 <usb_isr+0x5bc>)
    7010:	f001 fb06 	bl	8620 <memset>
		endpoint_queue_head[3].pointer4 = 0x74D59319;
    7014:	4b87      	ldr	r3, [pc, #540]	; (7234 <usb_isr+0x5c0>)
	endpoint0_transfer_ack.status = (1<<7) | (notify ? (1 << 15) : 0);
    7016:	2280      	movs	r2, #128	; 0x80
		endpoint_queue_head[2].pointer4 = 0xB8C6CF5D;
    7018:	f8c6 b0a0 	str.w	fp, [r6, #160]	; 0xa0
		endpoint_queue_head[3].pointer4 = 0x74D59319;
    701c:	f8c6 30e0 	str.w	r3, [r6, #224]	; 0xe0
	endpoint0_transfer_ack.next = 1;
    7020:	4b7b      	ldr	r3, [pc, #492]	; (7210 <usb_isr+0x59c>)
	endpoint_queue_head[1].status = 0;
    7022:	64f5      	str	r5, [r6, #76]	; 0x4c
	endpoint0_transfer_ack.status = (1<<7) | (notify ? (1 << 15) : 0);
    7024:	605a      	str	r2, [r3, #4]
	endpoint0_transfer_ack.next = 1;
    7026:	2201      	movs	r2, #1
	endpoint_queue_head[1].next = (uint32_t)&endpoint0_transfer_ack;
    7028:	64b3      	str	r3, [r6, #72]	; 0x48
	endpoint0_transfer_ack.pointer0 = 0;
    702a:	609d      	str	r5, [r3, #8]
	endpoint0_transfer_ack.next = 1;
    702c:	601a      	str	r2, [r3, #0]
	USB1_ENDPTCOMPLETE = (1<<0) | (1<<16);
    702e:	f04f 1301 	mov.w	r3, #65537	; 0x10001
    7032:	f8c4 31bc 	str.w	r3, [r4, #444]	; 0x1bc
	USB1_ENDPTPRIME |= (1<<16);
    7036:	f8d4 31b0 	ldr.w	r3, [r4, #432]	; 0x1b0
    703a:	f443 3380 	orr.w	r3, r3, #65536	; 0x10000
    703e:	f8c4 31b0 	str.w	r3, [r4, #432]	; 0x1b0
	endpoint0_notify_mask = (notify ? (1 << 16) : 0);
    7042:	f8ca 5000 	str.w	r5, [sl]
	while (USB1_ENDPTPRIME) ;
    7046:	f8d4 31b0 	ldr.w	r3, [r4, #432]	; 0x1b0
    704a:	2b00      	cmp	r3, #0
    704c:	d1fb      	bne.n	7046 <usb_isr+0x3d2>
    704e:	e666      	b.n	6d1e <usb_isr+0xaa>
	endpoint0_transfer_ack.next = 1;
    7050:	4b6f      	ldr	r3, [pc, #444]	; (7210 <usb_isr+0x59c>)
    7052:	2101      	movs	r1, #1
	endpoint_queue_head[1].status = 0;
    7054:	64f5      	str	r5, [r6, #76]	; 0x4c
	endpoint0_transfer_ack.next = 1;
    7056:	6019      	str	r1, [r3, #0]
	endpoint0_transfer_ack.status = (1<<7) | (notify ? (1 << 15) : 0);
    7058:	2180      	movs	r1, #128	; 0x80
	endpoint0_transfer_ack.pointer0 = 0;
    705a:	609d      	str	r5, [r3, #8]
	endpoint_queue_head[1].next = (uint32_t)&endpoint0_transfer_ack;
    705c:	64b3      	str	r3, [r6, #72]	; 0x48
	endpoint0_transfer_ack.status = (1<<7) | (notify ? (1 << 15) : 0);
    705e:	6059      	str	r1, [r3, #4]
	USB1_ENDPTCOMPLETE = (1<<0) | (1<<16);
    7060:	f04f 1301 	mov.w	r3, #65537	; 0x10001
    7064:	f8c4 31bc 	str.w	r3, [r4, #444]	; 0x1bc
	USB1_ENDPTPRIME |= (1<<16);
    7068:	f8d4 31b0 	ldr.w	r3, [r4, #432]	; 0x1b0
    706c:	f443 3380 	orr.w	r3, r3, #65536	; 0x10000
    7070:	f8c4 31b0 	str.w	r3, [r4, #432]	; 0x1b0
	while (USB1_ENDPTPRIME) ;
    7074:	f8d4 31b0 	ldr.w	r3, [r4, #432]	; 0x1b0
    7078:	2b00      	cmp	r3, #0
    707a:	d1fb      	bne.n	7074 <usb_isr+0x400>
		USB1_DEVICEADDR = USB_DEVICEADDR_USBADR(setup.wValue) | USB_DEVICEADDR_USBADRA;
    707c:	0c13      	lsrs	r3, r2, #16
    707e:	065b      	lsls	r3, r3, #25
    7080:	f043 7380 	orr.w	r3, r3, #16777216	; 0x1000000
    7084:	f8c4 3154 	str.w	r3, [r4, #340]	; 0x154
		return;
    7088:	e649      	b.n	6d1e <usb_isr+0xaa>
		reply_buffer[0] = usb_configuration;
    708a:	4b65      	ldr	r3, [pc, #404]	; (7220 <usb_isr+0x5ac>)
		endpoint0_transmit(reply_buffer, 1, 0);
    708c:	2101      	movs	r1, #1
		reply_buffer[0] = usb_configuration;
    708e:	486a      	ldr	r0, [pc, #424]	; (7238 <usb_isr+0x5c4>)
    7090:	781b      	ldrb	r3, [r3, #0]
    7092:	7003      	strb	r3, [r0, #0]
		endpoint0_transmit(reply_buffer, 1, 0);
    7094:	f7ff fd8c 	bl	6bb0 <endpoint0_transmit.constprop.0>
		return;
    7098:	e641      	b.n	6d1e <usb_isr+0xaa>
		endpoint = setup.wIndex & 0x7F;
    709a:	b283      	uxth	r3, r0
		if (endpoint > 7) break;
    709c:	f010 0078 	ands.w	r0, r0, #120	; 0x78
    70a0:	f47f ae39 	bne.w	6d16 <usb_isr+0xa2>
		endpoint = setup.wIndex & 0x7F;
    70a4:	f003 027f 	and.w	r2, r3, #127	; 0x7f
		ctrl = *((uint32_t *)&USB1_ENDPTCTRL0 + endpoint);
    70a8:	f858 1022 	ldr.w	r1, [r8, r2, lsl #2]
		reply_buffer[0] = 0;
    70ac:	4a62      	ldr	r2, [pc, #392]	; (7238 <usb_isr+0x5c4>)
    70ae:	8010      	strh	r0, [r2, #0]
		if ((dir && (ctrl & USB_ENDPTCTRL_TXS)) || (!dir && (ctrl & USB_ENDPTCTRL_RXS))) {
    70b0:	0618      	lsls	r0, r3, #24
    70b2:	f100 809e 	bmi.w	71f2 <usb_isr+0x57e>
    70b6:	07cb      	lsls	r3, r1, #31
    70b8:	d501      	bpl.n	70be <usb_isr+0x44a>
			reply_buffer[0] = 1;
    70ba:	2301      	movs	r3, #1
    70bc:	7013      	strb	r3, [r2, #0]
		endpoint0_transmit(reply_buffer, 2, 0);
    70be:	2102      	movs	r1, #2
    70c0:	485d      	ldr	r0, [pc, #372]	; (7238 <usb_isr+0x5c4>)
    70c2:	f7ff fd75 	bl	6bb0 <endpoint0_transmit.constprop.0>
		return;
    70c6:	e62a      	b.n	6d1e <usb_isr+0xaa>
		if (endpoint > 7) break;
    70c8:	f010 0f78 	tst.w	r0, #120	; 0x78
    70cc:	b283      	uxth	r3, r0
    70ce:	f47f ae22 	bne.w	6d16 <usb_isr+0xa2>
		endpoint = setup.wIndex & 0x7F;
    70d2:	f003 027f 	and.w	r2, r3, #127	; 0x7f
		if (dir) {
    70d6:	f013 0f80 	tst.w	r3, #128	; 0x80
			*((volatile uint32_t *)&USB1_ENDPTCTRL0 + endpoint) |= USB_ENDPTCTRL_TXS;
    70da:	f858 3022 	ldr.w	r3, [r8, r2, lsl #2]
    70de:	bf14      	ite	ne
    70e0:	f443 3380 	orrne.w	r3, r3, #65536	; 0x10000
			*((volatile uint32_t *)&USB1_ENDPTCTRL0 + endpoint) |= USB_ENDPTCTRL_RXS;
    70e4:	f043 0301 	orreq.w	r3, r3, #1
    70e8:	f848 3022 	str.w	r3, [r8, r2, lsl #2]
	endpoint0_transfer_ack.pointer0 = 0;
    70ec:	2200      	movs	r2, #0
	endpoint0_transfer_ack.next = 1;
    70ee:	4b48      	ldr	r3, [pc, #288]	; (7210 <usb_isr+0x59c>)
	endpoint_queue_head[1].status = 0;
    70f0:	64f2      	str	r2, [r6, #76]	; 0x4c
	endpoint0_transfer_ack.pointer0 = 0;
    70f2:	609a      	str	r2, [r3, #8]
	endpoint0_transfer_ack.next = 1;
    70f4:	2201      	movs	r2, #1
	endpoint_queue_head[1].next = (uint32_t)&endpoint0_transfer_ack;
    70f6:	64b3      	str	r3, [r6, #72]	; 0x48
	endpoint0_transfer_ack.next = 1;
    70f8:	601a      	str	r2, [r3, #0]
	endpoint0_transfer_ack.status = (1<<7) | (notify ? (1 << 15) : 0);
    70fa:	2280      	movs	r2, #128	; 0x80
    70fc:	605a      	str	r2, [r3, #4]
	USB1_ENDPTCOMPLETE = (1<<0) | (1<<16);
    70fe:	f04f 1301 	mov.w	r3, #65537	; 0x10001
    7102:	f8c4 31bc 	str.w	r3, [r4, #444]	; 0x1bc
	USB1_ENDPTPRIME |= (1<<16);
    7106:	f8d4 31b0 	ldr.w	r3, [r4, #432]	; 0x1b0
    710a:	f443 3380 	orr.w	r3, r3, #65536	; 0x10000
    710e:	f8c4 31b0 	str.w	r3, [r4, #432]	; 0x1b0
	while (USB1_ENDPTPRIME) ;
    7112:	f8d4 31b0 	ldr.w	r3, [r4, #432]	; 0x1b0
    7116:	2b00      	cmp	r3, #0
    7118:	d1fb      	bne.n	7112 <usb_isr+0x49e>
    711a:	e600      	b.n	6d1e <usb_isr+0xaa>
		endpoint = setup.wIndex & 0x7F;
    711c:	f003 027f 	and.w	r2, r3, #127	; 0x7f
		if (dir) {
    7120:	f013 0f80 	tst.w	r3, #128	; 0x80
			*((volatile uint32_t *)&USB1_ENDPTCTRL0 + endpoint) &= ~USB_ENDPTCTRL_TXS;
    7124:	f858 3022 	ldr.w	r3, [r8, r2, lsl #2]
    7128:	bf14      	ite	ne
    712a:	f423 3380 	bicne.w	r3, r3, #65536	; 0x10000
			*((volatile uint32_t *)&USB1_ENDPTCTRL0 + endpoint) &= ~USB_ENDPTCTRL_RXS;
    712e:	f023 0301 	biceq.w	r3, r3, #1
    7132:	f848 3022 	str.w	r3, [r8, r2, lsl #2]
	endpoint0_transfer_ack.pointer0 = 0;
    7136:	2200      	movs	r2, #0
	endpoint0_transfer_ack.next = 1;
    7138:	4b35      	ldr	r3, [pc, #212]	; (7210 <usb_isr+0x59c>)
	endpoint_queue_head[1].status = 0;
    713a:	64f2      	str	r2, [r6, #76]	; 0x4c
	endpoint0_transfer_ack.pointer0 = 0;
    713c:	609a      	str	r2, [r3, #8]
	endpoint0_transfer_ack.next = 1;
    713e:	2201      	movs	r2, #1
	endpoint_queue_head[1].next = (uint32_t)&endpoint0_transfer_ack;
    7140:	64b3      	str	r3, [r6, #72]	; 0x48
	endpoint0_transfer_ack.next = 1;
    7142:	601a      	str	r2, [r3, #0]
	endpoint0_transfer_ack.status = (1<<7) | (notify ? (1 << 15) : 0);
    7144:	2280      	movs	r2, #128	; 0x80
    7146:	605a      	str	r2, [r3, #4]
	USB1_ENDPTCOMPLETE = (1<<0) | (1<<16);
    7148:	f04f 1301 	mov.w	r3, #65537	; 0x10001
    714c:	f8c4 31bc 	str.w	r3, [r4, #444]	; 0x1bc
	USB1_ENDPTPRIME |= (1<<16);
    7150:	f8d4 31b0 	ldr.w	r3, [r4, #432]	; 0x1b0
    7154:	f443 3380 	orr.w	r3, r3, #65536	; 0x10000
    7158:	f8c4 31b0 	str.w	r3, [r4, #432]	; 0x1b0
	while (USB1_ENDPTPRIME) ;
    715c:	f8d4 31b0 	ldr.w	r3, [r4, #432]	; 0x1b0
    7160:	2b00      	cmp	r3, #0
    7162:	d1fb      	bne.n	715c <usb_isr+0x4e8>
    7164:	e5db      	b.n	6d1e <usb_isr+0xaa>
				endpoint0_notify_mask = 0;
    7166:	2000      	movs	r0, #0
    7168:	6008      	str	r0, [r1, #0]
	setup.bothwords = endpoint0_setupdata.bothwords;
    716a:	4926      	ldr	r1, [pc, #152]	; (7204 <usb_isr+0x590>)
	if (setup.wRequestAndType == 0x2021 && setup.wIndex == CDC_STATUS_INTERFACE) {
    716c:	880c      	ldrh	r4, [r1, #0]
	setup.bothwords = endpoint0_setupdata.bothwords;
    716e:	6848      	ldr	r0, [r1, #4]
	if (setup.wRequestAndType == 0x2021 && setup.wIndex == CDC_STATUS_INTERFACE) {
    7170:	f242 0121 	movw	r1, #8225	; 0x2021
    7174:	428c      	cmp	r4, r1
    7176:	f47f ae25 	bne.w	6dc4 <usb_isr+0x150>
    717a:	b280      	uxth	r0, r0
    717c:	2800      	cmp	r0, #0
    717e:	f47f ae21 	bne.w	6dc4 <usb_isr+0x150>
		memcpy(usb_cdc_line_coding, endpoint0_buffer, 7);
    7182:	492e      	ldr	r1, [pc, #184]	; (723c <usb_isr+0x5c8>)
    7184:	4c2e      	ldr	r4, [pc, #184]	; (7240 <usb_isr+0x5cc>)
    7186:	c903      	ldmia	r1, {r0, r1}
    7188:	80a1      	strh	r1, [r4, #4]
		if (usb_cdc_line_coding[0] == 134) {
    718a:	2886      	cmp	r0, #134	; 0x86
		memcpy(usb_cdc_line_coding, endpoint0_buffer, 7);
    718c:	ea4f 4111 	mov.w	r1, r1, lsr #16
    7190:	6020      	str	r0, [r4, #0]
    7192:	71a1      	strb	r1, [r4, #6]
		if (usb_cdc_line_coding[0] == 134) {
    7194:	f47f ae16 	bne.w	6dc4 <usb_isr+0x150>
	__disable_irq();
    7198:	b672      	cpsid	i
	sof_usage |= (1 << interface);
    719a:	482a      	ldr	r0, [pc, #168]	; (7244 <usb_isr+0x5d0>)
    719c:	7801      	ldrb	r1, [r0, #0]
    719e:	f041 0108 	orr.w	r1, r1, #8
    71a2:	7001      	strb	r1, [r0, #0]
	uint32_t intr = USB1_USBINTR;
    71a4:	f8d2 1148 	ldr.w	r1, [r2, #328]	; 0x148
	if (!(intr & USB_USBINTR_SRE)) {
    71a8:	060d      	lsls	r5, r1, #24
    71aa:	d405      	bmi.n	71b8 <usb_isr+0x544>
		USB1_USBSTS = USB_USBSTS_SRI; // clear prior SOF before SOF IRQ enable
    71ac:	2080      	movs	r0, #128	; 0x80
		USB1_USBINTR = intr | USB_USBINTR_SRE;
    71ae:	4301      	orrs	r1, r0
		USB1_USBSTS = USB_USBSTS_SRI; // clear prior SOF before SOF IRQ enable
    71b0:	f8c2 0144 	str.w	r0, [r2, #324]	; 0x144
		USB1_USBINTR = intr | USB_USBINTR_SRE;
    71b4:	f8c2 1148 	str.w	r1, [r2, #328]	; 0x148
	__enable_irq();
    71b8:	b662      	cpsie	i
			usb_reboot_timer = 80; // TODO: 10 if only 12 Mbit/sec
    71ba:	4a23      	ldr	r2, [pc, #140]	; (7248 <usb_isr+0x5d4>)
    71bc:	2150      	movs	r1, #80	; 0x50
    71be:	7011      	strb	r1, [r2, #0]
    71c0:	e600      	b.n	6dc4 <usb_isr+0x150>
				if (datalen > setup.wLength) datalen = setup.wLength;
    71c2:	0c00      	lsrs	r0, r0, #16
					datalen = *(list->addr);
    71c4:	782a      	ldrb	r2, [r5, #0]
    71c6:	4282      	cmp	r2, r0
    71c8:	bf28      	it	cs
    71ca:	4602      	movcs	r2, r0
				} else if (setup.wValue == 0x700) {
    71cc:	f5be 6fe0 	cmp.w	lr, #1792	; 0x700
    71d0:	d144      	bne.n	725c <usb_isr+0x5e8>
					if (usb_high_speed) src = usb_config_descriptor_12;
    71d2:	4b1e      	ldr	r3, [pc, #120]	; (724c <usb_isr+0x5d8>)
					memcpy(usb_descriptor_buffer, src, datalen);
    71d4:	4d1e      	ldr	r5, [pc, #120]	; (7250 <usb_isr+0x5dc>)
					if (usb_high_speed) src = usb_config_descriptor_12;
    71d6:	7818      	ldrb	r0, [r3, #0]
    71d8:	491e      	ldr	r1, [pc, #120]	; (7254 <usb_isr+0x5e0>)
    71da:	4b1f      	ldr	r3, [pc, #124]	; (7258 <usb_isr+0x5e4>)
					memcpy(usb_descriptor_buffer, src, datalen);
    71dc:	9201      	str	r2, [sp, #4]
    71de:	2800      	cmp	r0, #0
    71e0:	bf18      	it	ne
    71e2:	4619      	movne	r1, r3
    71e4:	4628      	mov	r0, r5
    71e6:	f7ff fa9d 	bl	6724 <memcpy>
					usb_descriptor_buffer[1] = 7;
    71ea:	2307      	movs	r3, #7
    71ec:	706b      	strb	r3, [r5, #1]
    71ee:	9a01      	ldr	r2, [sp, #4]
    71f0:	e03b      	b.n	726a <usb_isr+0x5f6>
		if ((dir && (ctrl & USB_ENDPTCTRL_TXS)) || (!dir && (ctrl & USB_ENDPTCTRL_RXS))) {
    71f2:	03c9      	lsls	r1, r1, #15
    71f4:	f53f af61 	bmi.w	70ba <usb_isr+0x446>
    71f8:	e761      	b.n	70be <usb_isr+0x44a>
    71fa:	bf00      	nop
    71fc:	20001b40 	.word	0x20001b40
    7200:	20003118 	.word	0x20003118
    7204:	20001ce0 	.word	0x20001ce0
    7208:	00070080 	.word	0x00070080
    720c:	20004118 	.word	0x20004118
    7210:	20001b20 	.word	0x20001b20
    7214:	2000234c 	.word	0x2000234c
    7218:	20002360 	.word	0x20002360
    721c:	2000237e 	.word	0x2000237e
    7220:	2000237f 	.word	0x2000237f
    7224:	00cc0002 	.word	0x00cc0002
    7228:	000200c8 	.word	0x000200c8
    722c:	00c80002 	.word	0x00c80002
    7230:	20000080 	.word	0x20000080
    7234:	74d59319 	.word	0x74d59319
    7238:	200022fc 	.word	0x200022fc
    723c:	20002118 	.word	0x20002118
    7240:	20002358 	.word	0x20002358
    7244:	20002379 	.word	0x20002379
    7248:	20002381 	.word	0x20002381
    724c:	20002380 	.word	0x20002380
    7250:	20200000 	.word	0x20200000
    7254:	60001ba4 	.word	0x60001ba4
    7258:	60001b40 	.word	0x60001b40
					memcpy(usb_descriptor_buffer, list->addr, datalen);
    725c:	4629      	mov	r1, r5
    725e:	4d10      	ldr	r5, [pc, #64]	; (72a0 <usb_isr+0x62c>)
    7260:	9201      	str	r2, [sp, #4]
    7262:	4628      	mov	r0, r5
    7264:	f7ff fa5e 	bl	6724 <memcpy>
    7268:	9a01      	ldr	r2, [sp, #4]
	uint32_t location = (uint32_t)addr & 0xFFFFFFE0;
    726a:	f025 031f 	bic.w	r3, r5, #31
	uint32_t end_addr = (uint32_t)addr + size;
    726e:	4415      	add	r5, r2
	asm("dsb");
    7270:	f3bf 8f4f 	dsb	sy
		SCB_CACHE_DCCIMVAC = location;
    7274:	f04f 21e0 	mov.w	r1, #3758153728	; 0xe000e000
    7278:	f8c1 3f70 	str.w	r3, [r1, #3952]	; 0xf70
		location += 32;
    727c:	3320      	adds	r3, #32
	} while (location < end_addr);
    727e:	429d      	cmp	r5, r3
    7280:	d8fa      	bhi.n	7278 <usb_isr+0x604>
	asm("dsb");
    7282:	f3bf 8f4f 	dsb	sy
	asm("isb");
    7286:	f3bf 8f6f 	isb	sy
				endpoint0_transmit(usb_descriptor_buffer, datalen, 0);
    728a:	4805      	ldr	r0, [pc, #20]	; (72a0 <usb_isr+0x62c>)
    728c:	4611      	mov	r1, r2
    728e:	f7ff fc8f 	bl	6bb0 <endpoint0_transmit.constprop.0>
				return;
    7292:	e544      	b.n	6d1e <usb_isr+0xaa>
				usb_stop_sof_interrupts(NUM_INTERFACE);
    7294:	2003      	movs	r0, #3
    7296:	f7ff fcd7 	bl	6c48 <usb_stop_sof_interrupts>
				_reboot_Teensyduino_();
    729a:	f001 fd39 	bl	8d10 <___reboot_Teensyduino__veneer>
    729e:	bf00      	nop
    72a0:	20200000 	.word	0x20200000

000072a4 <usb_config_rx>:
{
    72a4:	e92d 47f0 	stmdb	sp!, {r4, r5, r6, r7, r8, r9, sl, lr}
    72a8:	461f      	mov	r7, r3
	if (ep < 2 || ep > NUM_ENDPOINTS) return;
    72aa:	1e83      	subs	r3, r0, #2
    72ac:	2b02      	cmp	r3, #2
    72ae:	d901      	bls.n	72b4 <usb_config_rx+0x10>
}
    72b0:	e8bd 87f0 	ldmia.w	sp!, {r4, r5, r6, r7, r8, r9, sl, pc}
	usb_endpoint_config(endpoint_queue_head + ep * 2, config, cb);
    72b4:	f8df 904c 	ldr.w	r9, [pc, #76]	; 7304 <usb_config_rx+0x60>
    72b8:	4615      	mov	r5, r2
    72ba:	460c      	mov	r4, r1
	memset(qh, 0, sizeof(endpoint_t));
    72bc:	223c      	movs	r2, #60	; 0x3c
	usb_endpoint_config(endpoint_queue_head + ep * 2, config, cb);
    72be:	eb09 18c0 	add.w	r8, r9, r0, lsl #7
	memset(qh, 0, sizeof(endpoint_t));
    72c2:	4606      	mov	r6, r0
	usb_endpoint_config(endpoint_queue_head + ep * 2, config, cb);
    72c4:	ea4f 1ac0 	mov.w	sl, r0, lsl #7
	memset(qh, 0, sizeof(endpoint_t));
    72c8:	2100      	movs	r1, #0
    72ca:	f108 0004 	add.w	r0, r8, #4
	uint32_t config = (packet_size << 16) | (do_zlp ? 0 : (1 << 29));
    72ce:	0424      	lsls	r4, r4, #16
	memset(qh, 0, sizeof(endpoint_t));
    72d0:	f001 f9a6 	bl	8620 <memset>
	uint32_t config = (packet_size << 16) | (do_zlp ? 0 : (1 << 29));
    72d4:	fab5 f285 	clz	r2, r5
	qh->next = 1; // Terminate bit = 1
    72d8:	2301      	movs	r3, #1
	uint32_t config = (packet_size << 16) | (do_zlp ? 0 : (1 << 29));
    72da:	0952      	lsrs	r2, r2, #5
    72dc:	ea44 7442 	orr.w	r4, r4, r2, lsl #29
	qh->config = config;
    72e0:	f849 400a 	str.w	r4, [r9, sl]
	qh->callback_function = callback;
    72e4:	f8c8 7038 	str.w	r7, [r8, #56]	; 0x38
	qh->next = 1; // Terminate bit = 1
    72e8:	f8c8 3008 	str.w	r3, [r8, #8]
	if (cb) endpointN_notify_mask |= (1 << ep);
    72ec:	2f00      	cmp	r7, #0
    72ee:	d0df      	beq.n	72b0 <usb_config_rx+0xc>
    72f0:	4a03      	ldr	r2, [pc, #12]	; (7300 <usb_config_rx+0x5c>)
    72f2:	40b3      	lsls	r3, r6
    72f4:	6811      	ldr	r1, [r2, #0]
    72f6:	430b      	orrs	r3, r1
    72f8:	6013      	str	r3, [r2, #0]
}
    72fa:	e8bd 87f0 	ldmia.w	sp!, {r4, r5, r6, r7, r8, r9, sl, pc}
    72fe:	bf00      	nop
    7300:	20002124 	.word	0x20002124
    7304:	20000000 	.word	0x20000000

00007308 <usb_config_tx>:
{
    7308:	e92d 47f0 	stmdb	sp!, {r4, r5, r6, r7, r8, r9, sl, lr}
    730c:	460d      	mov	r5, r1
	if (ep < 2 || ep > NUM_ENDPOINTS) return;
    730e:	1e81      	subs	r1, r0, #2
    7310:	2902      	cmp	r1, #2
    7312:	d901      	bls.n	7318 <usb_config_tx+0x10>
}
    7314:	e8bd 87f0 	ldmia.w	sp!, {r4, r5, r6, r7, r8, r9, sl, pc}
	usb_endpoint_config(endpoint_queue_head + ep * 2 + 1, config, cb);
    7318:	01c7      	lsls	r7, r0, #7
    731a:	f8df 904c 	ldr.w	r9, [pc, #76]	; 7368 <usb_config_tx+0x60>
    731e:	4692      	mov	sl, r2
    7320:	4604      	mov	r4, r0
    7322:	3740      	adds	r7, #64	; 0x40
	memset(qh, 0, sizeof(endpoint_t));
    7324:	223c      	movs	r2, #60	; 0x3c
    7326:	2100      	movs	r1, #0
    7328:	461e      	mov	r6, r3
	usb_endpoint_config(endpoint_queue_head + ep * 2 + 1, config, cb);
    732a:	eb09 0807 	add.w	r8, r9, r7
	uint32_t config = (packet_size << 16) | (do_zlp ? 0 : (1 << 29));
    732e:	042d      	lsls	r5, r5, #16
	memset(qh, 0, sizeof(endpoint_t));
    7330:	f108 0004 	add.w	r0, r8, #4
    7334:	f001 f974 	bl	8620 <memset>
	uint32_t config = (packet_size << 16) | (do_zlp ? 0 : (1 << 29));
    7338:	faba f28a 	clz	r2, sl
    733c:	0952      	lsrs	r2, r2, #5
    733e:	ea45 7242 	orr.w	r2, r5, r2, lsl #29
	qh->config = config;
    7342:	f849 2007 	str.w	r2, [r9, r7]
	qh->next = 1; // Terminate bit = 1
    7346:	2201      	movs	r2, #1
	qh->callback_function = callback;
    7348:	f8c8 6038 	str.w	r6, [r8, #56]	; 0x38
	qh->next = 1; // Terminate bit = 1
    734c:	f8c8 2008 	str.w	r2, [r8, #8]
	if (cb) endpointN_notify_mask |= (1 << (ep + 16));
    7350:	2e00      	cmp	r6, #0
    7352:	d0df      	beq.n	7314 <usb_config_tx+0xc>
    7354:	4b03      	ldr	r3, [pc, #12]	; (7364 <usb_config_tx+0x5c>)
    7356:	3410      	adds	r4, #16
    7358:	6819      	ldr	r1, [r3, #0]
    735a:	40a2      	lsls	r2, r4
    735c:	430a      	orrs	r2, r1
    735e:	601a      	str	r2, [r3, #0]
}
    7360:	e8bd 87f0 	ldmia.w	sp!, {r4, r5, r6, r7, r8, r9, sl, pc}
    7364:	20002124 	.word	0x20002124
    7368:	20000000 	.word	0x20000000

0000736c <usb_prepare_transfer>:
	transfer->status = (len << 16) | (1<<7);
    736c:	0412      	lsls	r2, r2, #16
	transfer->pointer0 = addr;
    736e:	6081      	str	r1, [r0, #8]
	transfer->callback_param = param;
    7370:	61c3      	str	r3, [r0, #28]
	transfer->pointer3 = addr + 12288;
    7372:	f501 5340 	add.w	r3, r1, #12288	; 0x3000
	transfer->status = (len << 16) | (1<<7);
    7376:	f042 0280 	orr.w	r2, r2, #128	; 0x80
{
    737a:	b410      	push	{r4}
	transfer->next = 1;
    737c:	2401      	movs	r4, #1
	transfer->status = (len << 16) | (1<<7);
    737e:	6042      	str	r2, [r0, #4]
	transfer->pointer2 = addr + 8192;
    7380:	f501 5200 	add.w	r2, r1, #8192	; 0x2000
	transfer->next = 1;
    7384:	6004      	str	r4, [r0, #0]
	transfer->pointer1 = addr + 4096;
    7386:	f501 5480 	add.w	r4, r1, #4096	; 0x1000
	transfer->pointer4 = addr + 16384;
    738a:	f501 4180 	add.w	r1, r1, #16384	; 0x4000
	transfer->pointer1 = addr + 4096;
    738e:	60c4      	str	r4, [r0, #12]
	transfer->pointer4 = addr + 16384;
    7390:	6181      	str	r1, [r0, #24]
}
    7392:	f85d 4b04 	ldr.w	r4, [sp], #4
	transfer->pointer3 = addr + 12288;
    7396:	e9c0 2304 	strd	r2, r3, [r0, #16]
}
    739a:	4770      	bx	lr

0000739c <usb_transmit>:

void usb_transmit(int endpoint_number, transfer_t *transfer)
{
	if (endpoint_number < 2 || endpoint_number > NUM_ENDPOINTS) return;
    739c:	1e83      	subs	r3, r0, #2
{
    739e:	460a      	mov	r2, r1
	if (endpoint_number < 2 || endpoint_number > NUM_ENDPOINTS) return;
    73a0:	2b02      	cmp	r3, #2
    73a2:	d900      	bls.n	73a6 <usb_transmit+0xa>
	endpoint_t *endpoint = endpoint_queue_head + endpoint_number * 2 + 1;
	uint32_t mask = 1 << (endpoint_number + 16);
	schedule_transfer(endpoint, mask, transfer);
}
    73a4:	4770      	bx	lr
	endpoint_t *endpoint = endpoint_queue_head + endpoint_number * 2 + 1;
    73a6:	4b06      	ldr	r3, [pc, #24]	; (73c0 <usb_transmit+0x24>)
	uint32_t mask = 1 << (endpoint_number + 16);
    73a8:	f100 0110 	add.w	r1, r0, #16
    73ac:	f04f 0c01 	mov.w	ip, #1
	endpoint_t *endpoint = endpoint_queue_head + endpoint_number * 2 + 1;
    73b0:	eb03 10c0 	add.w	r0, r3, r0, lsl #7
	schedule_transfer(endpoint, mask, transfer);
    73b4:	fa0c f101 	lsl.w	r1, ip, r1
    73b8:	3040      	adds	r0, #64	; 0x40
    73ba:	f7ff bb99 	b.w	6af0 <schedule_transfer>
    73be:	bf00      	nop
    73c0:	20000000 	.word	0x20000000

000073c4 <usb_receive>:

void usb_receive(int endpoint_number, transfer_t *transfer)
{
	if (endpoint_number < 2 || endpoint_number > NUM_ENDPOINTS) return;
    73c4:	1e83      	subs	r3, r0, #2
{
    73c6:	460a      	mov	r2, r1
	if (endpoint_number < 2 || endpoint_number > NUM_ENDPOINTS) return;
    73c8:	2b02      	cmp	r3, #2
    73ca:	d900      	bls.n	73ce <usb_receive+0xa>
	endpoint_t *endpoint = endpoint_queue_head + endpoint_number * 2;
	uint32_t mask = 1 << endpoint_number;
	schedule_transfer(endpoint, mask, transfer);
}
    73cc:	4770      	bx	lr
	uint32_t mask = 1 << endpoint_number;
    73ce:	2101      	movs	r1, #1
	endpoint_t *endpoint = endpoint_queue_head + endpoint_number * 2;
    73d0:	4b02      	ldr	r3, [pc, #8]	; (73dc <usb_receive+0x18>)
	schedule_transfer(endpoint, mask, transfer);
    73d2:	4081      	lsls	r1, r0
    73d4:	eb03 10c0 	add.w	r0, r3, r0, lsl #7
    73d8:	f7ff bb8a 	b.w	6af0 <schedule_transfer>
    73dc:	20000000 	.word	0x20000000

000073e0 <usb_transfer_status>:
		//if (!(cmd & USB_USBCMD_ATDTW)) continue;
		//if (status & 0x80) break; // for still active, only 1 reading needed
		//if (++count > 1) break; // for completed, check 10 times
	}
#else
	return transfer->status;
    73e0:	6840      	ldr	r0, [r0, #4]
#endif
}
    73e2:	4770      	bx	lr

000073e4 <usb_init_serialnumber>:
void usb_init_serialnumber(void)
{
	char buf[11];
	uint32_t i, num;

	num = HW_OCOTP_MAC0 & 0xFFFFFF;
    73e4:	4a12      	ldr	r2, [pc, #72]	; (7430 <usb_init_serialnumber+0x4c>)
	// add extra zero to work around OS-X CDC-ACM driver bug
	if (num < 10000000) num = num * 10;
    73e6:	4b13      	ldr	r3, [pc, #76]	; (7434 <usb_init_serialnumber+0x50>)
	num = HW_OCOTP_MAC0 & 0xFFFFFF;
    73e8:	f8d2 0220 	ldr.w	r0, [r2, #544]	; 0x220
    73ec:	f020 407f 	bic.w	r0, r0, #4278190080	; 0xff000000
	if (num < 10000000) num = num * 10;
    73f0:	4298      	cmp	r0, r3
{
    73f2:	b510      	push	{r4, lr}
    73f4:	b084      	sub	sp, #16
	if (num < 10000000) num = num * 10;
    73f6:	d202      	bcs.n	73fe <usb_init_serialnumber+0x1a>
    73f8:	eb00 0080 	add.w	r0, r0, r0, lsl #2
    73fc:	0040      	lsls	r0, r0, #1
	ultoa(num, buf, 10);
    73fe:	4c0e      	ldr	r4, [pc, #56]	; (7438 <usb_init_serialnumber+0x54>)
    7400:	a901      	add	r1, sp, #4
    7402:	220a      	movs	r2, #10
    7404:	f7ff fa2e 	bl	6864 <ultoa>
	for (i=0; i<10; i++) {
    7408:	a901      	add	r1, sp, #4
    740a:	2300      	movs	r3, #0
    740c:	4620      	mov	r0, r4
		char c = buf[i];
    740e:	f811 2b01 	ldrb.w	r2, [r1], #1
	for (i=0; i<10; i++) {
    7412:	3301      	adds	r3, #1
		if (!c) break;
    7414:	b13a      	cbz	r2, 7426 <usb_init_serialnumber+0x42>
	for (i=0; i<10; i++) {
    7416:	2b0a      	cmp	r3, #10
		usb_string_serial_number_default.wString[i] = c;
    7418:	f820 2f02 	strh.w	r2, [r0, #2]!
	for (i=0; i<10; i++) {
    741c:	d1f7      	bne.n	740e <usb_init_serialnumber+0x2a>
    741e:	2316      	movs	r3, #22
	}
	usb_string_serial_number_default.bLength = i * 2 + 2;
    7420:	7023      	strb	r3, [r4, #0]
}
    7422:	b004      	add	sp, #16
    7424:	bd10      	pop	{r4, pc}
	usb_string_serial_number_default.bLength = i * 2 + 2;
    7426:	005b      	lsls	r3, r3, #1
    7428:	b2db      	uxtb	r3, r3
    742a:	7023      	strb	r3, [r4, #0]
}
    742c:	b004      	add	sp, #16
    742e:	bd10      	pop	{r4, pc}
    7430:	401f4400 	.word	0x401f4400
    7434:	00989680 	.word	0x00989680
    7438:	2000141c 	.word	0x2000141c

0000743c <usb_serial_class::clear()>:
        virtual void clear(void) { usb_serial_flush_input(); }
    743c:	f000 badc 	b.w	79f8 <usb_serial_flush_input>

00007440 <usb_serial_class::peek()>:
        virtual int peek() { return usb_serial_peekchar(); }
    7440:	f000 baac 	b.w	799c <usb_serial_peekchar>

00007444 <usb_serial_class::read()>:
        virtual int read() { return usb_serial_getchar(); }
    7444:	f000 bb10 	b.w	7a68 <usb_serial_getchar>

00007448 <usb_serial_class::available()>:
        virtual int available() { return usb_serial_available(); }
    7448:	f000 baca 	b.w	79e0 <usb_serial_available>

0000744c <usb_serial_class::flush()>:
        virtual void flush() { usb_serial_flush_output(); }  // TODO: actually wait for data to leave USB...
    744c:	f000 bb66 	b.w	7b1c <usb_serial_flush_output>

00007450 <usb_serial_class::availableForWrite()>:
	virtual int availableForWrite() { return usb_serial_write_buffer_free(); }
    7450:	f000 bb3c 	b.w	7acc <usb_serial_write_buffer_free>

00007454 <usb_serial_class::write(unsigned char const*, unsigned int)>:
        virtual size_t write(const uint8_t *buffer, size_t size) { return usb_serial_write(buffer, size); }
    7454:	4608      	mov	r0, r1
    7456:	4611      	mov	r1, r2
    7458:	f000 bb2c 	b.w	7ab4 <usb_serial_write>

0000745c <rx_queue_transfer>:
/*************************************************************************/
/**                               Receive                               **/
/*************************************************************************/

static void rx_queue_transfer(int i)
{
    745c:	b5f8      	push	{r3, r4, r5, r6, r7, lr}
	NVIC_DISABLE_IRQ(IRQ_USB1);
	printf("rx queue i=%d\n", i);
	void *buffer = rx_buffer + i * CDC_RX_SIZE_480;
    745e:	4c14      	ldr	r4, [pc, #80]	; (74b0 <rx_queue_transfer+0x54>)
	NVIC_DISABLE_IRQ(IRQ_USB1);
    7460:	f04f 25e0 	mov.w	r5, #3758153728	; 0xe000e000
	usb_prepare_transfer(rx_transfer + i, buffer, rx_packet_size, i);
    7464:	4e13      	ldr	r6, [pc, #76]	; (74b4 <rx_queue_transfer+0x58>)
	NVIC_DISABLE_IRQ(IRQ_USB1);
    7466:	f44f 3200 	mov.w	r2, #131072	; 0x20000
	void *buffer = rx_buffer + i * CDC_RX_SIZE_480;
    746a:	eb04 2440 	add.w	r4, r4, r0, lsl #9
	usb_prepare_transfer(rx_transfer + i, buffer, rx_packet_size, i);
    746e:	4f12      	ldr	r7, [pc, #72]	; (74b8 <rx_queue_transfer+0x5c>)
    7470:	eb06 1640 	add.w	r6, r6, r0, lsl #5
{
    7474:	4603      	mov	r3, r0
	NVIC_DISABLE_IRQ(IRQ_USB1);
    7476:	f8c5 218c 	str.w	r2, [r5, #396]	; 0x18c
	usb_prepare_transfer(rx_transfer + i, buffer, rx_packet_size, i);
    747a:	4621      	mov	r1, r4
    747c:	883a      	ldrh	r2, [r7, #0]
    747e:	4630      	mov	r0, r6
    7480:	f7ff ff74 	bl	736c <usb_prepare_transfer>
	arm_dcache_delete(buffer, rx_packet_size);
    7484:	883b      	ldrh	r3, [r7, #0]
	uint32_t end_addr = (uint32_t)addr + size;
    7486:	4423      	add	r3, r4
	asm("dsb");
    7488:	f3bf 8f4f 	dsb	sy
		SCB_CACHE_DCIMVAC = location;
    748c:	f8c5 4f5c 	str.w	r4, [r5, #3932]	; 0xf5c
		location += 32;
    7490:	3420      	adds	r4, #32
	} while (location < end_addr);
    7492:	42a3      	cmp	r3, r4
    7494:	d8fa      	bhi.n	748c <rx_queue_transfer+0x30>
	asm("dsb");
    7496:	f3bf 8f4f 	dsb	sy
	asm("isb");
    749a:	f3bf 8f6f 	isb	sy
	usb_receive(CDC_RX_ENDPOINT, rx_transfer + i);
    749e:	2003      	movs	r0, #3
    74a0:	4631      	mov	r1, r6
    74a2:	f7ff ff8f 	bl	73c4 <usb_receive>
	NVIC_ENABLE_IRQ(IRQ_USB1);
    74a6:	f44f 3300 	mov.w	r3, #131072	; 0x20000
    74aa:	f8c5 310c 	str.w	r3, [r5, #268]	; 0x10c
}
    74ae:	bdf8      	pop	{r3, r4, r5, r6, r7, pc}
    74b0:	20200080 	.word	0x20200080
    74b4:	20001b60 	.word	0x20001b60
    74b8:	2000236c 	.word	0x2000236c

000074bc <rx_event>:

// called by USB interrupt when any packet is received
static void rx_event(transfer_t *t)
{
	int len = rx_packet_size - ((t->status >> 16) & 0x7FFF);
    74bc:	4b24      	ldr	r3, [pc, #144]	; (7550 <rx_event+0x94>)
{
    74be:	e92d 41f0 	stmdb	sp!, {r4, r5, r6, r7, r8, lr}
	int len = rx_packet_size - ((t->status >> 16) & 0x7FFF);
    74c2:	881c      	ldrh	r4, [r3, #0]
    74c4:	6843      	ldr	r3, [r0, #4]
	int i = t->callback_param;
    74c6:	69c5      	ldr	r5, [r0, #28]
	int len = rx_packet_size - ((t->status >> 16) & 0x7FFF);
    74c8:	f3c3 430e 	ubfx	r3, r3, #16, #15
    74cc:	1ae4      	subs	r4, r4, r3
	printf("rx event, len=%d, i=%d\n", len, i);
	if (len > 0) {
    74ce:	2c00      	cmp	r4, #0
    74d0:	dd24      	ble.n	751c <rx_event+0x60>
		// received a packet with data
		uint32_t head = rx_head;
    74d2:	4920      	ldr	r1, [pc, #128]	; (7554 <rx_event+0x98>)
		if (head != rx_tail) {
    74d4:	4820      	ldr	r0, [pc, #128]	; (7558 <rx_event+0x9c>)
		uint32_t head = rx_head;
    74d6:	780a      	ldrb	r2, [r1, #0]
		if (head != rx_tail) {
    74d8:	7800      	ldrb	r0, [r0, #0]
		uint32_t head = rx_head;
    74da:	b2d3      	uxtb	r3, r2
			// a previous packet is still buffered
			uint32_t ii = rx_list[head];
			uint32_t count = rx_count[ii];
    74dc:	4e1f      	ldr	r6, [pc, #124]	; (755c <rx_event+0xa0>)
		if (head != rx_tail) {
    74de:	4282      	cmp	r2, r0
			uint32_t ii = rx_list[head];
    74e0:	481f      	ldr	r0, [pc, #124]	; (7560 <rx_event+0xa4>)
		if (head != rx_tail) {
    74e2:	d007      	beq.n	74f4 <rx_event+0x38>
			uint32_t ii = rx_list[head];
    74e4:	f810 8003 	ldrb.w	r8, [r0, r3]
			uint32_t count = rx_count[ii];
    74e8:	f836 7018 	ldrh.w	r7, [r6, r8, lsl #1]
			if (len <= CDC_RX_SIZE_480 - count) {
    74ec:	f5c7 7200 	rsb	r2, r7, #512	; 0x200
    74f0:	4294      	cmp	r4, r2
    74f2:	d918      	bls.n	7526 <rx_event+0x6a>
			}
		}
		// add this packet to rx_list
		rx_count[i] = len;
		rx_index[i] = 0;
		if (++head > RX_NUM) head = 0;
    74f4:	3301      	adds	r3, #1
		rx_index[i] = 0;
    74f6:	2200      	movs	r2, #0
		rx_count[i] = len;
    74f8:	f826 4015 	strh.w	r4, [r6, r5, lsl #1]
		if (++head > RX_NUM) head = 0;
    74fc:	2b08      	cmp	r3, #8
		rx_index[i] = 0;
    74fe:	4e19      	ldr	r6, [pc, #100]	; (7564 <rx_event+0xa8>)
		if (++head > RX_NUM) head = 0;
    7500:	bf88      	it	hi
    7502:	4613      	movhi	r3, r2
		rx_index[i] = 0;
    7504:	f826 2015 	strh.w	r2, [r6, r5, lsl #1]
		rx_list[head] = i;
		rx_head = head;
    7508:	bf98      	it	ls
    750a:	b2da      	uxtbls	r2, r3
		rx_list[head] = i;
    750c:	54c5      	strb	r5, [r0, r3]
		rx_available += len;
    750e:	4b16      	ldr	r3, [pc, #88]	; (7568 <rx_event+0xac>)
		rx_head = head;
    7510:	700a      	strb	r2, [r1, #0]
		rx_available += len;
    7512:	681a      	ldr	r2, [r3, #0]
    7514:	4414      	add	r4, r2
    7516:	601c      	str	r4, [r3, #0]
		// TODO: trigger serialEvent
	} else {
		// received a zero length packet
		rx_queue_transfer(i);
	}
}
    7518:	e8bd 81f0 	ldmia.w	sp!, {r4, r5, r6, r7, r8, pc}
		rx_queue_transfer(i);
    751c:	4628      	mov	r0, r5
}
    751e:	e8bd 41f0 	ldmia.w	sp!, {r4, r5, r6, r7, r8, lr}
		rx_queue_transfer(i);
    7522:	f7ff bf9b 	b.w	745c <rx_queue_transfer>
				memcpy(rx_buffer + ii * CDC_RX_SIZE_480 + count,
    7526:	eb07 2048 	add.w	r0, r7, r8, lsl #9
    752a:	4910      	ldr	r1, [pc, #64]	; (756c <rx_event+0xb0>)
    752c:	4622      	mov	r2, r4
				rx_count[ii] = count + len;
    752e:	4427      	add	r7, r4
				memcpy(rx_buffer + ii * CDC_RX_SIZE_480 + count,
    7530:	4408      	add	r0, r1
    7532:	eb01 2145 	add.w	r1, r1, r5, lsl #9
    7536:	f7ff f8f5 	bl	6724 <memcpy>
				rx_available += len;
    753a:	4a0b      	ldr	r2, [pc, #44]	; (7568 <rx_event+0xac>)
				rx_queue_transfer(i);
    753c:	4628      	mov	r0, r5
				rx_count[ii] = count + len;
    753e:	f826 7018 	strh.w	r7, [r6, r8, lsl #1]
				rx_available += len;
    7542:	6813      	ldr	r3, [r2, #0]
    7544:	4423      	add	r3, r4
}
    7546:	e8bd 41f0 	ldmia.w	sp!, {r4, r5, r6, r7, r8, lr}
				rx_available += len;
    754a:	6013      	str	r3, [r2, #0]
				rx_queue_transfer(i);
    754c:	f7ff bf86 	b.w	745c <rx_queue_transfer>
    7550:	2000236c 	.word	0x2000236c
    7554:	20002377 	.word	0x20002377
    7558:	20002378 	.word	0x20002378
    755c:	20002308 	.word	0x20002308
    7560:	20002328 	.word	0x20002328
    7564:	20002318 	.word	0x20002318
    7568:	20002304 	.word	0x20002304
    756c:	20200080 	.word	0x20200080

00007570 <usb_serial_flush_callback>:
	tx_noautoflush = 0;
}

static void usb_serial_flush_callback(void)
{
	if (tx_noautoflush) return;
    7570:	4b1d      	ldr	r3, [pc, #116]	; (75e8 <usb_serial_flush_callback+0x78>)
    7572:	781a      	ldrb	r2, [r3, #0]
    7574:	2a00      	cmp	r2, #0
    7576:	d136      	bne.n	75e6 <usb_serial_flush_callback+0x76>
	if (!usb_configuration) return;
    7578:	f002 03ff 	and.w	r3, r2, #255	; 0xff
    757c:	4a1b      	ldr	r2, [pc, #108]	; (75ec <usb_serial_flush_callback+0x7c>)
    757e:	7812      	ldrb	r2, [r2, #0]
    7580:	b38a      	cbz	r2, 75e6 <usb_serial_flush_callback+0x76>
{
    7582:	e92d 41f0 	stmdb	sp!, {r4, r5, r6, r7, r8, lr}
	if (tx_available == 0) return;
    7586:	4d1a      	ldr	r5, [pc, #104]	; (75f0 <usb_serial_flush_callback+0x80>)
    7588:	882a      	ldrh	r2, [r5, #0]
    758a:	b352      	cbz	r2, 75e2 <usb_serial_flush_callback+0x72>
	//printf("flush callback, %d bytes\n", TX_SIZE - tx_available);
	transfer_t *xfer = tx_transfer + tx_head;
    758c:	4e19      	ldr	r6, [pc, #100]	; (75f4 <usb_serial_flush_callback+0x84>)
	uint8_t *txbuf = txbuffer + (tx_head * TX_SIZE);
	uint32_t txnum = TX_SIZE - tx_available;
    758e:	f5c2 6800 	rsb	r8, r2, #2048	; 0x800
	transfer_t *xfer = tx_transfer + tx_head;
    7592:	4f19      	ldr	r7, [pc, #100]	; (75f8 <usb_serial_flush_callback+0x88>)
    7594:	7832      	ldrb	r2, [r6, #0]
	uint8_t *txbuf = txbuffer + (tx_head * TX_SIZE);
    7596:	4c19      	ldr	r4, [pc, #100]	; (75fc <usb_serial_flush_callback+0x8c>)
	transfer_t *xfer = tx_transfer + tx_head;
    7598:	eb07 1742 	add.w	r7, r7, r2, lsl #5
	uint8_t *txbuf = txbuffer + (tx_head * TX_SIZE);
    759c:	eb04 24c2 	add.w	r4, r4, r2, lsl #11
	usb_prepare_transfer(xfer, txbuf, txnum, 0);
    75a0:	4642      	mov	r2, r8
    75a2:	4638      	mov	r0, r7
    75a4:	4621      	mov	r1, r4
    75a6:	f7ff fee1 	bl	736c <usb_prepare_transfer>
	uint32_t end_addr = (uint32_t)addr + size;
    75aa:	eb04 0208 	add.w	r2, r4, r8
	asm("dsb");
    75ae:	f3bf 8f4f 	dsb	sy
		SCB_CACHE_DCCIMVAC = location;
    75b2:	f04f 23e0 	mov.w	r3, #3758153728	; 0xe000e000
    75b6:	f8c3 4f70 	str.w	r4, [r3, #3952]	; 0xf70
		location += 32;
    75ba:	3420      	adds	r4, #32
	} while (location < end_addr);
    75bc:	42a2      	cmp	r2, r4
    75be:	d8fa      	bhi.n	75b6 <usb_serial_flush_callback+0x46>
	asm("dsb");
    75c0:	f3bf 8f4f 	dsb	sy
	asm("isb");
    75c4:	f3bf 8f6f 	isb	sy
	arm_dcache_flush_delete(txbuf, txnum);
	usb_transmit(CDC_TX_ENDPOINT, xfer);
    75c8:	2004      	movs	r0, #4
    75ca:	4639      	mov	r1, r7
    75cc:	f7ff fee6 	bl	739c <usb_transmit>
	if (++tx_head >= TX_NUM) tx_head = 0;
    75d0:	7833      	ldrb	r3, [r6, #0]
    75d2:	3301      	adds	r3, #1
    75d4:	b2db      	uxtb	r3, r3
    75d6:	2b03      	cmp	r3, #3
    75d8:	bf88      	it	hi
    75da:	2300      	movhi	r3, #0
    75dc:	7033      	strb	r3, [r6, #0]
	tx_available = 0;
    75de:	2300      	movs	r3, #0
    75e0:	802b      	strh	r3, [r5, #0]
}
    75e2:	e8bd 81f0 	ldmia.w	sp!, {r4, r5, r6, r7, r8, pc}
    75e6:	4770      	bx	lr
    75e8:	2000237d 	.word	0x2000237d
    75ec:	2000237f 	.word	0x2000237f
    75f0:	2000236e 	.word	0x2000236e
    75f4:	2000237c 	.word	0x2000237c
    75f8:	20001c60 	.word	0x20001c60
    75fc:	20201080 	.word	0x20201080

00007600 <usb_serial_write.part.0>:
int usb_serial_write(const void *buffer, uint32_t size)
    7600:	e92d 4ff0 	stmdb	sp!, {r4, r5, r6, r7, r8, r9, sl, fp, lr}
    7604:	b085      	sub	sp, #20
	while (size > 0) {
    7606:	e9cd 1001 	strd	r1, r0, [sp, #4]
    760a:	2900      	cmp	r1, #0
    760c:	f000 80bf 	beq.w	778e <usb_serial_write.part.0+0x18e>
	uint32_t sent=0;
    7610:	2300      	movs	r3, #0
    7612:	4c60      	ldr	r4, [pc, #384]	; (7794 <usb_serial_write.part.0+0x194>)
    7614:	f8df 8198 	ldr.w	r8, [pc, #408]	; 77b0 <usb_serial_write.part.0+0x1b0>
    7618:	f8df a198 	ldr.w	sl, [pc, #408]	; 77b4 <usb_serial_write.part.0+0x1b4>
				wait_begin_at = systick_millis_count;
    761c:	4f5e      	ldr	r7, [pc, #376]	; (7798 <usb_serial_write.part.0+0x198>)
	uint32_t sent=0;
    761e:	9300      	str	r3, [sp, #0]
		tx_noautoflush = 1;
    7620:	2301      	movs	r3, #1
		transfer_t *xfer = tx_transfer + tx_head;
    7622:	4a5e      	ldr	r2, [pc, #376]	; (779c <usb_serial_write.part.0+0x19c>)
		tx_noautoflush = 1;
    7624:	7023      	strb	r3, [r4, #0]
		transfer_t *xfer = tx_transfer + tx_head;
    7626:	4b5e      	ldr	r3, [pc, #376]	; (77a0 <usb_serial_write.part.0+0x1a0>)
    7628:	7819      	ldrb	r1, [r3, #0]
		while (!tx_available) {
    762a:	f8b8 3000 	ldrh.w	r3, [r8]
		transfer_t *xfer = tx_transfer + tx_head;
    762e:	eb02 1941 	add.w	r9, r2, r1, lsl #5
		while (!tx_available) {
    7632:	2b00      	cmp	r3, #0
    7634:	f040 80a7 	bne.w	7786 <usb_serial_write.part.0+0x186>
		uint32_t wait_begin_at=0;
    7638:	461e      	mov	r6, r3
		int waiting=0;
    763a:	461d      	mov	r5, r3
			tx_noautoflush = 0;
    763c:	469b      	mov	fp, r3
			uint32_t status = usb_transfer_status(xfer);
    763e:	4648      	mov	r0, r9
    7640:	f7ff fece 	bl	73e0 <usb_transfer_status>
			if (!(status & 0x80)) {
    7644:	f010 0080 	ands.w	r0, r0, #128	; 0x80
    7648:	f000 808c 	beq.w	7764 <usb_serial_write.part.0+0x164>
			asm("dsb" ::: "memory");
    764c:	f3bf 8f4f 	dsb	sy
			if (transmit_previous_timeout) return sent;
    7650:	f89a 3000 	ldrb.w	r3, [sl]
			tx_noautoflush = 0;
    7654:	f884 b000 	strb.w	fp, [r4]
			if (!waiting) {
    7658:	b905      	cbnz	r5, 765c <usb_serial_write.part.0+0x5c>
				wait_begin_at = systick_millis_count;
    765a:	683e      	ldr	r6, [r7, #0]
			if (transmit_previous_timeout) return sent;
    765c:	2b00      	cmp	r3, #0
    765e:	d17d      	bne.n	775c <usb_serial_write.part.0+0x15c>
			if (systick_millis_count - wait_begin_at > TX_TIMEOUT_MSEC) {
    7660:	683b      	ldr	r3, [r7, #0]
    7662:	1b9b      	subs	r3, r3, r6
    7664:	2b78      	cmp	r3, #120	; 0x78
    7666:	f200 8087 	bhi.w	7778 <usb_serial_write.part.0+0x178>
			if (!usb_configuration) return sent;
    766a:	4b4e      	ldr	r3, [pc, #312]	; (77a4 <usb_serial_write.part.0+0x1a4>)
    766c:	781b      	ldrb	r3, [r3, #0]
    766e:	2b00      	cmp	r3, #0
    7670:	d074      	beq.n	775c <usb_serial_write.part.0+0x15c>
			yield();
    7672:	f000 fa9d 	bl	7bb0 <yield>
			tx_noautoflush = 1;
    7676:	2201      	movs	r2, #1
		while (!tx_available) {
    7678:	f8b8 3000 	ldrh.w	r3, [r8]
    767c:	4615      	mov	r5, r2
			tx_noautoflush = 1;
    767e:	7022      	strb	r2, [r4, #0]
		while (!tx_available) {
    7680:	2b00      	cmp	r3, #0
    7682:	d0dc      	beq.n	763e <usb_serial_write.part.0+0x3e>
		uint8_t *txdata = txbuffer + (tx_head * TX_SIZE) + (TX_SIZE - tx_available);
    7684:	4a46      	ldr	r2, [pc, #280]	; (77a0 <usb_serial_write.part.0+0x1a0>)
    7686:	f5c3 6000 	rsb	r0, r3, #2048	; 0x800
    768a:	7811      	ldrb	r1, [r2, #0]
    768c:	461a      	mov	r2, r3
    768e:	eb00 20c1 	add.w	r0, r0, r1, lsl #11
    7692:	4d45      	ldr	r5, [pc, #276]	; (77a8 <usb_serial_write.part.0+0x1a8>)
    7694:	02c9      	lsls	r1, r1, #11
    7696:	4428      	add	r0, r5
		if (size >= tx_available) {
    7698:	9d01      	ldr	r5, [sp, #4]
    769a:	4295      	cmp	r5, r2
    769c:	d217      	bcs.n	76ce <usb_serial_write.part.0+0xce>
			memcpy(txdata, data, size);
    769e:	9303      	str	r3, [sp, #12]
    76a0:	e9dd 5101 	ldrd	r5, r1, [sp, #4]
    76a4:	462a      	mov	r2, r5
    76a6:	f7ff f83d 	bl	6724 <memcpy>
			tx_available -= size;
    76aa:	9b03      	ldr	r3, [sp, #12]
	USB1_GPTIMER0CTRL = USB_GPTIMERCTRL_GPTRUN | USB_GPTIMERCTRL_GPTRST;
    76ac:	f04f 4240 	mov.w	r2, #3221225472	; 0xc0000000
			tx_available -= size;
    76b0:	1b5b      	subs	r3, r3, r5
    76b2:	f8a8 3000 	strh.w	r3, [r8]
	USB1_GPTIMER0CTRL = USB_GPTIMERCTRL_GPTRUN | USB_GPTIMERCTRL_GPTRST;
    76b6:	4b3d      	ldr	r3, [pc, #244]	; (77ac <usb_serial_write.part.0+0x1ac>)
    76b8:	f8c3 2084 	str.w	r2, [r3, #132]	; 0x84
		asm("dsb" ::: "memory");
    76bc:	f3bf 8f4f 	dsb	sy
			sent += size;
    76c0:	9800      	ldr	r0, [sp, #0]
		tx_noautoflush = 0;
    76c2:	2300      	movs	r3, #0
			sent += size;
    76c4:	4428      	add	r0, r5
		tx_noautoflush = 0;
    76c6:	7023      	strb	r3, [r4, #0]
}
    76c8:	b005      	add	sp, #20
    76ca:	e8bd 8ff0 	ldmia.w	sp!, {r4, r5, r6, r7, r8, r9, sl, fp, pc}
			uint8_t *txbuf = txbuffer + (tx_head * TX_SIZE);
    76ce:	4b36      	ldr	r3, [pc, #216]	; (77a8 <usb_serial_write.part.0+0x1a8>)
    76d0:	18cd      	adds	r5, r1, r3
			memcpy(txdata, data, tx_available);
    76d2:	9902      	ldr	r1, [sp, #8]
    76d4:	f7ff f826 	bl	6724 <memcpy>
			usb_prepare_transfer(xfer, txbuf, TX_SIZE, 0);
    76d8:	2300      	movs	r3, #0
    76da:	f44f 6200 	mov.w	r2, #2048	; 0x800
    76de:	4629      	mov	r1, r5
    76e0:	4648      	mov	r0, r9
    76e2:	f7ff fe43 	bl	736c <usb_prepare_transfer>
	asm("dsb");
    76e6:	f3bf 8f4f 	dsb	sy
    76ea:	f105 0220 	add.w	r2, r5, #32
	uint32_t end_addr = (uint32_t)addr + size;
    76ee:	f505 6300 	add.w	r3, r5, #2048	; 0x800
    76f2:	4293      	cmp	r3, r2
    76f4:	bf34      	ite	cc
    76f6:	2301      	movcc	r3, #1
    76f8:	2340      	movcs	r3, #64	; 0x40
		SCB_CACHE_DCCIMVAC = location;
    76fa:	f04f 22e0 	mov.w	r2, #3758153728	; 0xe000e000
    76fe:	eb05 1343 	add.w	r3, r5, r3, lsl #5
    7702:	f8c2 5f70 	str.w	r5, [r2, #3952]	; 0xf70
		location += 32;
    7706:	3520      	adds	r5, #32
	} while (location < end_addr);
    7708:	42ab      	cmp	r3, r5
    770a:	d1fa      	bne.n	7702 <usb_serial_write.part.0+0x102>
	asm("dsb");
    770c:	f3bf 8f4f 	dsb	sy
	asm("isb");
    7710:	f3bf 8f6f 	isb	sy
			usb_transmit(CDC_TX_ENDPOINT, xfer);
    7714:	2004      	movs	r0, #4
    7716:	4649      	mov	r1, r9
    7718:	f7ff fe40 	bl	739c <usb_transmit>
			if (++tx_head >= TX_NUM) tx_head = 0;
    771c:	4a20      	ldr	r2, [pc, #128]	; (77a0 <usb_serial_write.part.0+0x1a0>)
    771e:	7813      	ldrb	r3, [r2, #0]
    7720:	3301      	adds	r3, #1
    7722:	b2db      	uxtb	r3, r3
    7724:	2b03      	cmp	r3, #3
    7726:	bf84      	itt	hi
    7728:	2300      	movhi	r3, #0
    772a:	4a1d      	ldrhi	r2, [pc, #116]	; (77a0 <usb_serial_write.part.0+0x1a0>)
    772c:	7013      	strb	r3, [r2, #0]
			size -= tx_available;
    772e:	f8b8 3000 	ldrh.w	r3, [r8]
    7732:	9a01      	ldr	r2, [sp, #4]
    7734:	1ad1      	subs	r1, r2, r3
			sent += tx_available;
    7736:	9a00      	ldr	r2, [sp, #0]
    7738:	441a      	add	r2, r3
			size -= tx_available;
    773a:	9101      	str	r1, [sp, #4]
			sent += tx_available;
    773c:	9200      	str	r2, [sp, #0]
			data += tx_available;
    773e:	9a02      	ldr	r2, [sp, #8]
    7740:	441a      	add	r2, r3
			tx_available = 0;
    7742:	2300      	movs	r3, #0
			data += tx_available;
    7744:	9202      	str	r2, [sp, #8]
	USB1_GPTIMER0CTRL = 0;
    7746:	4a19      	ldr	r2, [pc, #100]	; (77ac <usb_serial_write.part.0+0x1ac>)
			tx_available = 0;
    7748:	f8a8 3000 	strh.w	r3, [r8]
	USB1_GPTIMER0CTRL = 0;
    774c:	f8c2 3084 	str.w	r3, [r2, #132]	; 0x84
		asm("dsb" ::: "memory");
    7750:	f3bf 8f4f 	dsb	sy
		tx_noautoflush = 0;
    7754:	7023      	strb	r3, [r4, #0]
	while (size > 0) {
    7756:	2900      	cmp	r1, #0
    7758:	f47f af62 	bne.w	7620 <usb_serial_write.part.0+0x20>
	return sent;
    775c:	9800      	ldr	r0, [sp, #0]
}
    775e:	b005      	add	sp, #20
    7760:	e8bd 8ff0 	ldmia.w	sp!, {r4, r5, r6, r7, r8, r9, sl, fp, pc}
				tx_available = TX_SIZE;
    7764:	f44f 6200 	mov.w	r2, #2048	; 0x800
		uint8_t *txdata = txbuffer + (tx_head * TX_SIZE) + (TX_SIZE - tx_available);
    7768:	4b0d      	ldr	r3, [pc, #52]	; (77a0 <usb_serial_write.part.0+0x1a0>)
				transmit_previous_timeout = 0;
    776a:	f88a 0000 	strb.w	r0, [sl]
		uint8_t *txdata = txbuffer + (tx_head * TX_SIZE) + (TX_SIZE - tx_available);
    776e:	7819      	ldrb	r1, [r3, #0]
				break;
    7770:	4613      	mov	r3, r2
				tx_available = TX_SIZE;
    7772:	f8a8 2000 	strh.w	r2, [r8]
				break;
    7776:	e78a      	b.n	768e <usb_serial_write.part.0+0x8e>
				transmit_previous_timeout = 1;
    7778:	2301      	movs	r3, #1
				return sent;
    777a:	9800      	ldr	r0, [sp, #0]
				transmit_previous_timeout = 1;
    777c:	f88a 3000 	strb.w	r3, [sl]
}
    7780:	b005      	add	sp, #20
    7782:	e8bd 8ff0 	ldmia.w	sp!, {r4, r5, r6, r7, r8, r9, sl, fp, pc}
		uint8_t *txdata = txbuffer + (tx_head * TX_SIZE) + (TX_SIZE - tx_available);
    7786:	461a      	mov	r2, r3
    7788:	f5c3 6000 	rsb	r0, r3, #2048	; 0x800
    778c:	e77f      	b.n	768e <usb_serial_write.part.0+0x8e>
	while (size > 0) {
    778e:	9801      	ldr	r0, [sp, #4]
	return sent;
    7790:	e7e5      	b.n	775e <usb_serial_write.part.0+0x15e>
    7792:	bf00      	nop
    7794:	2000237d 	.word	0x2000237d
    7798:	2000234c 	.word	0x2000234c
    779c:	20001c60 	.word	0x20001c60
    77a0:	2000237c 	.word	0x2000237c
    77a4:	2000237f 	.word	0x2000237f
    77a8:	20201080 	.word	0x20201080
    77ac:	402e0000 	.word	0x402e0000
    77b0:	2000236e 	.word	0x2000236e
    77b4:	2000237b 	.word	0x2000237b

000077b8 <usb_serial_reset>:
}
    77b8:	4770      	bx	lr
    77ba:	bf00      	nop

000077bc <usb_serial_configure>:
	if (usb_high_speed) {
    77bc:	4b2d      	ldr	r3, [pc, #180]	; (7874 <usb_serial_configure+0xb8>)
	memset(tx_transfer, 0, sizeof(tx_transfer));
    77be:	2100      	movs	r1, #0
    77c0:	2280      	movs	r2, #128	; 0x80
    77c2:	482d      	ldr	r0, [pc, #180]	; (7878 <usb_serial_configure+0xbc>)
{
    77c4:	b570      	push	{r4, r5, r6, lr}
	if (usb_high_speed) {
    77c6:	781b      	ldrb	r3, [r3, #0]
	tx_head = 0;
    77c8:	2400      	movs	r4, #0
		tx_packet_size = CDC_TX_SIZE_480;
    77ca:	4d2c      	ldr	r5, [pc, #176]	; (787c <usb_serial_configure+0xc0>)
	if (usb_high_speed) {
    77cc:	428b      	cmp	r3, r1
		rx_packet_size = CDC_RX_SIZE_480;
    77ce:	4e2c      	ldr	r6, [pc, #176]	; (7880 <usb_serial_configure+0xc4>)
	if (usb_high_speed) {
    77d0:	bf0c      	ite	eq
    77d2:	2340      	moveq	r3, #64	; 0x40
    77d4:	f44f 7300 	movne.w	r3, #512	; 0x200
		tx_packet_size = CDC_TX_SIZE_480;
    77d8:	802b      	strh	r3, [r5, #0]
		rx_packet_size = CDC_RX_SIZE_480;
    77da:	8033      	strh	r3, [r6, #0]
	memset(tx_transfer, 0, sizeof(tx_transfer));
    77dc:	f000 ff20 	bl	8620 <memset>
	tx_head = 0;
    77e0:	4a28      	ldr	r2, [pc, #160]	; (7884 <usb_serial_configure+0xc8>)
	memset(rx_transfer, 0, sizeof(rx_transfer));
    77e2:	4621      	mov	r1, r4
	tx_available = 0;
    77e4:	4b28      	ldr	r3, [pc, #160]	; (7888 <usb_serial_configure+0xcc>)
	tx_head = 0;
    77e6:	7014      	strb	r4, [r2, #0]
	memset(rx_transfer, 0, sizeof(rx_transfer));
    77e8:	f44f 7280 	mov.w	r2, #256	; 0x100
    77ec:	4827      	ldr	r0, [pc, #156]	; (788c <usb_serial_configure+0xd0>)
	tx_available = 0;
    77ee:	801c      	strh	r4, [r3, #0]
	memset(rx_transfer, 0, sizeof(rx_transfer));
    77f0:	f000 ff16 	bl	8620 <memset>
	memset(rx_count, 0, sizeof(rx_count));
    77f4:	4a26      	ldr	r2, [pc, #152]	; (7890 <usb_serial_configure+0xd4>)
	usb_config_tx(CDC_ACM_ENDPOINT, CDC_ACM_SIZE, 0, NULL); // size same 12 & 480
    77f6:	2110      	movs	r1, #16
	memset(rx_index, 0, sizeof(rx_index));
    77f8:	4b26      	ldr	r3, [pc, #152]	; (7894 <usb_serial_configure+0xd8>)
	usb_config_tx(CDC_ACM_ENDPOINT, CDC_ACM_SIZE, 0, NULL); // size same 12 & 480
    77fa:	2002      	movs	r0, #2
	memset(rx_count, 0, sizeof(rx_count));
    77fc:	e9c2 4400 	strd	r4, r4, [r2]
    7800:	e9c2 4402 	strd	r4, r4, [r2, #8]
	rx_head = 0;
    7804:	4a24      	ldr	r2, [pc, #144]	; (7898 <usb_serial_configure+0xdc>)
	memset(rx_index, 0, sizeof(rx_index));
    7806:	e9c3 4400 	strd	r4, r4, [r3]
	rx_head = 0;
    780a:	7014      	strb	r4, [r2, #0]
	rx_available = 0;
    780c:	4a23      	ldr	r2, [pc, #140]	; (789c <usb_serial_configure+0xe0>)
	memset(rx_index, 0, sizeof(rx_index));
    780e:	e9c3 4402 	strd	r4, r4, [r3, #8]
	rx_tail = 0;
    7812:	4b23      	ldr	r3, [pc, #140]	; (78a0 <usb_serial_configure+0xe4>)
    7814:	701c      	strb	r4, [r3, #0]
	usb_config_tx(CDC_ACM_ENDPOINT, CDC_ACM_SIZE, 0, NULL); // size same 12 & 480
    7816:	4623      	mov	r3, r4
	rx_available = 0;
    7818:	6014      	str	r4, [r2, #0]
	usb_config_tx(CDC_ACM_ENDPOINT, CDC_ACM_SIZE, 0, NULL); // size same 12 & 480
    781a:	4622      	mov	r2, r4
    781c:	f7ff fd74 	bl	7308 <usb_config_tx>
	usb_config_rx(CDC_RX_ENDPOINT, rx_packet_size, 0, rx_event);
    7820:	4622      	mov	r2, r4
    7822:	8831      	ldrh	r1, [r6, #0]
    7824:	2003      	movs	r0, #3
    7826:	4b1f      	ldr	r3, [pc, #124]	; (78a4 <usb_serial_configure+0xe8>)
    7828:	f7ff fd3c 	bl	72a4 <usb_config_rx>
	usb_config_tx(CDC_TX_ENDPOINT, tx_packet_size, 1, NULL);
    782c:	4623      	mov	r3, r4
    782e:	2201      	movs	r2, #1
    7830:	8829      	ldrh	r1, [r5, #0]
    7832:	2004      	movs	r0, #4
    7834:	f7ff fd68 	bl	7308 <usb_config_tx>
	for (i=0; i < RX_NUM; i++) rx_queue_transfer(i);
    7838:	4620      	mov	r0, r4
    783a:	3401      	adds	r4, #1
    783c:	f7ff fe0e 	bl	745c <rx_queue_transfer>
    7840:	2c08      	cmp	r4, #8
    7842:	d1f9      	bne.n	7838 <usb_serial_configure+0x7c>
	USB1_GPTIMER0CTRL = 0;
    7844:	4b18      	ldr	r3, [pc, #96]	; (78a8 <usb_serial_configure+0xec>)
    7846:	2100      	movs	r1, #0
	USB1_GPTIMER0LD = microseconds - 1;
    7848:	224a      	movs	r2, #74	; 0x4a
	usb_timer0_callback = callback;
    784a:	4818      	ldr	r0, [pc, #96]	; (78ac <usb_serial_configure+0xf0>)
    784c:	4c18      	ldr	r4, [pc, #96]	; (78b0 <usb_serial_configure+0xf4>)
    784e:	6004      	str	r4, [r0, #0]
	USB1_GPTIMER0CTRL = 0;
    7850:	f8c3 1084 	str.w	r1, [r3, #132]	; 0x84
	USB1_GPTIMER0LD = microseconds - 1;
    7854:	f8c3 2080 	str.w	r2, [r3, #128]	; 0x80
	USB1_USBINTR |= USB_USBINTR_TIE0;
    7858:	f8d3 2148 	ldr.w	r2, [r3, #328]	; 0x148
	if (serialEvent) yield_active_check_flags |= YIELD_CHECK_USB_SERIAL;
    785c:	4915      	ldr	r1, [pc, #84]	; (78b4 <usb_serial_configure+0xf8>)
	USB1_USBINTR |= USB_USBINTR_TIE0;
    785e:	f042 7280 	orr.w	r2, r2, #16777216	; 0x1000000
    7862:	f8c3 2148 	str.w	r2, [r3, #328]	; 0x148
	if (serialEvent) yield_active_check_flags |= YIELD_CHECK_USB_SERIAL;
    7866:	b121      	cbz	r1, 7872 <usb_serial_configure+0xb6>
    7868:	4a13      	ldr	r2, [pc, #76]	; (78b8 <usb_serial_configure+0xfc>)
    786a:	7813      	ldrb	r3, [r2, #0]
    786c:	f043 0301 	orr.w	r3, r3, #1
    7870:	7013      	strb	r3, [r2, #0]
}
    7872:	bd70      	pop	{r4, r5, r6, pc}
    7874:	20002380 	.word	0x20002380
    7878:	20001c60 	.word	0x20001c60
    787c:	20002370 	.word	0x20002370
    7880:	2000236c 	.word	0x2000236c
    7884:	2000237c 	.word	0x2000237c
    7888:	2000236e 	.word	0x2000236e
    788c:	20001b60 	.word	0x20001b60
    7890:	20002308 	.word	0x20002308
    7894:	20002318 	.word	0x20002318
    7898:	20002377 	.word	0x20002377
    789c:	20002304 	.word	0x20002304
    78a0:	20002378 	.word	0x20002378
    78a4:	000074bd 	.word	0x000074bd
    78a8:	402e0000 	.word	0x402e0000
    78ac:	20002364 	.word	0x20002364
    78b0:	00007571 	.word	0x00007571
    78b4:	00000000 	.word	0x00000000
    78b8:	20002382 	.word	0x20002382

000078bc <usb_serial_read>:
{
    78bc:	e92d 4ff0 	stmdb	sp!, {r4, r5, r6, r7, r8, r9, sl, fp, lr}
	NVIC_DISABLE_IRQ(IRQ_USB1);
    78c0:	f04f 23e0 	mov.w	r3, #3758153728	; 0xe000e000
    78c4:	f44f 3200 	mov.w	r2, #131072	; 0x20000
	uint32_t tail = rx_tail;
    78c8:	f8df a0c8 	ldr.w	sl, [pc, #200]	; 7994 <usb_serial_read+0xd8>
{
    78cc:	b083      	sub	sp, #12
	NVIC_DISABLE_IRQ(IRQ_USB1);
    78ce:	f8c3 218c 	str.w	r2, [r3, #396]	; 0x18c
	while (count < size && tail != rx_head) {
    78d2:	468b      	mov	fp, r1
	uint32_t tail = rx_tail;
    78d4:	f89a 4000 	ldrb.w	r4, [sl]
	while (count < size && tail != rx_head) {
    78d8:	2900      	cmp	r1, #0
    78da:	d04f      	beq.n	797c <usb_serial_read+0xc0>
    78dc:	4680      	mov	r8, r0
    78de:	b2e4      	uxtb	r4, r4
	uint32_t count=0;
    78e0:	2700      	movs	r7, #0
		uint32_t avail = rx_count[i] - rx_index[i];
    78e2:	f8df 90b4 	ldr.w	r9, [pc, #180]	; 7998 <usb_serial_read+0xdc>
	while (count < size && tail != rx_head) {
    78e6:	4b26      	ldr	r3, [pc, #152]	; (7980 <usb_serial_read+0xc4>)
		uint32_t len = size - count;
    78e8:	ebab 0207 	sub.w	r2, fp, r7
			memcpy(p, rx_buffer + i * CDC_RX_SIZE_480 + rx_index[i], avail);
    78ec:	4925      	ldr	r1, [pc, #148]	; (7984 <usb_serial_read+0xc8>)
	while (count < size && tail != rx_head) {
    78ee:	781b      	ldrb	r3, [r3, #0]
    78f0:	42a3      	cmp	r3, r4
		if (++tail > RX_NUM) tail = 0;
    78f2:	f104 0401 	add.w	r4, r4, #1
	while (count < size && tail != rx_head) {
    78f6:	d03f      	beq.n	7978 <usb_serial_read+0xbc>
		if (++tail > RX_NUM) tail = 0;
    78f8:	2c09      	cmp	r4, #9
		uint32_t i = rx_list[tail];
    78fa:	4b23      	ldr	r3, [pc, #140]	; (7988 <usb_serial_read+0xcc>)
			memcpy(p, rx_buffer + i * CDC_RX_SIZE_480 + rx_index[i], avail);
    78fc:	4640      	mov	r0, r8
		if (++tail > RX_NUM) tail = 0;
    78fe:	bf28      	it	cs
    7900:	2400      	movcs	r4, #0
		uint32_t i = rx_list[tail];
    7902:	5d1e      	ldrb	r6, [r3, r4]
		uint32_t avail = rx_count[i] - rx_index[i];
    7904:	f839 c016 	ldrh.w	ip, [r9, r6, lsl #1]
			memcpy(p, rx_buffer + i * CDC_RX_SIZE_480 + rx_index[i], avail);
    7908:	eb0c 2346 	add.w	r3, ip, r6, lsl #9
    790c:	4419      	add	r1, r3
		uint32_t avail = rx_count[i] - rx_index[i];
    790e:	4b1f      	ldr	r3, [pc, #124]	; (798c <usb_serial_read+0xd0>)
    7910:	f833 5016 	ldrh.w	r5, [r3, r6, lsl #1]
    7914:	eba5 050c 	sub.w	r5, r5, ip
		if (avail > len) {
    7918:	42aa      	cmp	r2, r5
    791a:	d21c      	bcs.n	7956 <usb_serial_read+0x9a>
			memcpy(p, rx_buffer + i * CDC_RX_SIZE_480 + rx_index[i], len);
    791c:	eb0c 2c46 	add.w	ip, ip, r6, lsl #9
    7920:	4918      	ldr	r1, [pc, #96]	; (7984 <usb_serial_read+0xc8>)
			rx_available -= len;
    7922:	4c1b      	ldr	r4, [pc, #108]	; (7990 <usb_serial_read+0xd4>)
			memcpy(p, rx_buffer + i * CDC_RX_SIZE_480 + rx_index[i], len);
    7924:	4461      	add	r1, ip
    7926:	9201      	str	r2, [sp, #4]
    7928:	f7fe fefc 	bl	6724 <memcpy>
			rx_available -= len;
    792c:	6821      	ldr	r1, [r4, #0]
			rx_index[i] += len;
    792e:	f839 5016 	ldrh.w	r5, [r9, r6, lsl #1]
	return count;
    7932:	4658      	mov	r0, fp
			rx_index[i] += len;
    7934:	9a01      	ldr	r2, [sp, #4]
			rx_available -= len;
    7936:	eba1 010b 	sub.w	r1, r1, fp
			rx_index[i] += len;
    793a:	442a      	add	r2, r5
			rx_available -= len;
    793c:	4439      	add	r1, r7
			rx_index[i] += len;
    793e:	f829 2016 	strh.w	r2, [r9, r6, lsl #1]
			rx_available -= len;
    7942:	6021      	str	r1, [r4, #0]
	NVIC_ENABLE_IRQ(IRQ_USB1);
    7944:	f04f 23e0 	mov.w	r3, #3758153728	; 0xe000e000
    7948:	f44f 3200 	mov.w	r2, #131072	; 0x20000
    794c:	f8c3 210c 	str.w	r2, [r3, #268]	; 0x10c
}
    7950:	b003      	add	sp, #12
    7952:	e8bd 8ff0 	ldmia.w	sp!, {r4, r5, r6, r7, r8, r9, sl, fp, pc}
			memcpy(p, rx_buffer + i * CDC_RX_SIZE_480 + rx_index[i], avail);
    7956:	462a      	mov	r2, r5
			count += avail;
    7958:	442f      	add	r7, r5
			memcpy(p, rx_buffer + i * CDC_RX_SIZE_480 + rx_index[i], avail);
    795a:	f7fe fee3 	bl	6724 <memcpy>
			rx_available -= avail;
    795e:	490c      	ldr	r1, [pc, #48]	; (7990 <usb_serial_read+0xd4>)
			rx_tail = tail;
    7960:	b2e3      	uxtb	r3, r4
			rx_queue_transfer(i);
    7962:	4630      	mov	r0, r6
			rx_available -= avail;
    7964:	680a      	ldr	r2, [r1, #0]
			p += avail;
    7966:	44a8      	add	r8, r5
			rx_available -= avail;
    7968:	1b52      	subs	r2, r2, r5
    796a:	600a      	str	r2, [r1, #0]
			rx_tail = tail;
    796c:	f88a 3000 	strb.w	r3, [sl]
			rx_queue_transfer(i);
    7970:	f7ff fd74 	bl	745c <rx_queue_transfer>
	while (count < size && tail != rx_head) {
    7974:	45bb      	cmp	fp, r7
    7976:	d8b6      	bhi.n	78e6 <usb_serial_read+0x2a>
	return count;
    7978:	4638      	mov	r0, r7
    797a:	e7e3      	b.n	7944 <usb_serial_read+0x88>
	while (count < size && tail != rx_head) {
    797c:	4608      	mov	r0, r1
    797e:	e7e1      	b.n	7944 <usb_serial_read+0x88>
    7980:	20002377 	.word	0x20002377
    7984:	20200080 	.word	0x20200080
    7988:	20002328 	.word	0x20002328
    798c:	20002308 	.word	0x20002308
    7990:	20002304 	.word	0x20002304
    7994:	20002378 	.word	0x20002378
    7998:	20002318 	.word	0x20002318

0000799c <usb_serial_peekchar>:
	if (tail == rx_head) return -1;
    799c:	4b0b      	ldr	r3, [pc, #44]	; (79cc <usb_serial_peekchar+0x30>)
	uint32_t tail = rx_tail;
    799e:	4a0c      	ldr	r2, [pc, #48]	; (79d0 <usb_serial_peekchar+0x34>)
    79a0:	7812      	ldrb	r2, [r2, #0]
	if (tail == rx_head) return -1;
    79a2:	7819      	ldrb	r1, [r3, #0]
	uint32_t tail = rx_tail;
    79a4:	b2d3      	uxtb	r3, r2
	if (tail == rx_head) return -1;
    79a6:	428a      	cmp	r2, r1
    79a8:	d00d      	beq.n	79c6 <usb_serial_peekchar+0x2a>
	if (++tail > RX_NUM) tail = 0;
    79aa:	3301      	adds	r3, #1
	uint32_t i = rx_list[tail];
    79ac:	4809      	ldr	r0, [pc, #36]	; (79d4 <usb_serial_peekchar+0x38>)
	return rx_buffer[i * CDC_RX_SIZE_480 + rx_index[i]];
    79ae:	4a0a      	ldr	r2, [pc, #40]	; (79d8 <usb_serial_peekchar+0x3c>)
	if (++tail > RX_NUM) tail = 0;
    79b0:	2b09      	cmp	r3, #9
	return rx_buffer[i * CDC_RX_SIZE_480 + rx_index[i]];
    79b2:	490a      	ldr	r1, [pc, #40]	; (79dc <usb_serial_peekchar+0x40>)
	if (++tail > RX_NUM) tail = 0;
    79b4:	bf28      	it	cs
    79b6:	2300      	movcs	r3, #0
	uint32_t i = rx_list[tail];
    79b8:	5cc3      	ldrb	r3, [r0, r3]
	return rx_buffer[i * CDC_RX_SIZE_480 + rx_index[i]];
    79ba:	f831 1013 	ldrh.w	r1, [r1, r3, lsl #1]
    79be:	eb02 2343 	add.w	r3, r2, r3, lsl #9
    79c2:	5c58      	ldrb	r0, [r3, r1]
    79c4:	4770      	bx	lr
	if (tail == rx_head) return -1;
    79c6:	f04f 30ff 	mov.w	r0, #4294967295
}
    79ca:	4770      	bx	lr
    79cc:	20002377 	.word	0x20002377
    79d0:	20002378 	.word	0x20002378
    79d4:	20002328 	.word	0x20002328
    79d8:	20200080 	.word	0x20200080
    79dc:	20002318 	.word	0x20002318

000079e0 <usb_serial_available>:
	uint32_t n = rx_available;
    79e0:	4b04      	ldr	r3, [pc, #16]	; (79f4 <usb_serial_available+0x14>)
{
    79e2:	b510      	push	{r4, lr}
	uint32_t n = rx_available;
    79e4:	681c      	ldr	r4, [r3, #0]
	if (n == 0) yield();
    79e6:	b10c      	cbz	r4, 79ec <usb_serial_available+0xc>
}
    79e8:	4620      	mov	r0, r4
    79ea:	bd10      	pop	{r4, pc}
	if (n == 0) yield();
    79ec:	f000 f8e0 	bl	7bb0 <yield>
}
    79f0:	4620      	mov	r0, r4
    79f2:	bd10      	pop	{r4, pc}
    79f4:	20002304 	.word	0x20002304

000079f8 <usb_serial_flush_input>:
{
    79f8:	e92d 4ff8 	stmdb	sp!, {r3, r4, r5, r6, r7, r8, r9, sl, fp, lr}
	uint32_t tail = rx_tail;
    79fc:	4e14      	ldr	r6, [pc, #80]	; (7a50 <usb_serial_flush_input+0x58>)
	while (tail != rx_head) {
    79fe:	4d15      	ldr	r5, [pc, #84]	; (7a54 <usb_serial_flush_input+0x5c>)
	uint32_t tail = rx_tail;
    7a00:	7833      	ldrb	r3, [r6, #0]
	while (tail != rx_head) {
    7a02:	782a      	ldrb	r2, [r5, #0]
    7a04:	4293      	cmp	r3, r2
    7a06:	d021      	beq.n	7a4c <usb_serial_flush_input+0x54>
    7a08:	b2dc      	uxtb	r4, r3
    7a0a:	f8df 9050 	ldr.w	r9, [pc, #80]	; 7a5c <usb_serial_flush_input+0x64>
    7a0e:	f8df b050 	ldr.w	fp, [pc, #80]	; 7a60 <usb_serial_flush_input+0x68>
    7a12:	f8df 8050 	ldr.w	r8, [pc, #80]	; 7a64 <usb_serial_flush_input+0x6c>
    7a16:	4f10      	ldr	r7, [pc, #64]	; (7a58 <usb_serial_flush_input+0x60>)
		if (++tail > RX_NUM) tail = 0;
    7a18:	3401      	adds	r4, #1
    7a1a:	2c08      	cmp	r4, #8
		rx_tail = tail;
    7a1c:	fa5f fa84 	uxtb.w	sl, r4
		if (++tail > RX_NUM) tail = 0;
    7a20:	d901      	bls.n	7a26 <usb_serial_flush_input+0x2e>
    7a22:	2400      	movs	r4, #0
    7a24:	46a2      	mov	sl, r4
		uint32_t i = rx_list[tail];
    7a26:	f819 0004 	ldrb.w	r0, [r9, r4]
		rx_available -= rx_count[i] - rx_index[i];
    7a2a:	f8db 3000 	ldr.w	r3, [fp]
    7a2e:	f838 2010 	ldrh.w	r2, [r8, r0, lsl #1]
    7a32:	f837 1010 	ldrh.w	r1, [r7, r0, lsl #1]
    7a36:	1a52      	subs	r2, r2, r1
    7a38:	1a9b      	subs	r3, r3, r2
    7a3a:	f8cb 3000 	str.w	r3, [fp]
		rx_queue_transfer(i);
    7a3e:	f7ff fd0d 	bl	745c <rx_queue_transfer>
		rx_tail = tail;
    7a42:	f886 a000 	strb.w	sl, [r6]
	while (tail != rx_head) {
    7a46:	782b      	ldrb	r3, [r5, #0]
    7a48:	42a3      	cmp	r3, r4
    7a4a:	d1e5      	bne.n	7a18 <usb_serial_flush_input+0x20>
}
    7a4c:	e8bd 8ff8 	ldmia.w	sp!, {r3, r4, r5, r6, r7, r8, r9, sl, fp, pc}
    7a50:	20002378 	.word	0x20002378
    7a54:	20002377 	.word	0x20002377
    7a58:	20002318 	.word	0x20002318
    7a5c:	20002328 	.word	0x20002328
    7a60:	20002304 	.word	0x20002304
    7a64:	20002308 	.word	0x20002308

00007a68 <usb_serial_getchar>:
{
    7a68:	b500      	push	{lr}
    7a6a:	b083      	sub	sp, #12
	if (usb_serial_read(&c, 1)) return c;
    7a6c:	2101      	movs	r1, #1
    7a6e:	f10d 0007 	add.w	r0, sp, #7
    7a72:	f7ff ff23 	bl	78bc <usb_serial_read>
    7a76:	b120      	cbz	r0, 7a82 <usb_serial_getchar+0x1a>
    7a78:	f89d 0007 	ldrb.w	r0, [sp, #7]
}
    7a7c:	b003      	add	sp, #12
    7a7e:	f85d fb04 	ldr.w	pc, [sp], #4
	return -1;
    7a82:	f04f 30ff 	mov.w	r0, #4294967295
    7a86:	e7f9      	b.n	7a7c <usb_serial_getchar+0x14>

00007a88 <usb_serial_putchar>:
	if (!usb_configuration) return 0;
    7a88:	4b09      	ldr	r3, [pc, #36]	; (7ab0 <usb_serial_putchar+0x28>)
{
    7a8a:	b500      	push	{lr}
    7a8c:	b083      	sub	sp, #12
	if (!usb_configuration) return 0;
    7a8e:	781b      	ldrb	r3, [r3, #0]
{
    7a90:	f88d 0007 	strb.w	r0, [sp, #7]
	if (!usb_configuration) return 0;
    7a94:	b13b      	cbz	r3, 7aa6 <usb_serial_putchar+0x1e>
    7a96:	2101      	movs	r1, #1
    7a98:	f10d 0007 	add.w	r0, sp, #7
    7a9c:	f7ff fdb0 	bl	7600 <usb_serial_write.part.0>
}
    7aa0:	b003      	add	sp, #12
    7aa2:	f85d fb04 	ldr.w	pc, [sp], #4
    7aa6:	f003 00ff 	and.w	r0, r3, #255	; 0xff
    7aaa:	b003      	add	sp, #12
    7aac:	f85d fb04 	ldr.w	pc, [sp], #4
    7ab0:	2000237f 	.word	0x2000237f

00007ab4 <usb_serial_write>:
	if (!usb_configuration) return 0;
    7ab4:	4b04      	ldr	r3, [pc, #16]	; (7ac8 <usb_serial_write+0x14>)
    7ab6:	781b      	ldrb	r3, [r3, #0]
    7ab8:	f003 02ff 	and.w	r2, r3, #255	; 0xff
    7abc:	b10b      	cbz	r3, 7ac2 <usb_serial_write+0xe>
    7abe:	f7ff bd9f 	b.w	7600 <usb_serial_write.part.0>
}
    7ac2:	4610      	mov	r0, r2
    7ac4:	4770      	bx	lr
    7ac6:	bf00      	nop
    7ac8:	2000237f 	.word	0x2000237f

00007acc <usb_serial_write_buffer_free>:
{
    7acc:	e92d 41f0 	stmdb	sp!, {r4, r5, r6, r7, r8, lr}
	for (uint32_t i=0; i < TX_NUM; i++) {
    7ad0:	2400      	movs	r4, #0
	tx_noautoflush = 1;
    7ad2:	f8df 8044 	ldr.w	r8, [pc, #68]	; 7b18 <usb_serial_write_buffer_free+0x4c>
    7ad6:	2301      	movs	r3, #1
    7ad8:	4d0d      	ldr	r5, [pc, #52]	; (7b10 <usb_serial_write_buffer_free+0x44>)
	uint32_t sum = 0;
    7ada:	4627      	mov	r7, r4
    7adc:	4e0d      	ldr	r6, [pc, #52]	; (7b14 <usb_serial_write_buffer_free+0x48>)
	tx_noautoflush = 1;
    7ade:	f888 3000 	strb.w	r3, [r8]
		if (i == tx_head) continue;
    7ae2:	7833      	ldrb	r3, [r6, #0]
		if (!(usb_transfer_status(tx_transfer + i) & 0x80)) sum += TX_SIZE;
    7ae4:	4628      	mov	r0, r5
	for (uint32_t i=0; i < TX_NUM; i++) {
    7ae6:	3520      	adds	r5, #32
		if (i == tx_head) continue;
    7ae8:	42a3      	cmp	r3, r4
	for (uint32_t i=0; i < TX_NUM; i++) {
    7aea:	f104 0401 	add.w	r4, r4, #1
		if (i == tx_head) continue;
    7aee:	d005      	beq.n	7afc <usb_serial_write_buffer_free+0x30>
		if (!(usb_transfer_status(tx_transfer + i) & 0x80)) sum += TX_SIZE;
    7af0:	f7ff fc76 	bl	73e0 <usb_transfer_status>
    7af4:	0603      	lsls	r3, r0, #24
    7af6:	bf58      	it	pl
    7af8:	f507 6700 	addpl.w	r7, r7, #2048	; 0x800
	for (uint32_t i=0; i < TX_NUM; i++) {
    7afc:	2c04      	cmp	r4, #4
    7afe:	d1f0      	bne.n	7ae2 <usb_serial_write_buffer_free+0x16>
	asm("dsb" ::: "memory");
    7b00:	f3bf 8f4f 	dsb	sy
	tx_noautoflush = 0;
    7b04:	2300      	movs	r3, #0
}
    7b06:	4638      	mov	r0, r7
	tx_noautoflush = 0;
    7b08:	f888 3000 	strb.w	r3, [r8]
}
    7b0c:	e8bd 81f0 	ldmia.w	sp!, {r4, r5, r6, r7, r8, pc}
    7b10:	20001c60 	.word	0x20001c60
    7b14:	2000237c 	.word	0x2000237c
    7b18:	2000237d 	.word	0x2000237d

00007b1c <usb_serial_flush_output>:
{
    7b1c:	e92d 43f8 	stmdb	sp!, {r3, r4, r5, r6, r7, r8, r9, lr}
	if (!usb_configuration) return;
    7b20:	4b1d      	ldr	r3, [pc, #116]	; (7b98 <usb_serial_flush_output+0x7c>)
    7b22:	781b      	ldrb	r3, [r3, #0]
    7b24:	b113      	cbz	r3, 7b2c <usb_serial_flush_output+0x10>
	if (tx_available == 0) return;
    7b26:	4d1d      	ldr	r5, [pc, #116]	; (7b9c <usb_serial_flush_output+0x80>)
    7b28:	882a      	ldrh	r2, [r5, #0]
    7b2a:	b90a      	cbnz	r2, 7b30 <usb_serial_flush_output+0x14>
}
    7b2c:	e8bd 83f8 	ldmia.w	sp!, {r3, r4, r5, r6, r7, r8, r9, pc}
	transfer_t *xfer = tx_transfer + tx_head;
    7b30:	4e1b      	ldr	r6, [pc, #108]	; (7ba0 <usb_serial_flush_output+0x84>)
	uint32_t txnum = TX_SIZE - tx_available;
    7b32:	f5c2 6900 	rsb	r9, r2, #2048	; 0x800
	transfer_t *xfer = tx_transfer + tx_head;
    7b36:	491b      	ldr	r1, [pc, #108]	; (7ba4 <usb_serial_flush_output+0x88>)
    7b38:	7833      	ldrb	r3, [r6, #0]
	usb_prepare_transfer(xfer, txbuf, txnum, 0);
    7b3a:	464a      	mov	r2, r9
	uint8_t *txbuf = txbuffer + (tx_head * TX_SIZE);
    7b3c:	4c1a      	ldr	r4, [pc, #104]	; (7ba8 <usb_serial_flush_output+0x8c>)
	transfer_t *xfer = tx_transfer + tx_head;
    7b3e:	eb01 1843 	add.w	r8, r1, r3, lsl #5
	tx_noautoflush = 1;
    7b42:	4f1a      	ldr	r7, [pc, #104]	; (7bac <usb_serial_flush_output+0x90>)
	uint8_t *txbuf = txbuffer + (tx_head * TX_SIZE);
    7b44:	eb04 24c3 	add.w	r4, r4, r3, lsl #11
	tx_noautoflush = 1;
    7b48:	2301      	movs	r3, #1
	usb_prepare_transfer(xfer, txbuf, txnum, 0);
    7b4a:	4640      	mov	r0, r8
	tx_noautoflush = 1;
    7b4c:	703b      	strb	r3, [r7, #0]
	usb_prepare_transfer(xfer, txbuf, txnum, 0);
    7b4e:	4621      	mov	r1, r4
    7b50:	2300      	movs	r3, #0
    7b52:	f7ff fc0b 	bl	736c <usb_prepare_transfer>
	uint32_t end_addr = (uint32_t)addr + size;
    7b56:	eb04 0209 	add.w	r2, r4, r9
	asm("dsb");
    7b5a:	f3bf 8f4f 	dsb	sy
		SCB_CACHE_DCCIMVAC = location;
    7b5e:	f04f 23e0 	mov.w	r3, #3758153728	; 0xe000e000
    7b62:	f8c3 4f70 	str.w	r4, [r3, #3952]	; 0xf70
		location += 32;
    7b66:	3420      	adds	r4, #32
	} while (location < end_addr);
    7b68:	42a2      	cmp	r2, r4
    7b6a:	d8fa      	bhi.n	7b62 <usb_serial_flush_output+0x46>
	asm("dsb");
    7b6c:	f3bf 8f4f 	dsb	sy
	asm("isb");
    7b70:	f3bf 8f6f 	isb	sy
	usb_transmit(CDC_TX_ENDPOINT, xfer);
    7b74:	2004      	movs	r0, #4
    7b76:	4641      	mov	r1, r8
    7b78:	f7ff fc10 	bl	739c <usb_transmit>
	if (++tx_head >= TX_NUM) tx_head = 0;
    7b7c:	7833      	ldrb	r3, [r6, #0]
    7b7e:	3301      	adds	r3, #1
    7b80:	b2db      	uxtb	r3, r3
    7b82:	2b03      	cmp	r3, #3
    7b84:	bf88      	it	hi
    7b86:	2300      	movhi	r3, #0
    7b88:	7033      	strb	r3, [r6, #0]
	tx_available = 0;
    7b8a:	2300      	movs	r3, #0
    7b8c:	802b      	strh	r3, [r5, #0]
	asm("dsb" ::: "memory");
    7b8e:	f3bf 8f4f 	dsb	sy
	tx_noautoflush = 0;
    7b92:	703b      	strb	r3, [r7, #0]
}
    7b94:	e8bd 83f8 	ldmia.w	sp!, {r3, r4, r5, r6, r7, r8, r9, pc}
    7b98:	2000237f 	.word	0x2000237f
    7b9c:	2000236e 	.word	0x2000236e
    7ba0:	2000237c 	.word	0x2000237c
    7ba4:	20001c60 	.word	0x20001c60
    7ba8:	20201080 	.word	0x20201080
    7bac:	2000237d 	.word	0x2000237d

00007bb0 <yield>:
uint8_t yield_active_check_flags = 0;


void yield(void) __attribute__ ((weak));
void yield(void)
{
    7bb0:	e92d 43f8 	stmdb	sp!, {r3, r4, r5, r6, r7, r8, r9, lr}
	const uint8_t check_flags = yield_active_check_flags;
    7bb4:	4b2d      	ldr	r3, [pc, #180]	; (7c6c <yield+0xbc>)
    7bb6:	781e      	ldrb	r6, [r3, #0]
	if (!check_flags) return;	// nothing to do
    7bb8:	b166      	cbz	r6, 7bd4 <yield+0x24>

	// TODO: do nothing if called from interrupt

	static uint8_t running=0;
	if (running) return; // TODO: does this need to be atomic?
    7bba:	4f2d      	ldr	r7, [pc, #180]	; (7c70 <yield+0xc0>)
    7bbc:	783b      	ldrb	r3, [r7, #0]
    7bbe:	b94b      	cbnz	r3, 7bd4 <yield+0x24>
	running = 1;
    7bc0:	2301      	movs	r3, #1

	// USB Serial - Add hack to minimize impact...
	if (check_flags & YIELD_CHECK_USB_SERIAL) {
    7bc2:	07f1      	lsls	r1, r6, #31
	running = 1;
    7bc4:	703b      	strb	r3, [r7, #0]
	if (check_flags & YIELD_CHECK_USB_SERIAL) {
    7bc6:	d443      	bmi.n	7c50 <yield+0xa0>
		if (SerialUSB2.available()) serialEventUSB2();
	}
#endif

	// Current workaround until integrate with EventResponder.
	if (check_flags & YIELD_CHECK_HARDWARE_SERIAL) {
    7bc8:	07b2      	lsls	r2, r6, #30
    7bca:	d426      	bmi.n	7c1a <yield+0x6a>
		HardwareSerialIMXRT::processSerialEventsList();
	}

	running = 0;
    7bcc:	2300      	movs	r3, #0
    7bce:	703b      	strb	r3, [r7, #0]
	if (check_flags & YIELD_CHECK_EVENT_RESPONDER) {
    7bd0:	0773      	lsls	r3, r6, #29
    7bd2:	d401      	bmi.n	7bd8 <yield+0x28>
		EventResponder::runFromYield();
	}
};
    7bd4:	e8bd 83f8 	ldmia.w	sp!, {r3, r4, r5, r6, r7, r8, r9, pc}
		if (!firstYield) return;  
    7bd8:	4b26      	ldr	r3, [pc, #152]	; (7c74 <yield+0xc4>)
    7bda:	681a      	ldr	r2, [r3, #0]
    7bdc:	2a00      	cmp	r2, #0
    7bde:	d0f9      	beq.n	7bd4 <yield+0x24>
		__asm__ volatile("mrs %0, ipsr\n" : "=r" (ipsr)::);
    7be0:	f3ef 8205 	mrs	r2, IPSR
		if (ipsr != 0) return;
    7be4:	2a00      	cmp	r2, #0
    7be6:	d1f5      	bne.n	7bd4 <yield+0x24>
		__asm__ volatile("mrs %0, primask\n" : "=r" (primask)::);
    7be8:	f3ef 8510 	mrs	r5, PRIMASK
		__disable_irq();
    7bec:	b672      	cpsid	i
		EventResponder *first = firstYield;
    7bee:	6818      	ldr	r0, [r3, #0]
		if (first == nullptr) {
    7bf0:	2800      	cmp	r0, #0
    7bf2:	d034      	beq.n	7c5e <yield+0xae>
		if (runningFromYield) {
    7bf4:	4c20      	ldr	r4, [pc, #128]	; (7c78 <yield+0xc8>)
    7bf6:	7821      	ldrb	r1, [r4, #0]
    7bf8:	2900      	cmp	r1, #0
    7bfa:	d130      	bne.n	7c5e <yield+0xae>
		runningFromYield = true;
    7bfc:	2201      	movs	r2, #1
    7bfe:	7022      	strb	r2, [r4, #0]
		firstYield = first->_next;
    7c00:	6942      	ldr	r2, [r0, #20]
    7c02:	601a      	str	r2, [r3, #0]
		if (firstYield) {
    7c04:	2a00      	cmp	r2, #0
    7c06:	d02e      	beq.n	7c66 <yield+0xb6>
			firstYield->_prev = nullptr;
    7c08:	6191      	str	r1, [r2, #24]
		if (doit) __enable_irq();
    7c0a:	b905      	cbnz	r5, 7c0e <yield+0x5e>
    7c0c:	b662      	cpsie	i
		first->_triggered = false;
    7c0e:	2500      	movs	r5, #0
		(*(first->_function))(*first);
    7c10:	6883      	ldr	r3, [r0, #8]
		first->_triggered = false;
    7c12:	7745      	strb	r5, [r0, #29]
		(*(first->_function))(*first);
    7c14:	4798      	blx	r3
		runningFromYield = false;
    7c16:	7025      	strb	r5, [r4, #0]
    7c18:	e7dc      	b.n	7bd4 <yield+0x24>
	*/

	operator bool()			{ return true; }

	static inline void processSerialEventsList() {
		for (uint8_t i = 0; i < s_count_serials_with_serial_events; i++) {
    7c1a:	f8df 8064 	ldr.w	r8, [pc, #100]	; 7c80 <yield+0xd0>
    7c1e:	f898 3000 	ldrb.w	r3, [r8]
    7c22:	2b00      	cmp	r3, #0
    7c24:	d0d2      	beq.n	7bcc <yield+0x1c>
    7c26:	2500      	movs	r5, #0
    7c28:	f8df 9058 	ldr.w	r9, [pc, #88]	; 7c84 <yield+0xd4>
    7c2c:	462b      	mov	r3, r5
			s_serials_with_serial_events[i]->doYieldCode();
    7c2e:	f859 4023 	ldr.w	r4, [r9, r3, lsl #2]
		for (uint8_t i = 0; i < s_count_serials_with_serial_events; i++) {
    7c32:	3501      	adds	r5, #1
	static HardwareSerialIMXRT 	*s_serials_with_serial_events[7];
	#endif
	static uint8_t 			s_count_serials_with_serial_events;
	void addToSerialEventsList(); 
	inline void doYieldCode()  {
		if (available()) (*hardware->_serialEvent)();
    7c34:	6823      	ldr	r3, [r4, #0]
    7c36:	4620      	mov	r0, r4
    7c38:	691b      	ldr	r3, [r3, #16]
    7c3a:	4798      	blx	r3
    7c3c:	b110      	cbz	r0, 7c44 <yield+0x94>
    7c3e:	6963      	ldr	r3, [r4, #20]
    7c40:	689b      	ldr	r3, [r3, #8]
    7c42:	4798      	blx	r3
		for (uint8_t i = 0; i < s_count_serials_with_serial_events; i++) {
    7c44:	f898 2000 	ldrb.w	r2, [r8]
    7c48:	b2eb      	uxtb	r3, r5
    7c4a:	429a      	cmp	r2, r3
    7c4c:	d8ef      	bhi.n	7c2e <yield+0x7e>
    7c4e:	e7bd      	b.n	7bcc <yield+0x1c>
        virtual int available() { return usb_serial_available(); }
    7c50:	f7ff fec6 	bl	79e0 <usb_serial_available>
		if (Serial.available()) serialEvent();
    7c54:	2800      	cmp	r0, #0
    7c56:	d0b7      	beq.n	7bc8 <yield+0x18>
    7c58:	f3af 8000 	nop.w
    7c5c:	e7b4      	b.n	7bc8 <yield+0x18>
		if (doit) __enable_irq();
    7c5e:	2d00      	cmp	r5, #0
    7c60:	d1b8      	bne.n	7bd4 <yield+0x24>
    7c62:	b662      	cpsie	i
    7c64:	e7b6      	b.n	7bd4 <yield+0x24>
			lastYield = nullptr;
    7c66:	4b05      	ldr	r3, [pc, #20]	; (7c7c <yield+0xcc>)
    7c68:	601a      	str	r2, [r3, #0]
    7c6a:	e7ce      	b.n	7c0a <yield+0x5a>
    7c6c:	20002382 	.word	0x20002382
    7c70:	20002374 	.word	0x20002374
    7c74:	20001de4 	.word	0x20001de4
    7c78:	20002372 	.word	0x20002372
    7c7c:	20001df0 	.word	0x20001df0
    7c80:	20002373 	.word	0x20002373
    7c84:	20001df4 	.word	0x20001df4

00007c88 <teensy::inplace_function_detail::vtable<void>::vtable()::{lambda(void*)#1}::_FUN(void*)>:
        invoke_ptr{ [](storage_ptr_t, Args&&...) -> R
    7c88:	4770      	bx	lr
    7c8a:	bf00      	nop

00007c8c <teensy::inplace_function_detail::vtable<void>::vtable()::{lambda(void*, void*)#2}::_FUN(void*, void*)>:
        copy_ptr{ [](storage_ptr_t, storage_ptr_t) -> void {} },
    7c8c:	4770      	bx	lr
    7c8e:	bf00      	nop

00007c90 <teensy::inplace_function_detail::vtable<void>::vtable()::{lambda(void*, void*)#3}::_FUN(void*, void*)>:
        relocate_ptr{ [](storage_ptr_t, storage_ptr_t) -> void {} },
    7c90:	4770      	bx	lr
    7c92:	bf00      	nop

00007c94 <teensy::inplace_function_detail::vtable<void>::vtable()::{lambda(void*)#4}::_FUN(void*)>:
        destructor_ptr{ [](storage_ptr_t) -> void {} }
    7c94:	4770      	bx	lr
    7c96:	bf00      	nop

00007c98 <pit_isr()>:
#endif
}

//FASTRUN
static void pit_isr()
{
    7c98:	b570      	push	{r4, r5, r6, lr}
        return operator bool();
    }

    explicit constexpr operator bool() const noexcept
    {
        return vtable_ptr_ != std::addressof(inplace_function_detail::empty_vtable<R, Args...>);
    7c9a:	4c1a      	ldr	r4, [pc, #104]	; (7d04 <pit_isr()+0x6c>)

		}
	}
#else
	IMXRT_PIT_CHANNEL_t *channel= IMXRT_PIT_CHANNELS;
	if (funct_table[0] != nullptr && channel->TFLG) {channel->TFLG = 1;funct_table[0]();}
    7c9c:	4d1a      	ldr	r5, [pc, #104]	; (7d08 <pit_isr()+0x70>)
    7c9e:	6823      	ldr	r3, [r4, #0]
    7ca0:	42ab      	cmp	r3, r5
    7ca2:	d002      	beq.n	7caa <pit_isr()+0x12>
    7ca4:	4a19      	ldr	r2, [pc, #100]	; (7d0c <pit_isr()+0x74>)
    7ca6:	68d1      	ldr	r1, [r2, #12]
    7ca8:	bb29      	cbnz	r1, 7cf6 <pit_isr()+0x5e>
    7caa:	69a3      	ldr	r3, [r4, #24]
	channel++;
	if (funct_table[1] != nullptr && channel->TFLG) {channel->TFLG = 1;funct_table[1]();}
    7cac:	42ab      	cmp	r3, r5
    7cae:	d002      	beq.n	7cb6 <pit_isr()+0x1e>
    7cb0:	4a16      	ldr	r2, [pc, #88]	; (7d0c <pit_isr()+0x74>)
    7cb2:	69d1      	ldr	r1, [r2, #28]
    7cb4:	b9c9      	cbnz	r1, 7cea <pit_isr()+0x52>
    7cb6:	6b23      	ldr	r3, [r4, #48]	; 0x30
	channel++;
	if (funct_table[2] != nullptr && channel->TFLG) {channel->TFLG = 1;funct_table[2]();}
    7cb8:	42ab      	cmp	r3, r5
    7cba:	d002      	beq.n	7cc2 <pit_isr()+0x2a>
    7cbc:	4a13      	ldr	r2, [pc, #76]	; (7d0c <pit_isr()+0x74>)
    7cbe:	6ad1      	ldr	r1, [r2, #44]	; 0x2c
    7cc0:	b969      	cbnz	r1, 7cde <pit_isr()+0x46>
    7cc2:	6ca3      	ldr	r3, [r4, #72]	; 0x48
	channel++;
	if (funct_table[3] != nullptr && channel->TFLG) {channel->TFLG = 1;funct_table[3]();}
    7cc4:	42ab      	cmp	r3, r5
    7cc6:	d009      	beq.n	7cdc <pit_isr()+0x44>
    7cc8:	4a10      	ldr	r2, [pc, #64]	; (7d0c <pit_isr()+0x74>)
    7cca:	6bd1      	ldr	r1, [r2, #60]	; 0x3c
    7ccc:	b131      	cbz	r1, 7cdc <pit_isr()+0x44>
    7cce:	2101      	movs	r1, #1
        return vtable_ptr_->invoke_ptr(
    7cd0:	681b      	ldr	r3, [r3, #0]
    7cd2:	480f      	ldr	r0, [pc, #60]	; (7d10 <pit_isr()+0x78>)
    7cd4:	63d1      	str	r1, [r2, #60]	; 0x3c
#endif
}
    7cd6:	e8bd 4070 	ldmia.w	sp!, {r4, r5, r6, lr}
    7cda:	4718      	bx	r3
    7cdc:	bd70      	pop	{r4, r5, r6, pc}
	if (funct_table[2] != nullptr && channel->TFLG) {channel->TFLG = 1;funct_table[2]();}
    7cde:	2101      	movs	r1, #1
    7ce0:	681b      	ldr	r3, [r3, #0]
    7ce2:	480c      	ldr	r0, [pc, #48]	; (7d14 <pit_isr()+0x7c>)
    7ce4:	62d1      	str	r1, [r2, #44]	; 0x2c
    7ce6:	4798      	blx	r3
        );
    7ce8:	e7eb      	b.n	7cc2 <pit_isr()+0x2a>
	if (funct_table[1] != nullptr && channel->TFLG) {channel->TFLG = 1;funct_table[1]();}
    7cea:	2101      	movs	r1, #1
        return vtable_ptr_->invoke_ptr(
    7cec:	681b      	ldr	r3, [r3, #0]
    7cee:	480a      	ldr	r0, [pc, #40]	; (7d18 <pit_isr()+0x80>)
    7cf0:	61d1      	str	r1, [r2, #28]
    7cf2:	4798      	blx	r3
        );
    7cf4:	e7df      	b.n	7cb6 <pit_isr()+0x1e>
	if (funct_table[0] != nullptr && channel->TFLG) {channel->TFLG = 1;funct_table[0]();}
    7cf6:	2101      	movs	r1, #1
        return vtable_ptr_->invoke_ptr(
    7cf8:	681b      	ldr	r3, [r3, #0]
    7cfa:	f104 0008 	add.w	r0, r4, #8
    7cfe:	60d1      	str	r1, [r2, #12]
    7d00:	4798      	blx	r3
        );
    7d02:	e7d2      	b.n	7caa <pit_isr()+0x12>
    7d04:	20001ac0 	.word	0x20001ac0
    7d08:	200003cc 	.word	0x200003cc
    7d0c:	40084100 	.word	0x40084100
    7d10:	20001b10 	.word	0x20001b10
    7d14:	20001af8 	.word	0x20001af8
    7d18:	20001ae0 	.word	0x20001ae0

00007d1c <__tcf_0>:
static IntervalTimer::callback_t funct_table[4] __attribute((aligned(32))) = {nullptr, nullptr, nullptr, nullptr};
    7d1c:	b538      	push	{r3, r4, r5, lr}
    7d1e:	4c06      	ldr	r4, [pc, #24]	; (7d38 <__tcf_0+0x1c>)
    7d20:	f1a4 0560 	sub.w	r5, r4, #96	; 0x60
        vtable_ptr_->destructor_ptr(std::addressof(storage_));
    7d24:	f854 3c08 	ldr.w	r3, [r4, #-8]
    7d28:	4620      	mov	r0, r4
    7d2a:	3c18      	subs	r4, #24
    7d2c:	68db      	ldr	r3, [r3, #12]
    7d2e:	4798      	blx	r3
    7d30:	42ac      	cmp	r4, r5
    7d32:	d1f7      	bne.n	7d24 <__tcf_0+0x8>
    7d34:	bd38      	pop	{r3, r4, r5, pc}
    7d36:	bf00      	nop
    7d38:	20001b10 	.word	0x20001b10

00007d3c <IntervalTimer::beginCycles(teensy::inplace_function<void (), 16u, 8u>, unsigned long)>:
	if (channel) {
    7d3c:	6803      	ldr	r3, [r0, #0]
{
    7d3e:	e92d 41f0 	stmdb	sp!, {r4, r5, r6, r7, r8, lr}
    7d42:	4604      	mov	r4, r0
    7d44:	b088      	sub	sp, #32
    7d46:	4617      	mov	r7, r2
	if (channel) {
    7d48:	2b00      	cmp	r3, #0
    7d4a:	d04b      	beq.n	7de4 <IntervalTimer::beginCycles(teensy::inplace_function<void (), 16u, 8u>, unsigned long)+0xa8>
		channel->TCTRL = 0;
    7d4c:	2200      	movs	r2, #0
    7d4e:	609a      	str	r2, [r3, #8]
		channel->TFLG = 1;
    7d50:	2201      	movs	r2, #1
    7d52:	60da      	str	r2, [r3, #12]
	int index = channel - IMXRT_PIT_CHANNELS;
    7d54:	4d30      	ldr	r5, [pc, #192]	; (7e18 <IntervalTimer::beginCycles(teensy::inplace_function<void (), 16u, 8u>, unsigned long)+0xdc>)
        vtable_ptr_->copy_ptr(
    7d56:	a804      	add	r0, sp, #16
        vtable_ptr_->destructor_ptr(std::addressof(storage_));
    7d58:	f8df 80e0 	ldr.w	r8, [pc, #224]	; 7e3c <IntervalTimer::beginCycles(teensy::inplace_function<void (), 16u, 8u>, unsigned long)+0x100>
    7d5c:	441d      	add	r5, r3
        vtable_ptr_{other.vtable_ptr_}
    7d5e:	f851 3b08 	ldr.w	r3, [r1], #8
    7d62:	112d      	asrs	r5, r5, #4
    7d64:	9302      	str	r3, [sp, #8]
        vtable_ptr_->copy_ptr(
    7d66:	685b      	ldr	r3, [r3, #4]
        vtable_ptr_->destructor_ptr(std::addressof(storage_));
    7d68:	eb05 0645 	add.w	r6, r5, r5, lsl #1
        vtable_ptr_->copy_ptr(
    7d6c:	4798      	blx	r3
        vtable_ptr_->destructor_ptr(std::addressof(storage_));
    7d6e:	00f6      	lsls	r6, r6, #3
    7d70:	f106 0008 	add.w	r0, r6, #8
    7d74:	f858 3006 	ldr.w	r3, [r8, r6]
    7d78:	4440      	add	r0, r8
    7d7a:	68db      	ldr	r3, [r3, #12]
    7d7c:	9001      	str	r0, [sp, #4]
    7d7e:	4798      	blx	r3
    _GLIBCXX20_CONSTEXPR
    inline _Tp
    __exchange(_Tp& __obj, _Up&& __new_val)
    {
      _Tp __old_val = std::move(__obj);
      __obj = std::forward<_Up>(__new_val);
    7d80:	4a26      	ldr	r2, [pc, #152]	; (7e1c <IntervalTimer::beginCycles(teensy::inplace_function<void (), 16u, 8u>, unsigned long)+0xe0>)
        vtable_ptr_->relocate_ptr(
    7d82:	a904      	add	r1, sp, #16
      _Tp __old_val = std::move(__obj);
    7d84:	e9dd 0301 	ldrd	r0, r3, [sp, #4]
      __obj = std::forward<_Up>(__new_val);
    7d88:	9202      	str	r2, [sp, #8]
        vtable_ptr_ = std::exchange(other.vtable_ptr_, std::addressof(inplace_function_detail::empty_vtable<R, Args...>));
    7d8a:	f848 3006 	str.w	r3, [r8, r6]
        vtable_ptr_->relocate_ptr(
    7d8e:	689b      	ldr	r3, [r3, #8]
    7d90:	4798      	blx	r3
        vtable_ptr_->destructor_ptr(std::addressof(storage_));
    7d92:	9b02      	ldr	r3, [sp, #8]
    7d94:	a804      	add	r0, sp, #16
    7d96:	68db      	ldr	r3, [r3, #12]
    7d98:	4798      	blx	r3
	channel->LDVAL = cycles;
    7d9a:	6823      	ldr	r3, [r4, #0]
	channel->TCTRL = 3;
    7d9c:	2203      	movs	r2, #3
static inline void attachInterruptVector(IRQ_NUMBER_t irq, void (*function)(void)) { _VectorsRam[irq + 16] = function; asm volatile("": : :"memory"); }
    7d9e:	4820      	ldr	r0, [pc, #128]	; (7e20 <IntervalTimer::beginCycles(teensy::inplace_function<void (), 16u, 8u>, unsigned long)+0xe4>)
	channel->LDVAL = cycles;
    7da0:	601f      	str	r7, [r3, #0]
	channel->TCTRL = 3;
    7da2:	609a      	str	r2, [r3, #8]
	nvic_priorites[index] = nvic_priority;
    7da4:	4a1f      	ldr	r2, [pc, #124]	; (7e24 <IntervalTimer::beginCycles(teensy::inplace_function<void (), 16u, 8u>, unsigned long)+0xe8>)
    7da6:	7923      	ldrb	r3, [r4, #4]
    7da8:	4c1f      	ldr	r4, [pc, #124]	; (7e28 <IntervalTimer::beginCycles(teensy::inplace_function<void (), 16u, 8u>, unsigned long)+0xec>)
    7daa:	5553      	strb	r3, [r2, r5]
		if (top_priority > nvic_priorites[i]) top_priority = nvic_priorites[i];
    7dac:	7813      	ldrb	r3, [r2, #0]
    7dae:	7851      	ldrb	r1, [r2, #1]
    7db0:	f8c0 4228 	str.w	r4, [r0, #552]	; 0x228
    7db4:	428b      	cmp	r3, r1
    7db6:	bf28      	it	cs
    7db8:	460b      	movcs	r3, r1
    7dba:	7891      	ldrb	r1, [r2, #2]
    7dbc:	78d2      	ldrb	r2, [r2, #3]
    7dbe:	428b      	cmp	r3, r1
    7dc0:	bf28      	it	cs
    7dc2:	460b      	movcs	r3, r1
    7dc4:	4293      	cmp	r3, r2
    7dc6:	bf28      	it	cs
    7dc8:	4613      	movcs	r3, r2
	NVIC_SET_PRIORITY(IRQ_PIT, top_priority);
    7dca:	4c18      	ldr	r4, [pc, #96]	; (7e2c <IntervalTimer::beginCycles(teensy::inplace_function<void (), 16u, 8u>, unsigned long)+0xf0>)
	NVIC_ENABLE_IRQ(IRQ_PIT);
    7dcc:	f04f 22e0 	mov.w	r2, #3758153728	; 0xe000e000
    7dd0:	f04f 6180 	mov.w	r1, #67108864	; 0x4000000
	return true;
    7dd4:	2001      	movs	r0, #1
	NVIC_SET_PRIORITY(IRQ_PIT, top_priority);
    7dd6:	f884 307a 	strb.w	r3, [r4, #122]	; 0x7a
	NVIC_ENABLE_IRQ(IRQ_PIT);
    7dda:	f8c2 110c 	str.w	r1, [r2, #268]	; 0x10c
}
    7dde:	b008      	add	sp, #32
    7de0:	e8bd 81f0 	ldmia.w	sp!, {r4, r5, r6, r7, r8, pc}
		CCM_CCGR1 |= CCM_CCGR1_PIT(CCM_CCGR_ON);
    7de4:	4a12      	ldr	r2, [pc, #72]	; (7e30 <IntervalTimer::beginCycles(teensy::inplace_function<void (), 16u, 8u>, unsigned long)+0xf4>)
    7de6:	6ed3      	ldr	r3, [r2, #108]	; 0x6c
    7de8:	f443 5340 	orr.w	r3, r3, #12288	; 0x3000
    7dec:	66d3      	str	r3, [r2, #108]	; 0x6c
		PIT_MCR = 1;
    7dee:	2201      	movs	r2, #1
    7df0:	4b10      	ldr	r3, [pc, #64]	; (7e34 <IntervalTimer::beginCycles(teensy::inplace_function<void (), 16u, 8u>, unsigned long)+0xf8>)
    7df2:	601a      	str	r2, [r3, #0]
		channel = IMXRT_PIT_CHANNELS;
    7df4:	4a10      	ldr	r2, [pc, #64]	; (7e38 <IntervalTimer::beginCycles(teensy::inplace_function<void (), 16u, 8u>, unsigned long)+0xfc>)
    7df6:	4613      	mov	r3, r2
    7df8:	6002      	str	r2, [r0, #0]
			if (++channel >= IMXRT_PIT_CHANNELS + NUM_CHANNELS) {
    7dfa:	3240      	adds	r2, #64	; 0x40
			if (channel->TCTRL == 0) break;
    7dfc:	6898      	ldr	r0, [r3, #8]
    7dfe:	2800      	cmp	r0, #0
    7e00:	d0a8      	beq.n	7d54 <IntervalTimer::beginCycles(teensy::inplace_function<void (), 16u, 8u>, unsigned long)+0x18>
			if (++channel >= IMXRT_PIT_CHANNELS + NUM_CHANNELS) {
    7e02:	3310      	adds	r3, #16
    7e04:	4293      	cmp	r3, r2
    7e06:	6023      	str	r3, [r4, #0]
    7e08:	d1f8      	bne.n	7dfc <IntervalTimer::beginCycles(teensy::inplace_function<void (), 16u, 8u>, unsigned long)+0xc0>
				channel = NULL;
    7e0a:	2300      	movs	r3, #0
				return false;
    7e0c:	4618      	mov	r0, r3
				channel = NULL;
    7e0e:	6023      	str	r3, [r4, #0]
}
    7e10:	b008      	add	sp, #32
    7e12:	e8bd 81f0 	ldmia.w	sp!, {r4, r5, r6, r7, r8, pc}
    7e16:	bf00      	nop
    7e18:	bff7bf00 	.word	0xbff7bf00
    7e1c:	200003cc 	.word	0x200003cc
    7e20:	20001800 	.word	0x20001800
    7e24:	20000d48 	.word	0x20000d48
    7e28:	00007c99 	.word	0x00007c99
    7e2c:	e000e400 	.word	0xe000e400
    7e30:	400fc000 	.word	0x400fc000
    7e34:	40084000 	.word	0x40084000
    7e38:	40084100 	.word	0x40084100
    7e3c:	20001ac0 	.word	0x20001ac0

00007e40 <IntervalTimer::end()>:
void IntervalTimer::end() {
    7e40:	b5f8      	push	{r3, r4, r5, r6, r7, lr}
	if (channel) {
    7e42:	6803      	ldr	r3, [r0, #0]
    7e44:	b343      	cbz	r3, 7e98 <IntervalTimer::end()+0x58>
		int index = channel - IMXRT_PIT_CHANNELS;
    7e46:	4c15      	ldr	r4, [pc, #84]	; (7e9c <IntervalTimer::end()+0x5c>)
    7e48:	4607      	mov	r7, r0
        vtable_ptr_->destructor_ptr(std::addressof(storage_));
    7e4a:	4e15      	ldr	r6, [pc, #84]	; (7ea0 <IntervalTimer::end()+0x60>)
    7e4c:	441c      	add	r4, r3
    7e4e:	1124      	asrs	r4, r4, #4
    7e50:	eb04 0544 	add.w	r5, r4, r4, lsl #1
    7e54:	00ed      	lsls	r5, r5, #3
    7e56:	5973      	ldr	r3, [r6, r5]
    7e58:	f105 0008 	add.w	r0, r5, #8
    7e5c:	68db      	ldr	r3, [r3, #12]
    7e5e:	4430      	add	r0, r6
    7e60:	4798      	blx	r3
        vtable_ptr_ = std::addressof(inplace_function_detail::empty_vtable<R, Args...>);
    7e62:	4b10      	ldr	r3, [pc, #64]	; (7ea4 <IntervalTimer::end()+0x64>)
		channel->TCTRL = 0;
    7e64:	2100      	movs	r1, #0
		channel->TFLG = 1;
    7e66:	2201      	movs	r2, #1
    7e68:	5173      	str	r3, [r6, r5]
		channel->TCTRL = 0;
    7e6a:	683b      	ldr	r3, [r7, #0]
    7e6c:	6099      	str	r1, [r3, #8]
		channel->TFLG = 1;
    7e6e:	60da      	str	r2, [r3, #12]
		nvic_priorites[index] = 255;
    7e70:	23ff      	movs	r3, #255	; 0xff
    7e72:	4a0d      	ldr	r2, [pc, #52]	; (7ea8 <IntervalTimer::end()+0x68>)
    7e74:	5513      	strb	r3, [r2, r4]
			if (top_priority > nvic_priorites[i]) top_priority = nvic_priorites[i];
    7e76:	7813      	ldrb	r3, [r2, #0]
    7e78:	7850      	ldrb	r0, [r2, #1]
    7e7a:	7894      	ldrb	r4, [r2, #2]
    7e7c:	4283      	cmp	r3, r0
    7e7e:	bf28      	it	cs
    7e80:	4603      	movcs	r3, r0
    7e82:	78d0      	ldrb	r0, [r2, #3]
		NVIC_SET_PRIORITY(IRQ_PIT, top_priority);
    7e84:	4a09      	ldr	r2, [pc, #36]	; (7eac <IntervalTimer::end()+0x6c>)
    7e86:	42a3      	cmp	r3, r4
    7e88:	bf28      	it	cs
    7e8a:	4623      	movcs	r3, r4
    7e8c:	4283      	cmp	r3, r0
    7e8e:	bf28      	it	cs
    7e90:	4603      	movcs	r3, r0
    7e92:	f882 307a 	strb.w	r3, [r2, #122]	; 0x7a
		channel = 0;
    7e96:	6039      	str	r1, [r7, #0]
}
    7e98:	bdf8      	pop	{r3, r4, r5, r6, r7, pc}
    7e9a:	bf00      	nop
    7e9c:	bff7bf00 	.word	0xbff7bf00
    7ea0:	20001ac0 	.word	0x20001ac0
    7ea4:	200003cc 	.word	0x200003cc
    7ea8:	20000d48 	.word	0x20000d48
    7eac:	e000e400 	.word	0xe000e400

00007eb0 <_GLOBAL__sub_I__ZN13IntervalTimer14nvic_prioritesE>:
}
    7eb0:	b410      	push	{r4}
        vtable_ptr_{std::addressof(inplace_function_detail::empty_vtable<R, Args...>)}
    7eb2:	4b06      	ldr	r3, [pc, #24]	; (7ecc <_GLOBAL__sub_I__ZN13IntervalTimer14nvic_prioritesE+0x1c>)
static IntervalTimer::callback_t funct_table[4] __attribute((aligned(32))) = {nullptr, nullptr, nullptr, nullptr};
    7eb4:	2000      	movs	r0, #0
    7eb6:	4c06      	ldr	r4, [pc, #24]	; (7ed0 <_GLOBAL__sub_I__ZN13IntervalTimer14nvic_prioritesE+0x20>)
    7eb8:	4a06      	ldr	r2, [pc, #24]	; (7ed4 <_GLOBAL__sub_I__ZN13IntervalTimer14nvic_prioritesE+0x24>)
    7eba:	601c      	str	r4, [r3, #0]
    7ebc:	619c      	str	r4, [r3, #24]
    7ebe:	631c      	str	r4, [r3, #48]	; 0x30
    7ec0:	649c      	str	r4, [r3, #72]	; 0x48
    7ec2:	4905      	ldr	r1, [pc, #20]	; (7ed8 <_GLOBAL__sub_I__ZN13IntervalTimer14nvic_prioritesE+0x28>)
}
    7ec4:	f85d 4b04 	ldr.w	r4, [sp], #4
static IntervalTimer::callback_t funct_table[4] __attribute((aligned(32))) = {nullptr, nullptr, nullptr, nullptr};
    7ec8:	f000 b8d2 	b.w	8070 <__aeabi_atexit>
    7ecc:	20001ac0 	.word	0x20001ac0
    7ed0:	200003cc 	.word	0x200003cc
    7ed4:	20000db4 	.word	0x20000db4
    7ed8:	00007d1d 	.word	0x00007d1d

00007edc <flexpwm_init>:
{
	int i;

	p->FCTRL0 = FLEXPWM_FCTRL0_FLVL(15); // logic high = fault
	p->FSTS0 = 0x000F; // clear fault status
	p->FFILT0 = 0;
    7edc:	2300      	movs	r3, #0
	p->FSTS0 = 0x000F; // clear fault status
    7ede:	220f      	movs	r2, #15
		p->SM[i].CTRL = FLEXPWM_SMCTRL_FULL;
		p->SM[i].OCTRL = 0;
		p->SM[i].DTCNT0 = 0;
		p->SM[i].INIT = 0;
		p->SM[i].VAL0 = 0;
		p->SM[i].VAL1 = 33464;
    7ee0:	f248 2cb8 	movw	ip, #33464	; 0x82b8
	for (i=0; i < 4; i++) {
    7ee4:	4619      	mov	r1, r3
{
    7ee6:	b510      	push	{r4, lr}
	p->FCTRL0 = FLEXPWM_FCTRL0_FLVL(15); // logic high = fault
    7ee8:	f44f 4470 	mov.w	r4, #61440	; 0xf000
		p->SM[i].CTRL = FLEXPWM_SMCTRL_FULL;
    7eec:	f44f 6e80 	mov.w	lr, #1024	; 0x400
	p->FCTRL0 = FLEXPWM_FCTRL0_FLVL(15); // logic high = fault
    7ef0:	f8a0 418c 	strh.w	r4, [r0, #396]	; 0x18c
		p->SM[i].CTRL2 = FLEXPWM_SMCTRL2_INDEP | FLEXPWM_SMCTRL2_WAITEN
    7ef4:	f44f 4460 	mov.w	r4, #57344	; 0xe000
	p->FSTS0 = 0x000F; // clear fault status
    7ef8:	f8a0 218e 	strh.w	r2, [r0, #398]	; 0x18e
		p->SM[i].OCTRL = 0;
    7efc:	460a      	mov	r2, r1
	p->FFILT0 = 0;
    7efe:	f8a0 3190 	strh.w	r3, [r0, #400]	; 0x190
	p->MCTRL |= FLEXPWM_MCTRL_CLDOK(15);
    7f02:	f8b0 3188 	ldrh.w	r3, [r0, #392]	; 0x188
    7f06:	b29b      	uxth	r3, r3
    7f08:	f043 03f0 	orr.w	r3, r3, #240	; 0xf0
    7f0c:	f8a0 3188 	strh.w	r3, [r0, #392]	; 0x188
		p->SM[i].CTRL2 = FLEXPWM_SMCTRL2_INDEP | FLEXPWM_SMCTRL2_WAITEN
    7f10:	eb01 0341 	add.w	r3, r1, r1, lsl #1
	for (i=0; i < 4; i++) {
    7f14:	3101      	adds	r1, #1
    7f16:	eb00 1343 	add.w	r3, r0, r3, lsl #5
    7f1a:	2904      	cmp	r1, #4
		p->SM[i].CTRL2 = FLEXPWM_SMCTRL2_INDEP | FLEXPWM_SMCTRL2_WAITEN
    7f1c:	809c      	strh	r4, [r3, #4]
		p->SM[i].CTRL = FLEXPWM_SMCTRL_FULL;
    7f1e:	f8a3 e006 	strh.w	lr, [r3, #6]
		p->SM[i].OCTRL = 0;
    7f22:	845a      	strh	r2, [r3, #34]	; 0x22
		p->SM[i].DTCNT0 = 0;
    7f24:	861a      	strh	r2, [r3, #48]	; 0x30
		p->SM[i].INIT = 0;
    7f26:	805a      	strh	r2, [r3, #2]
		p->SM[i].VAL0 = 0;
    7f28:	815a      	strh	r2, [r3, #10]
		p->SM[i].VAL1 = 33464;
    7f2a:	f8a3 c00e 	strh.w	ip, [r3, #14]
		p->SM[i].VAL2 = 0;
    7f2e:	825a      	strh	r2, [r3, #18]
		p->SM[i].VAL3 = 0;
    7f30:	82da      	strh	r2, [r3, #22]
		p->SM[i].VAL4 = 0;
    7f32:	835a      	strh	r2, [r3, #26]
		p->SM[i].VAL5 = 0;
    7f34:	83da      	strh	r2, [r3, #30]
	for (i=0; i < 4; i++) {
    7f36:	d1eb      	bne.n	7f10 <flexpwm_init+0x34>
	}
	p->MCTRL |= FLEXPWM_MCTRL_LDOK(15);
    7f38:	f8b0 3188 	ldrh.w	r3, [r0, #392]	; 0x188
    7f3c:	b29b      	uxth	r3, r3
    7f3e:	f043 030f 	orr.w	r3, r3, #15
    7f42:	f8a0 3188 	strh.w	r3, [r0, #392]	; 0x188
	p->MCTRL |= FLEXPWM_MCTRL_RUN(15);
    7f46:	f8b0 3188 	ldrh.w	r3, [r0, #392]	; 0x188
    7f4a:	b29b      	uxth	r3, r3
    7f4c:	f443 6370 	orr.w	r3, r3, #3840	; 0xf00
    7f50:	f8a0 3188 	strh.w	r3, [r0, #392]	; 0x188
}
    7f54:	bd10      	pop	{r4, pc}
    7f56:	bf00      	nop

00007f58 <pwm_init>:
}

void pwm_init(void)
{
	//printf("pwm init\n");
	CCM_CCGR4 |= CCM_CCGR4_PWM1(CCM_CCGR_ON) | CCM_CCGR4_PWM2(CCM_CCGR_ON) |
    7f58:	4b37      	ldr	r3, [pc, #220]	; (8038 <pwm_init+0xe0>)
		CCM_CCGR4_PWM3(CCM_CCGR_ON) | CCM_CCGR4_PWM4(CCM_CCGR_ON);
	CCM_CCGR6 |= CCM_CCGR6_QTIMER1(CCM_CCGR_ON) | CCM_CCGR6_QTIMER2(CCM_CCGR_ON) |
    7f5a:	4a38      	ldr	r2, [pc, #224]	; (803c <pwm_init+0xe4>)
	CCM_CCGR4 |= CCM_CCGR4_PWM1(CCM_CCGR_ON) | CCM_CCGR4_PWM2(CCM_CCGR_ON) |
    7f5c:	6f99      	ldr	r1, [r3, #120]	; 0x78
		CCM_CCGR6_QTIMER3(CCM_CCGR_ON) | CCM_CCGR6_QTIMER4(CCM_CCGR_ON);
	flexpwm_init(&IMXRT_FLEXPWM1);
    7f5e:	4838      	ldr	r0, [pc, #224]	; (8040 <pwm_init+0xe8>)
	CCM_CCGR4 |= CCM_CCGR4_PWM1(CCM_CCGR_ON) | CCM_CCGR4_PWM2(CCM_CCGR_ON) |
    7f60:	f441 017f 	orr.w	r1, r1, #16711680	; 0xff0000
{
    7f64:	b570      	push	{r4, r5, r6, lr}
	CCM_CCGR4 |= CCM_CCGR4_PWM1(CCM_CCGR_ON) | CCM_CCGR4_PWM2(CCM_CCGR_ON) |
    7f66:	6799      	str	r1, [r3, #120]	; 0x78
		p->CH[i].CSCTRL = TMR_CSCTRL_CL1(1) | TMR_CSCTRL_ALT_LOAD;
    7f68:	f241 0601 	movw	r6, #4097	; 0x1001
	CCM_CCGR6 |= CCM_CCGR6_QTIMER1(CCM_CCGR_ON) | CCM_CCGR6_QTIMER2(CCM_CCGR_ON) |
    7f6c:	f8d3 1080 	ldr.w	r1, [r3, #128]	; 0x80
		p->CH[i].LOAD = 24000;   // low time  (65537 - x) - 
    7f70:	f645 55c0 	movw	r5, #24000	; 0x5dc0
		p->CH[i].CTRL = TMR_CTRL_CM(1) | TMR_CTRL_PCS(8) |
    7f74:	f243 0426 	movw	r4, #12326	; 0x3026
	CCM_CCGR6 |= CCM_CCGR6_QTIMER1(CCM_CCGR_ON) | CCM_CCGR6_QTIMER2(CCM_CCGR_ON) |
    7f78:	430a      	orrs	r2, r1
    7f7a:	f8c3 2080 	str.w	r2, [r3, #128]	; 0x80
	flexpwm_init(&IMXRT_FLEXPWM1);
    7f7e:	f7ff ffad 	bl	7edc <flexpwm_init>
	flexpwm_init(&IMXRT_FLEXPWM2);
    7f82:	f500 4080 	add.w	r0, r0, #16384	; 0x4000
    7f86:	f7ff ffa9 	bl	7edc <flexpwm_init>
	flexpwm_init(&IMXRT_FLEXPWM3);
    7f8a:	f500 4080 	add.w	r0, r0, #16384	; 0x4000
    7f8e:	f7ff ffa5 	bl	7edc <flexpwm_init>
	flexpwm_init(&IMXRT_FLEXPWM4);
    7f92:	f500 4080 	add.w	r0, r0, #16384	; 0x4000
    7f96:	f7ff ffa1 	bl	7edc <flexpwm_init>
	for (i=0; i < 4; i++) {
    7f9a:	2200      	movs	r2, #0
		p->CH[i].CTRL = 0; // stop timer
    7f9c:	f5a0 1003 	sub.w	r0, r0, #2146304	; 0x20c000
		p->CH[i].SCTRL = TMR_SCTRL_OEN | TMR_SCTRL_OPS | TMR_SCTRL_VAL | TMR_SCTRL_FORCE;
    7fa0:	f04f 0e0f 	mov.w	lr, #15
		p->CH[i].CTRL = 0; // stop timer
    7fa4:	4611      	mov	r1, r2
    7fa6:	eb00 1342 	add.w	r3, r0, r2, lsl #5
    7faa:	ea4f 1c42 	mov.w	ip, r2, lsl #5
	for (i=0; i < 4; i++) {
    7fae:	3201      	adds	r2, #1
		p->CH[i].CTRL = 0; // stop timer
    7fb0:	8199      	strh	r1, [r3, #12]
	for (i=0; i < 4; i++) {
    7fb2:	2a04      	cmp	r2, #4
		p->CH[i].CNTR = 0;
    7fb4:	8159      	strh	r1, [r3, #10]
		p->CH[i].SCTRL = TMR_SCTRL_OEN | TMR_SCTRL_OPS | TMR_SCTRL_VAL | TMR_SCTRL_FORCE;
    7fb6:	f8a3 e00e 	strh.w	lr, [r3, #14]
		p->CH[i].CSCTRL = TMR_CSCTRL_CL1(1) | TMR_CSCTRL_ALT_LOAD;
    7fba:	829e      	strh	r6, [r3, #20]
		p->CH[i].LOAD = 24000;   // low time  (65537 - x) - 
    7fbc:	80dd      	strh	r5, [r3, #6]
		p->CH[i].COMP1 = 0;  // high time (0 = always low, max = LOAD-1)
    7fbe:	f820 100c 	strh.w	r1, [r0, ip]
		p->CH[i].CMPLD1 = 0;
    7fc2:	8219      	strh	r1, [r3, #16]
		p->CH[i].CTRL = TMR_CTRL_CM(1) | TMR_CTRL_PCS(8) |
    7fc4:	819c      	strh	r4, [r3, #12]
	for (i=0; i < 4; i++) {
    7fc6:	d1ee      	bne.n	7fa6 <pwm_init+0x4e>
    7fc8:	2200      	movs	r2, #0
		p->CH[i].CTRL = 0; // stop timer
    7fca:	481e      	ldr	r0, [pc, #120]	; (8044 <pwm_init+0xec>)
		p->CH[i].SCTRL = TMR_SCTRL_OEN | TMR_SCTRL_OPS | TMR_SCTRL_VAL | TMR_SCTRL_FORCE;
    7fcc:	f04f 0e0f 	mov.w	lr, #15
		p->CH[i].CSCTRL = TMR_CSCTRL_CL1(1) | TMR_CSCTRL_ALT_LOAD;
    7fd0:	f241 0601 	movw	r6, #4097	; 0x1001
		p->CH[i].CTRL = 0; // stop timer
    7fd4:	4611      	mov	r1, r2
		p->CH[i].LOAD = 24000;   // low time  (65537 - x) - 
    7fd6:	f645 55c0 	movw	r5, #24000	; 0x5dc0
		p->CH[i].CTRL = TMR_CTRL_CM(1) | TMR_CTRL_PCS(8) |
    7fda:	f243 0426 	movw	r4, #12326	; 0x3026
		p->CH[i].CTRL = 0; // stop timer
    7fde:	eb00 1342 	add.w	r3, r0, r2, lsl #5
    7fe2:	ea4f 1c42 	mov.w	ip, r2, lsl #5
	for (i=0; i < 4; i++) {
    7fe6:	3201      	adds	r2, #1
		p->CH[i].CTRL = 0; // stop timer
    7fe8:	8199      	strh	r1, [r3, #12]
	for (i=0; i < 4; i++) {
    7fea:	2a04      	cmp	r2, #4
		p->CH[i].CNTR = 0;
    7fec:	8159      	strh	r1, [r3, #10]
		p->CH[i].SCTRL = TMR_SCTRL_OEN | TMR_SCTRL_OPS | TMR_SCTRL_VAL | TMR_SCTRL_FORCE;
    7fee:	f8a3 e00e 	strh.w	lr, [r3, #14]
		p->CH[i].CSCTRL = TMR_CSCTRL_CL1(1) | TMR_CSCTRL_ALT_LOAD;
    7ff2:	829e      	strh	r6, [r3, #20]
		p->CH[i].LOAD = 24000;   // low time  (65537 - x) - 
    7ff4:	80dd      	strh	r5, [r3, #6]
		p->CH[i].COMP1 = 0;  // high time (0 = always low, max = LOAD-1)
    7ff6:	f820 100c 	strh.w	r1, [r0, ip]
		p->CH[i].CMPLD1 = 0;
    7ffa:	8219      	strh	r1, [r3, #16]
		p->CH[i].CTRL = TMR_CTRL_CM(1) | TMR_CTRL_PCS(8) |
    7ffc:	819c      	strh	r4, [r3, #12]
	for (i=0; i < 4; i++) {
    7ffe:	d1ee      	bne.n	7fde <pwm_init+0x86>
    8000:	2200      	movs	r2, #0
		p->CH[i].CTRL = 0; // stop timer
    8002:	4811      	ldr	r0, [pc, #68]	; (8048 <pwm_init+0xf0>)
		p->CH[i].SCTRL = TMR_SCTRL_OEN | TMR_SCTRL_OPS | TMR_SCTRL_VAL | TMR_SCTRL_FORCE;
    8004:	260f      	movs	r6, #15
		p->CH[i].CSCTRL = TMR_CSCTRL_CL1(1) | TMR_CSCTRL_ALT_LOAD;
    8006:	f241 0501 	movw	r5, #4097	; 0x1001
		p->CH[i].CTRL = 0; // stop timer
    800a:	4611      	mov	r1, r2
		p->CH[i].LOAD = 24000;   // low time  (65537 - x) - 
    800c:	f645 54c0 	movw	r4, #24000	; 0x5dc0
		p->CH[i].CTRL = TMR_CTRL_CM(1) | TMR_CTRL_PCS(8) |
    8010:	f243 0e26 	movw	lr, #12326	; 0x3026
		p->CH[i].CTRL = 0; // stop timer
    8014:	eb00 1342 	add.w	r3, r0, r2, lsl #5
    8018:	ea4f 1c42 	mov.w	ip, r2, lsl #5
	for (i=0; i < 4; i++) {
    801c:	3201      	adds	r2, #1
		p->CH[i].CTRL = 0; // stop timer
    801e:	8199      	strh	r1, [r3, #12]
	for (i=0; i < 4; i++) {
    8020:	2a04      	cmp	r2, #4
		p->CH[i].CNTR = 0;
    8022:	8159      	strh	r1, [r3, #10]
		p->CH[i].SCTRL = TMR_SCTRL_OEN | TMR_SCTRL_OPS | TMR_SCTRL_VAL | TMR_SCTRL_FORCE;
    8024:	81de      	strh	r6, [r3, #14]
		p->CH[i].CSCTRL = TMR_CSCTRL_CL1(1) | TMR_CSCTRL_ALT_LOAD;
    8026:	829d      	strh	r5, [r3, #20]
		p->CH[i].LOAD = 24000;   // low time  (65537 - x) - 
    8028:	80dc      	strh	r4, [r3, #6]
		p->CH[i].COMP1 = 0;  // high time (0 = always low, max = LOAD-1)
    802a:	f820 100c 	strh.w	r1, [r0, ip]
		p->CH[i].CMPLD1 = 0;
    802e:	8219      	strh	r1, [r3, #16]
		p->CH[i].CTRL = TMR_CTRL_CM(1) | TMR_CTRL_PCS(8) |
    8030:	f8a3 e00c 	strh.w	lr, [r3, #12]
	for (i=0; i < 4; i++) {
    8034:	d1ee      	bne.n	8014 <pwm_init+0xbc>
	quadtimer_init(&IMXRT_TMR1);
	quadtimer_init(&IMXRT_TMR2);
	quadtimer_init(&IMXRT_TMR3);
}
    8036:	bd70      	pop	{r4, r5, r6, pc}
    8038:	400fc000 	.word	0x400fc000
    803c:	fc030000 	.word	0xfc030000
    8040:	403dc000 	.word	0x403dc000
    8044:	401e0000 	.word	0x401e0000
    8048:	401e4000 	.word	0x401e4000

0000804c <rtc_get>:
	uint32_t hi1 = SNVS_HPRTCMR;
    804c:	4a07      	ldr	r2, [pc, #28]	; (806c <rtc_get+0x20>)
    804e:	6a50      	ldr	r0, [r2, #36]	; 0x24
	uint32_t lo1 = SNVS_HPRTCLR;
    8050:	6a93      	ldr	r3, [r2, #40]	; 0x28
		uint32_t hi2 = SNVS_HPRTCMR;
    8052:	4619      	mov	r1, r3
    8054:	4684      	mov	ip, r0
    8056:	6a50      	ldr	r0, [r2, #36]	; 0x24
		uint32_t lo2 = SNVS_HPRTCLR;
    8058:	6a93      	ldr	r3, [r2, #40]	; 0x28
		if (lo1 == lo2 && hi1 == hi2) {
    805a:	4299      	cmp	r1, r3
    805c:	d1f9      	bne.n	8052 <rtc_get+0x6>
    805e:	4584      	cmp	ip, r0
    8060:	d1f7      	bne.n	8052 <rtc_get+0x6>
			return (hi2 << 17) | (lo2 >> 15);
    8062:	0bdb      	lsrs	r3, r3, #15
}
    8064:	ea43 4040 	orr.w	r0, r3, r0, lsl #17
    8068:	4770      	bx	lr
    806a:	bf00      	nop
    806c:	400d4000 	.word	0x400d4000

00008070 <__aeabi_atexit>:
    8070:	4603      	mov	r3, r0
    8072:	4608      	mov	r0, r1
    8074:	4619      	mov	r1, r3
    8076:	f000 bacd 	b.w	8614 <__cxa_atexit>
    807a:	bf00      	nop

0000807c <malloc>:
    807c:	4b02      	ldr	r3, [pc, #8]	; (8088 <malloc+0xc>)
    807e:	4601      	mov	r1, r0
    8080:	6818      	ldr	r0, [r3, #0]
    8082:	f000 b80b 	b.w	809c <_malloc_r>
    8086:	bf00      	nop
    8088:	200011c8 	.word	0x200011c8

0000808c <free>:
    808c:	4b02      	ldr	r3, [pc, #8]	; (8098 <free+0xc>)
    808e:	4601      	mov	r1, r0
    8090:	6818      	ldr	r0, [r3, #0]
    8092:	f000 bd37 	b.w	8b04 <_free_r>
    8096:	bf00      	nop
    8098:	200011c8 	.word	0x200011c8

0000809c <_malloc_r>:
    809c:	e92d 4ff0 	stmdb	sp!, {r4, r5, r6, r7, r8, r9, sl, fp, lr}
    80a0:	f101 060b 	add.w	r6, r1, #11
    80a4:	2e16      	cmp	r6, #22
    80a6:	b083      	sub	sp, #12
    80a8:	4604      	mov	r4, r0
    80aa:	d824      	bhi.n	80f6 <_malloc_r+0x5a>
    80ac:	2910      	cmp	r1, #16
    80ae:	f200 80ba 	bhi.w	8226 <_malloc_r+0x18a>
    80b2:	f000 faa3 	bl	85fc <__malloc_lock>
    80b6:	2610      	movs	r6, #16
    80b8:	2218      	movs	r2, #24
    80ba:	2002      	movs	r0, #2
    80bc:	4fb5      	ldr	r7, [pc, #724]	; (8394 <_malloc_r+0x2f8>)
    80be:	443a      	add	r2, r7
    80c0:	f1a2 0108 	sub.w	r1, r2, #8
    80c4:	6853      	ldr	r3, [r2, #4]
    80c6:	428b      	cmp	r3, r1
    80c8:	f000 80ba 	beq.w	8240 <_malloc_r+0x1a4>
    80cc:	685a      	ldr	r2, [r3, #4]
    80ce:	68d9      	ldr	r1, [r3, #12]
    80d0:	f022 0203 	bic.w	r2, r2, #3
    80d4:	441a      	add	r2, r3
    80d6:	689d      	ldr	r5, [r3, #8]
    80d8:	60e9      	str	r1, [r5, #12]
    80da:	608d      	str	r5, [r1, #8]
    80dc:	6851      	ldr	r1, [r2, #4]
    80de:	f041 0101 	orr.w	r1, r1, #1
    80e2:	4620      	mov	r0, r4
    80e4:	6051      	str	r1, [r2, #4]
    80e6:	f103 0508 	add.w	r5, r3, #8
    80ea:	f000 fa8d 	bl	8608 <__malloc_unlock>
    80ee:	4628      	mov	r0, r5
    80f0:	b003      	add	sp, #12
    80f2:	e8bd 8ff0 	ldmia.w	sp!, {r4, r5, r6, r7, r8, r9, sl, fp, pc}
    80f6:	f036 0607 	bics.w	r6, r6, #7
    80fa:	f100 8094 	bmi.w	8226 <_malloc_r+0x18a>
    80fe:	42b1      	cmp	r1, r6
    8100:	f200 8091 	bhi.w	8226 <_malloc_r+0x18a>
    8104:	f000 fa7a 	bl	85fc <__malloc_lock>
    8108:	f5b6 7ffc 	cmp.w	r6, #504	; 0x1f8
    810c:	f0c0 819a 	bcc.w	8444 <_malloc_r+0x3a8>
    8110:	0a73      	lsrs	r3, r6, #9
    8112:	f000 808f 	beq.w	8234 <_malloc_r+0x198>
    8116:	2b04      	cmp	r3, #4
    8118:	f200 816f 	bhi.w	83fa <_malloc_r+0x35e>
    811c:	09b3      	lsrs	r3, r6, #6
    811e:	f103 0039 	add.w	r0, r3, #57	; 0x39
    8122:	f103 0c38 	add.w	ip, r3, #56	; 0x38
    8126:	00c3      	lsls	r3, r0, #3
    8128:	4f9a      	ldr	r7, [pc, #616]	; (8394 <_malloc_r+0x2f8>)
    812a:	443b      	add	r3, r7
    812c:	f1a3 0508 	sub.w	r5, r3, #8
    8130:	685b      	ldr	r3, [r3, #4]
    8132:	429d      	cmp	r5, r3
    8134:	d106      	bne.n	8144 <_malloc_r+0xa8>
    8136:	e00c      	b.n	8152 <_malloc_r+0xb6>
    8138:	2900      	cmp	r1, #0
    813a:	f280 8127 	bge.w	838c <_malloc_r+0x2f0>
    813e:	68db      	ldr	r3, [r3, #12]
    8140:	429d      	cmp	r5, r3
    8142:	d006      	beq.n	8152 <_malloc_r+0xb6>
    8144:	685a      	ldr	r2, [r3, #4]
    8146:	f022 0203 	bic.w	r2, r2, #3
    814a:	1b91      	subs	r1, r2, r6
    814c:	290f      	cmp	r1, #15
    814e:	ddf3      	ble.n	8138 <_malloc_r+0x9c>
    8150:	4660      	mov	r0, ip
    8152:	693d      	ldr	r5, [r7, #16]
    8154:	f8df c250 	ldr.w	ip, [pc, #592]	; 83a8 <_malloc_r+0x30c>
    8158:	4565      	cmp	r5, ip
    815a:	d07c      	beq.n	8256 <_malloc_r+0x1ba>
    815c:	686a      	ldr	r2, [r5, #4]
    815e:	f022 0203 	bic.w	r2, r2, #3
    8162:	1b93      	subs	r3, r2, r6
    8164:	2b0f      	cmp	r3, #15
    8166:	f300 817b 	bgt.w	8460 <_malloc_r+0x3c4>
    816a:	2b00      	cmp	r3, #0
    816c:	e9c7 cc04 	strd	ip, ip, [r7, #16]
    8170:	f280 816c 	bge.w	844c <_malloc_r+0x3b0>
    8174:	f5b2 7f00 	cmp.w	r2, #512	; 0x200
    8178:	f080 811a 	bcs.w	83b0 <_malloc_r+0x314>
    817c:	08d3      	lsrs	r3, r2, #3
    817e:	6879      	ldr	r1, [r7, #4]
    8180:	3301      	adds	r3, #1
    8182:	ea4f 1e52 	mov.w	lr, r2, lsr #5
    8186:	2201      	movs	r2, #1
    8188:	fa02 f20e 	lsl.w	r2, r2, lr
    818c:	430a      	orrs	r2, r1
    818e:	f857 e033 	ldr.w	lr, [r7, r3, lsl #3]
    8192:	f8c5 e008 	str.w	lr, [r5, #8]
    8196:	eb07 01c3 	add.w	r1, r7, r3, lsl #3
    819a:	3908      	subs	r1, #8
    819c:	60e9      	str	r1, [r5, #12]
    819e:	607a      	str	r2, [r7, #4]
    81a0:	f847 5033 	str.w	r5, [r7, r3, lsl #3]
    81a4:	f8ce 500c 	str.w	r5, [lr, #12]
    81a8:	1083      	asrs	r3, r0, #2
    81aa:	2101      	movs	r1, #1
    81ac:	4099      	lsls	r1, r3
    81ae:	4291      	cmp	r1, r2
    81b0:	d857      	bhi.n	8262 <_malloc_r+0x1c6>
    81b2:	4211      	tst	r1, r2
    81b4:	d106      	bne.n	81c4 <_malloc_r+0x128>
    81b6:	f020 0003 	bic.w	r0, r0, #3
    81ba:	0049      	lsls	r1, r1, #1
    81bc:	4211      	tst	r1, r2
    81be:	f100 0004 	add.w	r0, r0, #4
    81c2:	d0fa      	beq.n	81ba <_malloc_r+0x11e>
    81c4:	eb07 09c0 	add.w	r9, r7, r0, lsl #3
    81c8:	464d      	mov	r5, r9
    81ca:	4686      	mov	lr, r0
    81cc:	f8d5 800c 	ldr.w	r8, [r5, #12]
    81d0:	4545      	cmp	r5, r8
    81d2:	d108      	bne.n	81e6 <_malloc_r+0x14a>
    81d4:	e11d      	b.n	8412 <_malloc_r+0x376>
    81d6:	2b00      	cmp	r3, #0
    81d8:	f280 8124 	bge.w	8424 <_malloc_r+0x388>
    81dc:	f8d8 800c 	ldr.w	r8, [r8, #12]
    81e0:	4545      	cmp	r5, r8
    81e2:	f000 8116 	beq.w	8412 <_malloc_r+0x376>
    81e6:	f8d8 2004 	ldr.w	r2, [r8, #4]
    81ea:	f022 0203 	bic.w	r2, r2, #3
    81ee:	1b93      	subs	r3, r2, r6
    81f0:	2b0f      	cmp	r3, #15
    81f2:	ddf0      	ble.n	81d6 <_malloc_r+0x13a>
    81f4:	4620      	mov	r0, r4
    81f6:	e9d8 5402 	ldrd	r5, r4, [r8, #8]
    81fa:	eb08 0106 	add.w	r1, r8, r6
    81fe:	f046 0601 	orr.w	r6, r6, #1
    8202:	f8c8 6004 	str.w	r6, [r8, #4]
    8206:	60ec      	str	r4, [r5, #12]
    8208:	60a5      	str	r5, [r4, #8]
    820a:	f043 0401 	orr.w	r4, r3, #1
    820e:	e9c7 1104 	strd	r1, r1, [r7, #16]
    8212:	e9c1 cc02 	strd	ip, ip, [r1, #8]
    8216:	604c      	str	r4, [r1, #4]
    8218:	f848 3002 	str.w	r3, [r8, r2]
    821c:	f000 f9f4 	bl	8608 <__malloc_unlock>
    8220:	f108 0508 	add.w	r5, r8, #8
    8224:	e002      	b.n	822c <_malloc_r+0x190>
    8226:	230c      	movs	r3, #12
    8228:	6023      	str	r3, [r4, #0]
    822a:	2500      	movs	r5, #0
    822c:	4628      	mov	r0, r5
    822e:	b003      	add	sp, #12
    8230:	e8bd 8ff0 	ldmia.w	sp!, {r4, r5, r6, r7, r8, r9, sl, fp, pc}
    8234:	f44f 7300 	mov.w	r3, #512	; 0x200
    8238:	2040      	movs	r0, #64	; 0x40
    823a:	f04f 0c3f 	mov.w	ip, #63	; 0x3f
    823e:	e773      	b.n	8128 <_malloc_r+0x8c>
    8240:	68d3      	ldr	r3, [r2, #12]
    8242:	429a      	cmp	r2, r3
    8244:	bf08      	it	eq
    8246:	3002      	addeq	r0, #2
    8248:	f47f af40 	bne.w	80cc <_malloc_r+0x30>
    824c:	693d      	ldr	r5, [r7, #16]
    824e:	f8df c158 	ldr.w	ip, [pc, #344]	; 83a8 <_malloc_r+0x30c>
    8252:	4565      	cmp	r5, ip
    8254:	d182      	bne.n	815c <_malloc_r+0xc0>
    8256:	687a      	ldr	r2, [r7, #4]
    8258:	1083      	asrs	r3, r0, #2
    825a:	2101      	movs	r1, #1
    825c:	4099      	lsls	r1, r3
    825e:	4291      	cmp	r1, r2
    8260:	d9a7      	bls.n	81b2 <_malloc_r+0x116>
    8262:	68bd      	ldr	r5, [r7, #8]
    8264:	686b      	ldr	r3, [r5, #4]
    8266:	f023 0903 	bic.w	r9, r3, #3
    826a:	454e      	cmp	r6, r9
    826c:	d803      	bhi.n	8276 <_malloc_r+0x1da>
    826e:	eba9 0306 	sub.w	r3, r9, r6
    8272:	2b0f      	cmp	r3, #15
    8274:	dc7a      	bgt.n	836c <_malloc_r+0x2d0>
    8276:	f8df b134 	ldr.w	fp, [pc, #308]	; 83ac <_malloc_r+0x310>
    827a:	4b47      	ldr	r3, [pc, #284]	; (8398 <_malloc_r+0x2fc>)
    827c:	f8db 2000 	ldr.w	r2, [fp]
    8280:	681b      	ldr	r3, [r3, #0]
    8282:	3201      	adds	r2, #1
    8284:	4433      	add	r3, r6
    8286:	eb05 0a09 	add.w	sl, r5, r9
    828a:	f000 8133 	beq.w	84f4 <_malloc_r+0x458>
    828e:	f503 5380 	add.w	r3, r3, #4096	; 0x1000
    8292:	330f      	adds	r3, #15
    8294:	f423 687f 	bic.w	r8, r3, #4080	; 0xff0
    8298:	f028 080f 	bic.w	r8, r8, #15
    829c:	4641      	mov	r1, r8
    829e:	4620      	mov	r0, r4
    82a0:	f000 fa88 	bl	87b4 <_sbrk_r>
    82a4:	1c41      	adds	r1, r0, #1
    82a6:	4602      	mov	r2, r0
    82a8:	f000 80f3 	beq.w	8492 <_malloc_r+0x3f6>
    82ac:	4582      	cmp	sl, r0
    82ae:	f200 80ee 	bhi.w	848e <_malloc_r+0x3f2>
    82b2:	4b3a      	ldr	r3, [pc, #232]	; (839c <_malloc_r+0x300>)
    82b4:	6819      	ldr	r1, [r3, #0]
    82b6:	4441      	add	r1, r8
    82b8:	6019      	str	r1, [r3, #0]
    82ba:	4608      	mov	r0, r1
    82bc:	f000 814e 	beq.w	855c <_malloc_r+0x4c0>
    82c0:	f8db 1000 	ldr.w	r1, [fp]
    82c4:	9301      	str	r3, [sp, #4]
    82c6:	3101      	adds	r1, #1
    82c8:	bf1b      	ittet	ne
    82ca:	eba2 010a 	subne.w	r1, r2, sl
    82ce:	1809      	addne	r1, r1, r0
    82d0:	f8cb 2000 	streq.w	r2, [fp]
    82d4:	6019      	strne	r1, [r3, #0]
    82d6:	f012 0b07 	ands.w	fp, r2, #7
    82da:	f000 8117 	beq.w	850c <_malloc_r+0x470>
    82de:	f1cb 0108 	rsb	r1, fp, #8
    82e2:	440a      	add	r2, r1
    82e4:	f5cb 5180 	rsb	r1, fp, #4096	; 0x1000
    82e8:	4490      	add	r8, r2
    82ea:	3108      	adds	r1, #8
    82ec:	eba1 0108 	sub.w	r1, r1, r8
    82f0:	f3c1 0a0b 	ubfx	sl, r1, #0, #12
    82f4:	4651      	mov	r1, sl
    82f6:	4620      	mov	r0, r4
    82f8:	9200      	str	r2, [sp, #0]
    82fa:	f000 fa5b 	bl	87b4 <_sbrk_r>
    82fe:	1c42      	adds	r2, r0, #1
    8300:	e9dd 2300 	ldrd	r2, r3, [sp]
    8304:	f000 814f 	beq.w	85a6 <_malloc_r+0x50a>
    8308:	1a80      	subs	r0, r0, r2
    830a:	eb00 080a 	add.w	r8, r0, sl
    830e:	6819      	ldr	r1, [r3, #0]
    8310:	60ba      	str	r2, [r7, #8]
    8312:	f048 0001 	orr.w	r0, r8, #1
    8316:	4451      	add	r1, sl
    8318:	42bd      	cmp	r5, r7
    831a:	6050      	str	r0, [r2, #4]
    831c:	6019      	str	r1, [r3, #0]
    831e:	f000 8129 	beq.w	8574 <_malloc_r+0x4d8>
    8322:	f1b9 0f0f 	cmp.w	r9, #15
    8326:	f240 8127 	bls.w	8578 <_malloc_r+0x4dc>
    832a:	6868      	ldr	r0, [r5, #4]
    832c:	f1a9 0c0c 	sub.w	ip, r9, #12
    8330:	f02c 0c07 	bic.w	ip, ip, #7
    8334:	f000 0001 	and.w	r0, r0, #1
    8338:	ea40 000c 	orr.w	r0, r0, ip
    833c:	6068      	str	r0, [r5, #4]
    833e:	f04f 0e05 	mov.w	lr, #5
    8342:	eb05 000c 	add.w	r0, r5, ip
    8346:	f1bc 0f0f 	cmp.w	ip, #15
    834a:	e9c0 ee01 	strd	lr, lr, [r0, #4]
    834e:	f200 8132 	bhi.w	85b6 <_malloc_r+0x51a>
    8352:	6850      	ldr	r0, [r2, #4]
    8354:	4615      	mov	r5, r2
    8356:	4b12      	ldr	r3, [pc, #72]	; (83a0 <_malloc_r+0x304>)
    8358:	681a      	ldr	r2, [r3, #0]
    835a:	428a      	cmp	r2, r1
    835c:	bf38      	it	cc
    835e:	6019      	strcc	r1, [r3, #0]
    8360:	4b10      	ldr	r3, [pc, #64]	; (83a4 <_malloc_r+0x308>)
    8362:	681a      	ldr	r2, [r3, #0]
    8364:	428a      	cmp	r2, r1
    8366:	bf38      	it	cc
    8368:	6019      	strcc	r1, [r3, #0]
    836a:	e094      	b.n	8496 <_malloc_r+0x3fa>
    836c:	19aa      	adds	r2, r5, r6
    836e:	f043 0301 	orr.w	r3, r3, #1
    8372:	f046 0601 	orr.w	r6, r6, #1
    8376:	606e      	str	r6, [r5, #4]
    8378:	4620      	mov	r0, r4
    837a:	60ba      	str	r2, [r7, #8]
    837c:	6053      	str	r3, [r2, #4]
    837e:	f000 f943 	bl	8608 <__malloc_unlock>
    8382:	3508      	adds	r5, #8
    8384:	4628      	mov	r0, r5
    8386:	b003      	add	sp, #12
    8388:	e8bd 8ff0 	ldmia.w	sp!, {r4, r5, r6, r7, r8, r9, sl, fp, pc}
    838c:	68d9      	ldr	r1, [r3, #12]
    838e:	441a      	add	r2, r3
    8390:	e6a1      	b.n	80d6 <_malloc_r+0x3a>
    8392:	bf00      	nop
    8394:	20000db8 	.word	0x20000db8
    8398:	20001fdc 	.word	0x20001fdc
    839c:	20001fac 	.word	0x20001fac
    83a0:	20001fd4 	.word	0x20001fd4
    83a4:	20001fd8 	.word	0x20001fd8
    83a8:	20000dc0 	.word	0x20000dc0
    83ac:	200011c0 	.word	0x200011c0
    83b0:	f5b2 6f20 	cmp.w	r2, #2560	; 0xa00
    83b4:	ea4f 2352 	mov.w	r3, r2, lsr #9
    83b8:	d363      	bcc.n	8482 <_malloc_r+0x3e6>
    83ba:	2b14      	cmp	r3, #20
    83bc:	f200 80b7 	bhi.w	852e <_malloc_r+0x492>
    83c0:	f103 015c 	add.w	r1, r3, #92	; 0x5c
    83c4:	00c9      	lsls	r1, r1, #3
    83c6:	335b      	adds	r3, #91	; 0x5b
    83c8:	eb07 0e01 	add.w	lr, r7, r1
    83cc:	5879      	ldr	r1, [r7, r1]
    83ce:	f1ae 0e08 	sub.w	lr, lr, #8
    83d2:	458e      	cmp	lr, r1
    83d4:	f000 8091 	beq.w	84fa <_malloc_r+0x45e>
    83d8:	684b      	ldr	r3, [r1, #4]
    83da:	f023 0303 	bic.w	r3, r3, #3
    83de:	4293      	cmp	r3, r2
    83e0:	d902      	bls.n	83e8 <_malloc_r+0x34c>
    83e2:	6889      	ldr	r1, [r1, #8]
    83e4:	458e      	cmp	lr, r1
    83e6:	d1f7      	bne.n	83d8 <_malloc_r+0x33c>
    83e8:	f8d1 e00c 	ldr.w	lr, [r1, #12]
    83ec:	687a      	ldr	r2, [r7, #4]
    83ee:	e9c5 1e02 	strd	r1, lr, [r5, #8]
    83f2:	f8ce 5008 	str.w	r5, [lr, #8]
    83f6:	60cd      	str	r5, [r1, #12]
    83f8:	e6d6      	b.n	81a8 <_malloc_r+0x10c>
    83fa:	2b14      	cmp	r3, #20
    83fc:	d959      	bls.n	84b2 <_malloc_r+0x416>
    83fe:	2b54      	cmp	r3, #84	; 0x54
    8400:	f200 809d 	bhi.w	853e <_malloc_r+0x4a2>
    8404:	0b33      	lsrs	r3, r6, #12
    8406:	f103 006f 	add.w	r0, r3, #111	; 0x6f
    840a:	f103 0c6e 	add.w	ip, r3, #110	; 0x6e
    840e:	00c3      	lsls	r3, r0, #3
    8410:	e68a      	b.n	8128 <_malloc_r+0x8c>
    8412:	f10e 0e01 	add.w	lr, lr, #1
    8416:	f01e 0f03 	tst.w	lr, #3
    841a:	f105 0508 	add.w	r5, r5, #8
    841e:	f47f aed5 	bne.w	81cc <_malloc_r+0x130>
    8422:	e051      	b.n	84c8 <_malloc_r+0x42c>
    8424:	4442      	add	r2, r8
    8426:	4645      	mov	r5, r8
    8428:	6853      	ldr	r3, [r2, #4]
    842a:	f8d8 100c 	ldr.w	r1, [r8, #12]
    842e:	f043 0301 	orr.w	r3, r3, #1
    8432:	6053      	str	r3, [r2, #4]
    8434:	f855 3f08 	ldr.w	r3, [r5, #8]!
    8438:	4620      	mov	r0, r4
    843a:	60d9      	str	r1, [r3, #12]
    843c:	608b      	str	r3, [r1, #8]
    843e:	f000 f8e3 	bl	8608 <__malloc_unlock>
    8442:	e6f3      	b.n	822c <_malloc_r+0x190>
    8444:	08f0      	lsrs	r0, r6, #3
    8446:	f106 0208 	add.w	r2, r6, #8
    844a:	e637      	b.n	80bc <_malloc_r+0x20>
    844c:	442a      	add	r2, r5
    844e:	4620      	mov	r0, r4
    8450:	6853      	ldr	r3, [r2, #4]
    8452:	f043 0301 	orr.w	r3, r3, #1
    8456:	6053      	str	r3, [r2, #4]
    8458:	3508      	adds	r5, #8
    845a:	f000 f8d5 	bl	8608 <__malloc_unlock>
    845e:	e6e5      	b.n	822c <_malloc_r+0x190>
    8460:	19a9      	adds	r1, r5, r6
    8462:	4620      	mov	r0, r4
    8464:	f046 0601 	orr.w	r6, r6, #1
    8468:	f043 0401 	orr.w	r4, r3, #1
    846c:	606e      	str	r6, [r5, #4]
    846e:	e9c7 1104 	strd	r1, r1, [r7, #16]
    8472:	e9c1 cc02 	strd	ip, ip, [r1, #8]
    8476:	604c      	str	r4, [r1, #4]
    8478:	50ab      	str	r3, [r5, r2]
    847a:	f000 f8c5 	bl	8608 <__malloc_unlock>
    847e:	3508      	adds	r5, #8
    8480:	e6d4      	b.n	822c <_malloc_r+0x190>
    8482:	0993      	lsrs	r3, r2, #6
    8484:	f103 0139 	add.w	r1, r3, #57	; 0x39
    8488:	00c9      	lsls	r1, r1, #3
    848a:	3338      	adds	r3, #56	; 0x38
    848c:	e79c      	b.n	83c8 <_malloc_r+0x32c>
    848e:	42bd      	cmp	r5, r7
    8490:	d05f      	beq.n	8552 <_malloc_r+0x4b6>
    8492:	68bd      	ldr	r5, [r7, #8]
    8494:	6868      	ldr	r0, [r5, #4]
    8496:	f020 0803 	bic.w	r8, r0, #3
    849a:	4546      	cmp	r6, r8
    849c:	eba8 0306 	sub.w	r3, r8, r6
    84a0:	d802      	bhi.n	84a8 <_malloc_r+0x40c>
    84a2:	2b0f      	cmp	r3, #15
    84a4:	f73f af62 	bgt.w	836c <_malloc_r+0x2d0>
    84a8:	4620      	mov	r0, r4
    84aa:	f000 f8ad 	bl	8608 <__malloc_unlock>
    84ae:	2500      	movs	r5, #0
    84b0:	e6bc      	b.n	822c <_malloc_r+0x190>
    84b2:	f103 005c 	add.w	r0, r3, #92	; 0x5c
    84b6:	f103 0c5b 	add.w	ip, r3, #91	; 0x5b
    84ba:	00c3      	lsls	r3, r0, #3
    84bc:	e634      	b.n	8128 <_malloc_r+0x8c>
    84be:	f859 3908 	ldr.w	r3, [r9], #-8
    84c2:	454b      	cmp	r3, r9
    84c4:	f040 8096 	bne.w	85f4 <_malloc_r+0x558>
    84c8:	f010 0f03 	tst.w	r0, #3
    84cc:	f100 30ff 	add.w	r0, r0, #4294967295
    84d0:	d1f5      	bne.n	84be <_malloc_r+0x422>
    84d2:	687b      	ldr	r3, [r7, #4]
    84d4:	ea23 0301 	bic.w	r3, r3, r1
    84d8:	607b      	str	r3, [r7, #4]
    84da:	0049      	lsls	r1, r1, #1
    84dc:	4299      	cmp	r1, r3
    84de:	f63f aec0 	bhi.w	8262 <_malloc_r+0x1c6>
    84e2:	b919      	cbnz	r1, 84ec <_malloc_r+0x450>
    84e4:	e6bd      	b.n	8262 <_malloc_r+0x1c6>
    84e6:	0049      	lsls	r1, r1, #1
    84e8:	f10e 0e04 	add.w	lr, lr, #4
    84ec:	4219      	tst	r1, r3
    84ee:	d0fa      	beq.n	84e6 <_malloc_r+0x44a>
    84f0:	4670      	mov	r0, lr
    84f2:	e667      	b.n	81c4 <_malloc_r+0x128>
    84f4:	f103 0810 	add.w	r8, r3, #16
    84f8:	e6d0      	b.n	829c <_malloc_r+0x200>
    84fa:	109a      	asrs	r2, r3, #2
    84fc:	f04f 0801 	mov.w	r8, #1
    8500:	687b      	ldr	r3, [r7, #4]
    8502:	fa08 f202 	lsl.w	r2, r8, r2
    8506:	431a      	orrs	r2, r3
    8508:	607a      	str	r2, [r7, #4]
    850a:	e770      	b.n	83ee <_malloc_r+0x352>
    850c:	eb02 0108 	add.w	r1, r2, r8
    8510:	4249      	negs	r1, r1
    8512:	f3c1 0a0b 	ubfx	sl, r1, #0, #12
    8516:	4651      	mov	r1, sl
    8518:	4620      	mov	r0, r4
    851a:	9200      	str	r2, [sp, #0]
    851c:	f000 f94a 	bl	87b4 <_sbrk_r>
    8520:	1c43      	adds	r3, r0, #1
    8522:	e9dd 2300 	ldrd	r2, r3, [sp]
    8526:	f47f aeef 	bne.w	8308 <_malloc_r+0x26c>
    852a:	46da      	mov	sl, fp
    852c:	e6ef      	b.n	830e <_malloc_r+0x272>
    852e:	2b54      	cmp	r3, #84	; 0x54
    8530:	d825      	bhi.n	857e <_malloc_r+0x4e2>
    8532:	0b13      	lsrs	r3, r2, #12
    8534:	f103 016f 	add.w	r1, r3, #111	; 0x6f
    8538:	00c9      	lsls	r1, r1, #3
    853a:	336e      	adds	r3, #110	; 0x6e
    853c:	e744      	b.n	83c8 <_malloc_r+0x32c>
    853e:	f5b3 7faa 	cmp.w	r3, #340	; 0x154
    8542:	d825      	bhi.n	8590 <_malloc_r+0x4f4>
    8544:	0bf3      	lsrs	r3, r6, #15
    8546:	f103 0078 	add.w	r0, r3, #120	; 0x78
    854a:	f103 0c77 	add.w	ip, r3, #119	; 0x77
    854e:	00c3      	lsls	r3, r0, #3
    8550:	e5ea      	b.n	8128 <_malloc_r+0x8c>
    8552:	4b29      	ldr	r3, [pc, #164]	; (85f8 <_malloc_r+0x55c>)
    8554:	6818      	ldr	r0, [r3, #0]
    8556:	4440      	add	r0, r8
    8558:	6018      	str	r0, [r3, #0]
    855a:	e6b1      	b.n	82c0 <_malloc_r+0x224>
    855c:	f3ca 0c0b 	ubfx	ip, sl, #0, #12
    8560:	f1bc 0f00 	cmp.w	ip, #0
    8564:	f47f aeac 	bne.w	82c0 <_malloc_r+0x224>
    8568:	68bd      	ldr	r5, [r7, #8]
    856a:	44c8      	add	r8, r9
    856c:	f048 0001 	orr.w	r0, r8, #1
    8570:	6068      	str	r0, [r5, #4]
    8572:	e6f0      	b.n	8356 <_malloc_r+0x2ba>
    8574:	4615      	mov	r5, r2
    8576:	e6ee      	b.n	8356 <_malloc_r+0x2ba>
    8578:	2301      	movs	r3, #1
    857a:	6053      	str	r3, [r2, #4]
    857c:	e794      	b.n	84a8 <_malloc_r+0x40c>
    857e:	f5b3 7faa 	cmp.w	r3, #340	; 0x154
    8582:	d823      	bhi.n	85cc <_malloc_r+0x530>
    8584:	0bd3      	lsrs	r3, r2, #15
    8586:	f103 0178 	add.w	r1, r3, #120	; 0x78
    858a:	00c9      	lsls	r1, r1, #3
    858c:	3377      	adds	r3, #119	; 0x77
    858e:	e71b      	b.n	83c8 <_malloc_r+0x32c>
    8590:	f240 5254 	movw	r2, #1364	; 0x554
    8594:	4293      	cmp	r3, r2
    8596:	d823      	bhi.n	85e0 <_malloc_r+0x544>
    8598:	0cb3      	lsrs	r3, r6, #18
    859a:	f103 007d 	add.w	r0, r3, #125	; 0x7d
    859e:	f103 0c7c 	add.w	ip, r3, #124	; 0x7c
    85a2:	00c3      	lsls	r3, r0, #3
    85a4:	e5c0      	b.n	8128 <_malloc_r+0x8c>
    85a6:	f1ab 0b08 	sub.w	fp, fp, #8
    85aa:	44d8      	add	r8, fp
    85ac:	eba8 0802 	sub.w	r8, r8, r2
    85b0:	f04f 0a00 	mov.w	sl, #0
    85b4:	e6ab      	b.n	830e <_malloc_r+0x272>
    85b6:	f105 0108 	add.w	r1, r5, #8
    85ba:	4620      	mov	r0, r4
    85bc:	9300      	str	r3, [sp, #0]
    85be:	f000 faa1 	bl	8b04 <_free_r>
    85c2:	68bd      	ldr	r5, [r7, #8]
    85c4:	9b00      	ldr	r3, [sp, #0]
    85c6:	6868      	ldr	r0, [r5, #4]
    85c8:	6819      	ldr	r1, [r3, #0]
    85ca:	e6c4      	b.n	8356 <_malloc_r+0x2ba>
    85cc:	f240 5154 	movw	r1, #1364	; 0x554
    85d0:	428b      	cmp	r3, r1
    85d2:	d80b      	bhi.n	85ec <_malloc_r+0x550>
    85d4:	0c93      	lsrs	r3, r2, #18
    85d6:	f103 017d 	add.w	r1, r3, #125	; 0x7d
    85da:	00c9      	lsls	r1, r1, #3
    85dc:	337c      	adds	r3, #124	; 0x7c
    85de:	e6f3      	b.n	83c8 <_malloc_r+0x32c>
    85e0:	f44f 737e 	mov.w	r3, #1016	; 0x3f8
    85e4:	207f      	movs	r0, #127	; 0x7f
    85e6:	f04f 0c7e 	mov.w	ip, #126	; 0x7e
    85ea:	e59d      	b.n	8128 <_malloc_r+0x8c>
    85ec:	f44f 717e 	mov.w	r1, #1016	; 0x3f8
    85f0:	237e      	movs	r3, #126	; 0x7e
    85f2:	e6e9      	b.n	83c8 <_malloc_r+0x32c>
    85f4:	687b      	ldr	r3, [r7, #4]
    85f6:	e770      	b.n	84da <_malloc_r+0x43e>
    85f8:	20001fac 	.word	0x20001fac

000085fc <__malloc_lock>:
    85fc:	4801      	ldr	r0, [pc, #4]	; (8604 <__malloc_lock+0x8>)
    85fe:	f000 b915 	b.w	882c <__retarget_lock_acquire_recursive>
    8602:	bf00      	nop
    8604:	20001fa8 	.word	0x20001fa8

00008608 <__malloc_unlock>:
    8608:	4801      	ldr	r0, [pc, #4]	; (8610 <__malloc_unlock+0x8>)
    860a:	f000 b911 	b.w	8830 <__retarget_lock_release_recursive>
    860e:	bf00      	nop
    8610:	20001fa8 	.word	0x20001fa8

00008614 <__cxa_atexit>:
    8614:	4613      	mov	r3, r2
    8616:	460a      	mov	r2, r1
    8618:	4601      	mov	r1, r0
    861a:	2002      	movs	r0, #2
    861c:	f000 b9de 	b.w	89dc <__register_exitproc>

00008620 <memset>:
    8620:	0783      	lsls	r3, r0, #30
    8622:	b530      	push	{r4, r5, lr}
    8624:	d048      	beq.n	86b8 <memset+0x98>
    8626:	1e54      	subs	r4, r2, #1
    8628:	2a00      	cmp	r2, #0
    862a:	d03f      	beq.n	86ac <memset+0x8c>
    862c:	b2ca      	uxtb	r2, r1
    862e:	4603      	mov	r3, r0
    8630:	e001      	b.n	8636 <memset+0x16>
    8632:	3c01      	subs	r4, #1
    8634:	d33a      	bcc.n	86ac <memset+0x8c>
    8636:	f803 2b01 	strb.w	r2, [r3], #1
    863a:	079d      	lsls	r5, r3, #30
    863c:	d1f9      	bne.n	8632 <memset+0x12>
    863e:	2c03      	cmp	r4, #3
    8640:	d92d      	bls.n	869e <memset+0x7e>
    8642:	b2cd      	uxtb	r5, r1
    8644:	ea45 2505 	orr.w	r5, r5, r5, lsl #8
    8648:	2c0f      	cmp	r4, #15
    864a:	ea45 4505 	orr.w	r5, r5, r5, lsl #16
    864e:	d936      	bls.n	86be <memset+0x9e>
    8650:	f1a4 0210 	sub.w	r2, r4, #16
    8654:	f022 0c0f 	bic.w	ip, r2, #15
    8658:	f103 0e20 	add.w	lr, r3, #32
    865c:	44e6      	add	lr, ip
    865e:	ea4f 1c12 	mov.w	ip, r2, lsr #4
    8662:	f103 0210 	add.w	r2, r3, #16
    8666:	e942 5504 	strd	r5, r5, [r2, #-16]
    866a:	e942 5502 	strd	r5, r5, [r2, #-8]
    866e:	3210      	adds	r2, #16
    8670:	4572      	cmp	r2, lr
    8672:	d1f8      	bne.n	8666 <memset+0x46>
    8674:	f10c 0201 	add.w	r2, ip, #1
    8678:	f014 0f0c 	tst.w	r4, #12
    867c:	eb03 1202 	add.w	r2, r3, r2, lsl #4
    8680:	f004 0c0f 	and.w	ip, r4, #15
    8684:	d013      	beq.n	86ae <memset+0x8e>
    8686:	f1ac 0304 	sub.w	r3, ip, #4
    868a:	f023 0303 	bic.w	r3, r3, #3
    868e:	3304      	adds	r3, #4
    8690:	4413      	add	r3, r2
    8692:	f842 5b04 	str.w	r5, [r2], #4
    8696:	4293      	cmp	r3, r2
    8698:	d1fb      	bne.n	8692 <memset+0x72>
    869a:	f00c 0403 	and.w	r4, ip, #3
    869e:	b12c      	cbz	r4, 86ac <memset+0x8c>
    86a0:	b2c9      	uxtb	r1, r1
    86a2:	441c      	add	r4, r3
    86a4:	f803 1b01 	strb.w	r1, [r3], #1
    86a8:	429c      	cmp	r4, r3
    86aa:	d1fb      	bne.n	86a4 <memset+0x84>
    86ac:	bd30      	pop	{r4, r5, pc}
    86ae:	4664      	mov	r4, ip
    86b0:	4613      	mov	r3, r2
    86b2:	2c00      	cmp	r4, #0
    86b4:	d1f4      	bne.n	86a0 <memset+0x80>
    86b6:	e7f9      	b.n	86ac <memset+0x8c>
    86b8:	4603      	mov	r3, r0
    86ba:	4614      	mov	r4, r2
    86bc:	e7bf      	b.n	863e <memset+0x1e>
    86be:	461a      	mov	r2, r3
    86c0:	46a4      	mov	ip, r4
    86c2:	e7e0      	b.n	8686 <memset+0x66>

000086c4 <strncmp>:
    86c4:	2a00      	cmp	r2, #0
    86c6:	d03e      	beq.n	8746 <strncmp+0x82>
    86c8:	ea40 0301 	orr.w	r3, r0, r1
    86cc:	079b      	lsls	r3, r3, #30
    86ce:	b530      	push	{r4, r5, lr}
    86d0:	4684      	mov	ip, r0
    86d2:	d12f      	bne.n	8734 <strncmp+0x70>
    86d4:	2a03      	cmp	r2, #3
    86d6:	d92d      	bls.n	8734 <strncmp+0x70>
    86d8:	460b      	mov	r3, r1
    86da:	e008      	b.n	86ee <strncmp+0x2a>
    86dc:	3a04      	subs	r2, #4
    86de:	4684      	mov	ip, r0
    86e0:	4619      	mov	r1, r3
    86e2:	d025      	beq.n	8730 <strncmp+0x6c>
    86e4:	f01e 3f80 	tst.w	lr, #2155905152	; 0x80808080
    86e8:	d122      	bne.n	8730 <strncmp+0x6c>
    86ea:	2a03      	cmp	r2, #3
    86ec:	d922      	bls.n	8734 <strncmp+0x70>
    86ee:	6804      	ldr	r4, [r0, #0]
    86f0:	4619      	mov	r1, r3
    86f2:	f853 5b04 	ldr.w	r5, [r3], #4
    86f6:	f1a4 3e01 	sub.w	lr, r4, #16843009	; 0x1010101
    86fa:	42ac      	cmp	r4, r5
    86fc:	4684      	mov	ip, r0
    86fe:	ea2e 0e04 	bic.w	lr, lr, r4
    8702:	f100 0004 	add.w	r0, r0, #4
    8706:	d0e9      	beq.n	86dc <strncmp+0x18>
    8708:	f89c 0000 	ldrb.w	r0, [ip]
    870c:	780c      	ldrb	r4, [r1, #0]
    870e:	42a0      	cmp	r0, r4
    8710:	d11b      	bne.n	874a <strncmp+0x86>
    8712:	46e6      	mov	lr, ip
    8714:	b168      	cbz	r0, 8732 <strncmp+0x6e>
    8716:	f81e 0f01 	ldrb.w	r0, [lr, #1]!
    871a:	f811 4f01 	ldrb.w	r4, [r1, #1]!
    871e:	eba2 030e 	sub.w	r3, r2, lr
    8722:	42a0      	cmp	r0, r4
    8724:	f103 33ff 	add.w	r3, r3, #4294967295
    8728:	d10f      	bne.n	874a <strncmp+0x86>
    872a:	eb1c 0303 	adds.w	r3, ip, r3
    872e:	d1f1      	bne.n	8714 <strncmp+0x50>
    8730:	2000      	movs	r0, #0
    8732:	bd30      	pop	{r4, r5, pc}
    8734:	f89c 0000 	ldrb.w	r0, [ip]
    8738:	780c      	ldrb	r4, [r1, #0]
    873a:	4284      	cmp	r4, r0
    873c:	d105      	bne.n	874a <strncmp+0x86>
    873e:	2a01      	cmp	r2, #1
    8740:	d0f6      	beq.n	8730 <strncmp+0x6c>
    8742:	46e6      	mov	lr, ip
    8744:	e7e6      	b.n	8714 <strncmp+0x50>
    8746:	4610      	mov	r0, r2
    8748:	4770      	bx	lr
    874a:	1b00      	subs	r0, r0, r4
    874c:	bd30      	pop	{r4, r5, pc}
    874e:	bf00      	nop

00008750 <strncpy>:
    8750:	ea40 0301 	orr.w	r3, r0, r1
    8754:	079b      	lsls	r3, r3, #30
    8756:	b530      	push	{r4, r5, lr}
    8758:	d101      	bne.n	875e <strncpy+0xe>
    875a:	2a03      	cmp	r2, #3
    875c:	d80f      	bhi.n	877e <strncpy+0x2e>
    875e:	4684      	mov	ip, r0
    8760:	f101 3eff 	add.w	lr, r1, #4294967295
    8764:	e007      	b.n	8776 <strncpy+0x26>
    8766:	f81e 1f01 	ldrb.w	r1, [lr, #1]!
    876a:	f803 1b01 	strb.w	r1, [r3], #1
    876e:	1e54      	subs	r4, r2, #1
    8770:	b1c1      	cbz	r1, 87a4 <strncpy+0x54>
    8772:	469c      	mov	ip, r3
    8774:	4622      	mov	r2, r4
    8776:	4663      	mov	r3, ip
    8778:	2a00      	cmp	r2, #0
    877a:	d1f4      	bne.n	8766 <strncpy+0x16>
    877c:	bd30      	pop	{r4, r5, pc}
    877e:	460b      	mov	r3, r1
    8780:	4684      	mov	ip, r0
    8782:	4619      	mov	r1, r3
    8784:	f853 5b04 	ldr.w	r5, [r3], #4
    8788:	f1a5 3401 	sub.w	r4, r5, #16843009	; 0x1010101
    878c:	ea24 0405 	bic.w	r4, r4, r5
    8790:	f014 3f80 	tst.w	r4, #2155905152	; 0x80808080
    8794:	d1e4      	bne.n	8760 <strncpy+0x10>
    8796:	3a04      	subs	r2, #4
    8798:	2a03      	cmp	r2, #3
    879a:	f84c 5b04 	str.w	r5, [ip], #4
    879e:	4619      	mov	r1, r3
    87a0:	d8ef      	bhi.n	8782 <strncpy+0x32>
    87a2:	e7dd      	b.n	8760 <strncpy+0x10>
    87a4:	4494      	add	ip, r2
    87a6:	2c00      	cmp	r4, #0
    87a8:	d0e8      	beq.n	877c <strncpy+0x2c>
    87aa:	f803 1b01 	strb.w	r1, [r3], #1
    87ae:	4563      	cmp	r3, ip
    87b0:	d1fb      	bne.n	87aa <strncpy+0x5a>
    87b2:	bd30      	pop	{r4, r5, pc}

000087b4 <_sbrk_r>:
    87b4:	b538      	push	{r3, r4, r5, lr}
    87b6:	4d07      	ldr	r5, [pc, #28]	; (87d4 <_sbrk_r+0x20>)
    87b8:	2200      	movs	r2, #0
    87ba:	4604      	mov	r4, r0
    87bc:	4608      	mov	r0, r1
    87be:	602a      	str	r2, [r5, #0]
    87c0:	f7fe f948 	bl	6a54 <_sbrk>
    87c4:	1c43      	adds	r3, r0, #1
    87c6:	d000      	beq.n	87ca <_sbrk_r+0x16>
    87c8:	bd38      	pop	{r3, r4, r5, pc}
    87ca:	682b      	ldr	r3, [r5, #0]
    87cc:	2b00      	cmp	r3, #0
    87ce:	d0fb      	beq.n	87c8 <_sbrk_r+0x14>
    87d0:	6023      	str	r3, [r4, #0]
    87d2:	bd38      	pop	{r3, r4, r5, pc}
    87d4:	20002128 	.word	0x20002128

000087d8 <__errno>:
    87d8:	4b01      	ldr	r3, [pc, #4]	; (87e0 <__errno+0x8>)
    87da:	6818      	ldr	r0, [r3, #0]
    87dc:	4770      	bx	lr
    87de:	bf00      	nop
    87e0:	200011c8 	.word	0x200011c8

000087e4 <__libc_init_array>:
    87e4:	b570      	push	{r4, r5, r6, lr}
    87e6:	4e0d      	ldr	r6, [pc, #52]	; (881c <__libc_init_array+0x38>)
    87e8:	4d0d      	ldr	r5, [pc, #52]	; (8820 <__libc_init_array+0x3c>)
    87ea:	1b76      	subs	r6, r6, r5
    87ec:	10b6      	asrs	r6, r6, #2
    87ee:	d006      	beq.n	87fe <__libc_init_array+0x1a>
    87f0:	2400      	movs	r4, #0
    87f2:	f855 3b04 	ldr.w	r3, [r5], #4
    87f6:	3401      	adds	r4, #1
    87f8:	4798      	blx	r3
    87fa:	42a6      	cmp	r6, r4
    87fc:	d1f9      	bne.n	87f2 <__libc_init_array+0xe>
    87fe:	4e09      	ldr	r6, [pc, #36]	; (8824 <__libc_init_array+0x40>)
    8800:	4d09      	ldr	r5, [pc, #36]	; (8828 <__libc_init_array+0x44>)
    8802:	1b76      	subs	r6, r6, r5
    8804:	f000 fa88 	bl	8d18 <___init_veneer>
    8808:	10b6      	asrs	r6, r6, #2
    880a:	d006      	beq.n	881a <__libc_init_array+0x36>
    880c:	2400      	movs	r4, #0
    880e:	f855 3b04 	ldr.w	r3, [r5], #4
    8812:	3401      	adds	r4, #1
    8814:	4798      	blx	r3
    8816:	42a6      	cmp	r6, r4
    8818:	d1f9      	bne.n	880e <__libc_init_array+0x2a>
    881a:	bd70      	pop	{r4, r5, r6, pc}
    881c:	60001af0 	.word	0x60001af0
    8820:	60001af0 	.word	0x60001af0
    8824:	60001b0c 	.word	0x60001b0c
    8828:	60001af0 	.word	0x60001af0

0000882c <__retarget_lock_acquire_recursive>:
    882c:	4770      	bx	lr
    882e:	bf00      	nop

00008830 <__retarget_lock_release_recursive>:
    8830:	4770      	bx	lr
    8832:	bf00      	nop

00008834 <strcpy>:
    8834:	ea80 0201 	eor.w	r2, r0, r1
    8838:	4684      	mov	ip, r0
    883a:	f012 0f03 	tst.w	r2, #3
    883e:	d14f      	bne.n	88e0 <strcpy+0xac>
    8840:	f011 0f03 	tst.w	r1, #3
    8844:	d132      	bne.n	88ac <strcpy+0x78>
    8846:	f84d 4d04 	str.w	r4, [sp, #-4]!
    884a:	f011 0f04 	tst.w	r1, #4
    884e:	f851 3b04 	ldr.w	r3, [r1], #4
    8852:	d00b      	beq.n	886c <strcpy+0x38>
    8854:	f1a3 3201 	sub.w	r2, r3, #16843009	; 0x1010101
    8858:	439a      	bics	r2, r3
    885a:	f012 3f80 	tst.w	r2, #2155905152	; 0x80808080
    885e:	bf04      	itt	eq
    8860:	f84c 3b04 	streq.w	r3, [ip], #4
    8864:	f851 3b04 	ldreq.w	r3, [r1], #4
    8868:	d116      	bne.n	8898 <strcpy+0x64>
    886a:	bf00      	nop
    886c:	f851 4b04 	ldr.w	r4, [r1], #4
    8870:	f1a3 3201 	sub.w	r2, r3, #16843009	; 0x1010101
    8874:	439a      	bics	r2, r3
    8876:	f012 3f80 	tst.w	r2, #2155905152	; 0x80808080
    887a:	f1a4 3201 	sub.w	r2, r4, #16843009	; 0x1010101
    887e:	d10b      	bne.n	8898 <strcpy+0x64>
    8880:	f84c 3b04 	str.w	r3, [ip], #4
    8884:	43a2      	bics	r2, r4
    8886:	f012 3f80 	tst.w	r2, #2155905152	; 0x80808080
    888a:	bf04      	itt	eq
    888c:	f851 3b04 	ldreq.w	r3, [r1], #4
    8890:	f84c 4b04 	streq.w	r4, [ip], #4
    8894:	d0ea      	beq.n	886c <strcpy+0x38>
    8896:	4623      	mov	r3, r4
    8898:	f80c 3b01 	strb.w	r3, [ip], #1
    889c:	f013 0fff 	tst.w	r3, #255	; 0xff
    88a0:	ea4f 2333 	mov.w	r3, r3, ror #8
    88a4:	d1f8      	bne.n	8898 <strcpy+0x64>
    88a6:	f85d 4b04 	ldr.w	r4, [sp], #4
    88aa:	4770      	bx	lr
    88ac:	f011 0f01 	tst.w	r1, #1
    88b0:	d006      	beq.n	88c0 <strcpy+0x8c>
    88b2:	f811 2b01 	ldrb.w	r2, [r1], #1
    88b6:	f80c 2b01 	strb.w	r2, [ip], #1
    88ba:	2a00      	cmp	r2, #0
    88bc:	bf08      	it	eq
    88be:	4770      	bxeq	lr
    88c0:	f011 0f02 	tst.w	r1, #2
    88c4:	d0bf      	beq.n	8846 <strcpy+0x12>
    88c6:	f831 2b02 	ldrh.w	r2, [r1], #2
    88ca:	f012 0fff 	tst.w	r2, #255	; 0xff
    88ce:	bf16      	itet	ne
    88d0:	f82c 2b02 	strhne.w	r2, [ip], #2
    88d4:	f88c 2000 	strbeq.w	r2, [ip]
    88d8:	f412 4f7f 	tstne.w	r2, #65280	; 0xff00
    88dc:	d1b3      	bne.n	8846 <strcpy+0x12>
    88de:	4770      	bx	lr
    88e0:	f811 2b01 	ldrb.w	r2, [r1], #1
    88e4:	f80c 2b01 	strb.w	r2, [ip], #1
    88e8:	2a00      	cmp	r2, #0
    88ea:	d1f9      	bne.n	88e0 <strcpy+0xac>
    88ec:	4770      	bx	lr
    88ee:	bf00      	nop
	...

00008900 <strlen>:
    8900:	f890 f000 	pld	[r0]
    8904:	e96d 4502 	strd	r4, r5, [sp, #-8]!
    8908:	f020 0107 	bic.w	r1, r0, #7
    890c:	f06f 0c00 	mvn.w	ip, #0
    8910:	f010 0407 	ands.w	r4, r0, #7
    8914:	f891 f020 	pld	[r1, #32]
    8918:	f040 8049 	bne.w	89ae <strlen+0xae>
    891c:	f04f 0400 	mov.w	r4, #0
    8920:	f06f 0007 	mvn.w	r0, #7
    8924:	e9d1 2300 	ldrd	r2, r3, [r1]
    8928:	f891 f040 	pld	[r1, #64]	; 0x40
    892c:	f100 0008 	add.w	r0, r0, #8
    8930:	fa82 f24c 	uadd8	r2, r2, ip
    8934:	faa4 f28c 	sel	r2, r4, ip
    8938:	fa83 f34c 	uadd8	r3, r3, ip
    893c:	faa2 f38c 	sel	r3, r2, ip
    8940:	bb4b      	cbnz	r3, 8996 <strlen+0x96>
    8942:	e9d1 2302 	ldrd	r2, r3, [r1, #8]
    8946:	fa82 f24c 	uadd8	r2, r2, ip
    894a:	f100 0008 	add.w	r0, r0, #8
    894e:	faa4 f28c 	sel	r2, r4, ip
    8952:	fa83 f34c 	uadd8	r3, r3, ip
    8956:	faa2 f38c 	sel	r3, r2, ip
    895a:	b9e3      	cbnz	r3, 8996 <strlen+0x96>
    895c:	e9d1 2304 	ldrd	r2, r3, [r1, #16]
    8960:	fa82 f24c 	uadd8	r2, r2, ip
    8964:	f100 0008 	add.w	r0, r0, #8
    8968:	faa4 f28c 	sel	r2, r4, ip
    896c:	fa83 f34c 	uadd8	r3, r3, ip
    8970:	faa2 f38c 	sel	r3, r2, ip
    8974:	b97b      	cbnz	r3, 8996 <strlen+0x96>
    8976:	e9d1 2306 	ldrd	r2, r3, [r1, #24]
    897a:	f101 0120 	add.w	r1, r1, #32
    897e:	fa82 f24c 	uadd8	r2, r2, ip
    8982:	f100 0008 	add.w	r0, r0, #8
    8986:	faa4 f28c 	sel	r2, r4, ip
    898a:	fa83 f34c 	uadd8	r3, r3, ip
    898e:	faa2 f38c 	sel	r3, r2, ip
    8992:	2b00      	cmp	r3, #0
    8994:	d0c6      	beq.n	8924 <strlen+0x24>
    8996:	2a00      	cmp	r2, #0
    8998:	bf04      	itt	eq
    899a:	3004      	addeq	r0, #4
    899c:	461a      	moveq	r2, r3
    899e:	ba12      	rev	r2, r2
    89a0:	fab2 f282 	clz	r2, r2
    89a4:	e8fd 4502 	ldrd	r4, r5, [sp], #8
    89a8:	eb00 00d2 	add.w	r0, r0, r2, lsr #3
    89ac:	4770      	bx	lr
    89ae:	e9d1 2300 	ldrd	r2, r3, [r1]
    89b2:	f004 0503 	and.w	r5, r4, #3
    89b6:	f1c4 0000 	rsb	r0, r4, #0
    89ba:	ea4f 05c5 	mov.w	r5, r5, lsl #3
    89be:	f014 0f04 	tst.w	r4, #4
    89c2:	f891 f040 	pld	[r1, #64]	; 0x40
    89c6:	fa0c f505 	lsl.w	r5, ip, r5
    89ca:	ea62 0205 	orn	r2, r2, r5
    89ce:	bf1c      	itt	ne
    89d0:	ea63 0305 	ornne	r3, r3, r5
    89d4:	4662      	movne	r2, ip
    89d6:	f04f 0400 	mov.w	r4, #0
    89da:	e7a9      	b.n	8930 <strlen+0x30>

000089dc <__register_exitproc>:
    89dc:	e92d 47f0 	stmdb	sp!, {r4, r5, r6, r7, r8, r9, sl, lr}
    89e0:	f8df a07c 	ldr.w	sl, [pc, #124]	; 8a60 <__register_exitproc+0x84>
    89e4:	4606      	mov	r6, r0
    89e6:	f8da 0000 	ldr.w	r0, [sl]
    89ea:	4698      	mov	r8, r3
    89ec:	460f      	mov	r7, r1
    89ee:	4691      	mov	r9, r2
    89f0:	f7ff ff1c 	bl	882c <__retarget_lock_acquire_recursive>
    89f4:	4b18      	ldr	r3, [pc, #96]	; (8a58 <__register_exitproc+0x7c>)
    89f6:	681c      	ldr	r4, [r3, #0]
    89f8:	b324      	cbz	r4, 8a44 <__register_exitproc+0x68>
    89fa:	6865      	ldr	r5, [r4, #4]
    89fc:	2d1f      	cmp	r5, #31
    89fe:	dc24      	bgt.n	8a4a <__register_exitproc+0x6e>
    8a00:	b95e      	cbnz	r6, 8a1a <__register_exitproc+0x3e>
    8a02:	1c6b      	adds	r3, r5, #1
    8a04:	3502      	adds	r5, #2
    8a06:	f8da 0000 	ldr.w	r0, [sl]
    8a0a:	6063      	str	r3, [r4, #4]
    8a0c:	f844 7025 	str.w	r7, [r4, r5, lsl #2]
    8a10:	f7ff ff0e 	bl	8830 <__retarget_lock_release_recursive>
    8a14:	2000      	movs	r0, #0
    8a16:	e8bd 87f0 	ldmia.w	sp!, {r4, r5, r6, r7, r8, r9, sl, pc}
    8a1a:	eb04 0185 	add.w	r1, r4, r5, lsl #2
    8a1e:	2301      	movs	r3, #1
    8a20:	f8c1 9088 	str.w	r9, [r1, #136]	; 0x88
    8a24:	f8d4 2188 	ldr.w	r2, [r4, #392]	; 0x188
    8a28:	40ab      	lsls	r3, r5
    8a2a:	431a      	orrs	r2, r3
    8a2c:	2e02      	cmp	r6, #2
    8a2e:	f8c4 2188 	str.w	r2, [r4, #392]	; 0x188
    8a32:	f8c1 8108 	str.w	r8, [r1, #264]	; 0x108
    8a36:	d1e4      	bne.n	8a02 <__register_exitproc+0x26>
    8a38:	f8d4 218c 	ldr.w	r2, [r4, #396]	; 0x18c
    8a3c:	431a      	orrs	r2, r3
    8a3e:	f8c4 218c 	str.w	r2, [r4, #396]	; 0x18c
    8a42:	e7de      	b.n	8a02 <__register_exitproc+0x26>
    8a44:	4c05      	ldr	r4, [pc, #20]	; (8a5c <__register_exitproc+0x80>)
    8a46:	601c      	str	r4, [r3, #0]
    8a48:	e7d7      	b.n	89fa <__register_exitproc+0x1e>
    8a4a:	f8da 0000 	ldr.w	r0, [sl]
    8a4e:	f7ff feef 	bl	8830 <__retarget_lock_release_recursive>
    8a52:	f04f 30ff 	mov.w	r0, #4294967295
    8a56:	e7de      	b.n	8a16 <__register_exitproc+0x3a>
    8a58:	20001e10 	.word	0x20001e10
    8a5c:	20001e14 	.word	0x20001e14
    8a60:	20000dac 	.word	0x20000dac

00008a64 <_malloc_trim_r>:
    8a64:	b5f8      	push	{r3, r4, r5, r6, r7, lr}
    8a66:	4f24      	ldr	r7, [pc, #144]	; (8af8 <_malloc_trim_r+0x94>)
    8a68:	460c      	mov	r4, r1
    8a6a:	4606      	mov	r6, r0
    8a6c:	f7ff fdc6 	bl	85fc <__malloc_lock>
    8a70:	68bb      	ldr	r3, [r7, #8]
    8a72:	685d      	ldr	r5, [r3, #4]
    8a74:	f5c4 617e 	rsb	r1, r4, #4064	; 0xfe0
    8a78:	310f      	adds	r1, #15
    8a7a:	f025 0503 	bic.w	r5, r5, #3
    8a7e:	194b      	adds	r3, r1, r5
    8a80:	f423 637f 	bic.w	r3, r3, #4080	; 0xff0
    8a84:	f023 030f 	bic.w	r3, r3, #15
    8a88:	f5a3 5480 	sub.w	r4, r3, #4096	; 0x1000
    8a8c:	f5b4 5f80 	cmp.w	r4, #4096	; 0x1000
    8a90:	db07      	blt.n	8aa2 <_malloc_trim_r+0x3e>
    8a92:	2100      	movs	r1, #0
    8a94:	4630      	mov	r0, r6
    8a96:	f7ff fe8d 	bl	87b4 <_sbrk_r>
    8a9a:	68bb      	ldr	r3, [r7, #8]
    8a9c:	442b      	add	r3, r5
    8a9e:	4298      	cmp	r0, r3
    8aa0:	d004      	beq.n	8aac <_malloc_trim_r+0x48>
    8aa2:	4630      	mov	r0, r6
    8aa4:	f7ff fdb0 	bl	8608 <__malloc_unlock>
    8aa8:	2000      	movs	r0, #0
    8aaa:	bdf8      	pop	{r3, r4, r5, r6, r7, pc}
    8aac:	4261      	negs	r1, r4
    8aae:	4630      	mov	r0, r6
    8ab0:	f7ff fe80 	bl	87b4 <_sbrk_r>
    8ab4:	3001      	adds	r0, #1
    8ab6:	d00d      	beq.n	8ad4 <_malloc_trim_r+0x70>
    8ab8:	4a10      	ldr	r2, [pc, #64]	; (8afc <_malloc_trim_r+0x98>)
    8aba:	68bb      	ldr	r3, [r7, #8]
    8abc:	1b2d      	subs	r5, r5, r4
    8abe:	f045 0501 	orr.w	r5, r5, #1
    8ac2:	605d      	str	r5, [r3, #4]
    8ac4:	6813      	ldr	r3, [r2, #0]
    8ac6:	4630      	mov	r0, r6
    8ac8:	1b1b      	subs	r3, r3, r4
    8aca:	6013      	str	r3, [r2, #0]
    8acc:	f7ff fd9c 	bl	8608 <__malloc_unlock>
    8ad0:	2001      	movs	r0, #1
    8ad2:	bdf8      	pop	{r3, r4, r5, r6, r7, pc}
    8ad4:	2100      	movs	r1, #0
    8ad6:	4630      	mov	r0, r6
    8ad8:	f7ff fe6c 	bl	87b4 <_sbrk_r>
    8adc:	68ba      	ldr	r2, [r7, #8]
    8ade:	1a83      	subs	r3, r0, r2
    8ae0:	2b0f      	cmp	r3, #15
    8ae2:	ddde      	ble.n	8aa2 <_malloc_trim_r+0x3e>
    8ae4:	f043 0301 	orr.w	r3, r3, #1
    8ae8:	6053      	str	r3, [r2, #4]
    8aea:	4b05      	ldr	r3, [pc, #20]	; (8b00 <_malloc_trim_r+0x9c>)
    8aec:	4903      	ldr	r1, [pc, #12]	; (8afc <_malloc_trim_r+0x98>)
    8aee:	681b      	ldr	r3, [r3, #0]
    8af0:	1ac0      	subs	r0, r0, r3
    8af2:	6008      	str	r0, [r1, #0]
    8af4:	e7d5      	b.n	8aa2 <_malloc_trim_r+0x3e>
    8af6:	bf00      	nop
    8af8:	20000db8 	.word	0x20000db8
    8afc:	20001fac 	.word	0x20001fac
    8b00:	200011c0 	.word	0x200011c0

00008b04 <_free_r>:
    8b04:	2900      	cmp	r1, #0
    8b06:	d061      	beq.n	8bcc <_free_r+0xc8>
    8b08:	b5f8      	push	{r3, r4, r5, r6, r7, lr}
    8b0a:	460c      	mov	r4, r1
    8b0c:	4606      	mov	r6, r0
    8b0e:	f7ff fd75 	bl	85fc <__malloc_lock>
    8b12:	f854 2c04 	ldr.w	r2, [r4, #-4]
    8b16:	4f7b      	ldr	r7, [pc, #492]	; (8d04 <_free_r+0x200>)
    8b18:	f1a4 0508 	sub.w	r5, r4, #8
    8b1c:	f022 0101 	bic.w	r1, r2, #1
    8b20:	eb05 0c01 	add.w	ip, r5, r1
    8b24:	68b8      	ldr	r0, [r7, #8]
    8b26:	f8dc 3004 	ldr.w	r3, [ip, #4]
    8b2a:	4560      	cmp	r0, ip
    8b2c:	f023 0303 	bic.w	r3, r3, #3
    8b30:	f000 808b 	beq.w	8c4a <_free_r+0x146>
    8b34:	07d2      	lsls	r2, r2, #31
    8b36:	f8cc 3004 	str.w	r3, [ip, #4]
    8b3a:	d432      	bmi.n	8ba2 <_free_r+0x9e>
    8b3c:	f854 2c08 	ldr.w	r2, [r4, #-8]
    8b40:	1aad      	subs	r5, r5, r2
    8b42:	4411      	add	r1, r2
    8b44:	68aa      	ldr	r2, [r5, #8]
    8b46:	f107 0008 	add.w	r0, r7, #8
    8b4a:	4282      	cmp	r2, r0
    8b4c:	d06a      	beq.n	8c24 <_free_r+0x120>
    8b4e:	eb0c 0403 	add.w	r4, ip, r3
    8b52:	f8d4 e004 	ldr.w	lr, [r4, #4]
    8b56:	68ec      	ldr	r4, [r5, #12]
    8b58:	60d4      	str	r4, [r2, #12]
    8b5a:	f01e 0f01 	tst.w	lr, #1
    8b5e:	60a2      	str	r2, [r4, #8]
    8b60:	f000 8097 	beq.w	8c92 <_free_r+0x18e>
    8b64:	f041 0301 	orr.w	r3, r1, #1
    8b68:	606b      	str	r3, [r5, #4]
    8b6a:	f8cc 1000 	str.w	r1, [ip]
    8b6e:	f5b1 7f00 	cmp.w	r1, #512	; 0x200
    8b72:	d235      	bcs.n	8be0 <_free_r+0xdc>
    8b74:	6878      	ldr	r0, [r7, #4]
    8b76:	08cb      	lsrs	r3, r1, #3
    8b78:	2201      	movs	r2, #1
    8b7a:	0949      	lsrs	r1, r1, #5
    8b7c:	3301      	adds	r3, #1
    8b7e:	408a      	lsls	r2, r1
    8b80:	4302      	orrs	r2, r0
    8b82:	f857 1033 	ldr.w	r1, [r7, r3, lsl #3]
    8b86:	607a      	str	r2, [r7, #4]
    8b88:	eb07 02c3 	add.w	r2, r7, r3, lsl #3
    8b8c:	3a08      	subs	r2, #8
    8b8e:	e9c5 1202 	strd	r1, r2, [r5, #8]
    8b92:	f847 5033 	str.w	r5, [r7, r3, lsl #3]
    8b96:	60cd      	str	r5, [r1, #12]
    8b98:	4630      	mov	r0, r6
    8b9a:	e8bd 40f8 	ldmia.w	sp!, {r3, r4, r5, r6, r7, lr}
    8b9e:	f7ff bd33 	b.w	8608 <__malloc_unlock>
    8ba2:	eb0c 0203 	add.w	r2, ip, r3
    8ba6:	6852      	ldr	r2, [r2, #4]
    8ba8:	07d0      	lsls	r0, r2, #31
    8baa:	d410      	bmi.n	8bce <_free_r+0xca>
    8bac:	4419      	add	r1, r3
    8bae:	f107 0008 	add.w	r0, r7, #8
    8bb2:	f8dc 3008 	ldr.w	r3, [ip, #8]
    8bb6:	4283      	cmp	r3, r0
    8bb8:	d073      	beq.n	8ca2 <_free_r+0x19e>
    8bba:	f8dc 200c 	ldr.w	r2, [ip, #12]
    8bbe:	60da      	str	r2, [r3, #12]
    8bc0:	6093      	str	r3, [r2, #8]
    8bc2:	f041 0301 	orr.w	r3, r1, #1
    8bc6:	606b      	str	r3, [r5, #4]
    8bc8:	5069      	str	r1, [r5, r1]
    8bca:	e7d0      	b.n	8b6e <_free_r+0x6a>
    8bcc:	4770      	bx	lr
    8bce:	f041 0301 	orr.w	r3, r1, #1
    8bd2:	f5b1 7f00 	cmp.w	r1, #512	; 0x200
    8bd6:	f844 3c04 	str.w	r3, [r4, #-4]
    8bda:	f8cc 1000 	str.w	r1, [ip]
    8bde:	d3c9      	bcc.n	8b74 <_free_r+0x70>
    8be0:	f5b1 6f20 	cmp.w	r1, #2560	; 0xa00
    8be4:	ea4f 2351 	mov.w	r3, r1, lsr #9
    8be8:	d248      	bcs.n	8c7c <_free_r+0x178>
    8bea:	098b      	lsrs	r3, r1, #6
    8bec:	f103 0039 	add.w	r0, r3, #57	; 0x39
    8bf0:	f103 0238 	add.w	r2, r3, #56	; 0x38
    8bf4:	00c3      	lsls	r3, r0, #3
    8bf6:	18f8      	adds	r0, r7, r3
    8bf8:	58fb      	ldr	r3, [r7, r3]
    8bfa:	3808      	subs	r0, #8
    8bfc:	4298      	cmp	r0, r3
    8bfe:	d059      	beq.n	8cb4 <_free_r+0x1b0>
    8c00:	685a      	ldr	r2, [r3, #4]
    8c02:	f022 0203 	bic.w	r2, r2, #3
    8c06:	428a      	cmp	r2, r1
    8c08:	d902      	bls.n	8c10 <_free_r+0x10c>
    8c0a:	689b      	ldr	r3, [r3, #8]
    8c0c:	4298      	cmp	r0, r3
    8c0e:	d1f7      	bne.n	8c00 <_free_r+0xfc>
    8c10:	68d8      	ldr	r0, [r3, #12]
    8c12:	e9c5 3002 	strd	r3, r0, [r5, #8]
    8c16:	6085      	str	r5, [r0, #8]
    8c18:	60dd      	str	r5, [r3, #12]
    8c1a:	4630      	mov	r0, r6
    8c1c:	e8bd 40f8 	ldmia.w	sp!, {r3, r4, r5, r6, r7, lr}
    8c20:	f7ff bcf2 	b.w	8608 <__malloc_unlock>
    8c24:	eb0c 0203 	add.w	r2, ip, r3
    8c28:	6852      	ldr	r2, [r2, #4]
    8c2a:	07d2      	lsls	r2, r2, #31
    8c2c:	d463      	bmi.n	8cf6 <_free_r+0x1f2>
    8c2e:	440b      	add	r3, r1
    8c30:	e9dc 1202 	ldrd	r1, r2, [ip, #8]
    8c34:	60ca      	str	r2, [r1, #12]
    8c36:	6091      	str	r1, [r2, #8]
    8c38:	f043 0201 	orr.w	r2, r3, #1
    8c3c:	606a      	str	r2, [r5, #4]
    8c3e:	4630      	mov	r0, r6
    8c40:	50eb      	str	r3, [r5, r3]
    8c42:	e8bd 40f8 	ldmia.w	sp!, {r3, r4, r5, r6, r7, lr}
    8c46:	f7ff bcdf 	b.w	8608 <__malloc_unlock>
    8c4a:	440b      	add	r3, r1
    8c4c:	07d1      	lsls	r1, r2, #31
    8c4e:	d407      	bmi.n	8c60 <_free_r+0x15c>
    8c50:	f854 2c08 	ldr.w	r2, [r4, #-8]
    8c54:	1aad      	subs	r5, r5, r2
    8c56:	4413      	add	r3, r2
    8c58:	e9d5 1202 	ldrd	r1, r2, [r5, #8]
    8c5c:	60ca      	str	r2, [r1, #12]
    8c5e:	6091      	str	r1, [r2, #8]
    8c60:	f043 0201 	orr.w	r2, r3, #1
    8c64:	606a      	str	r2, [r5, #4]
    8c66:	4a28      	ldr	r2, [pc, #160]	; (8d08 <_free_r+0x204>)
    8c68:	60bd      	str	r5, [r7, #8]
    8c6a:	6812      	ldr	r2, [r2, #0]
    8c6c:	429a      	cmp	r2, r3
    8c6e:	d893      	bhi.n	8b98 <_free_r+0x94>
    8c70:	4b26      	ldr	r3, [pc, #152]	; (8d0c <_free_r+0x208>)
    8c72:	4630      	mov	r0, r6
    8c74:	6819      	ldr	r1, [r3, #0]
    8c76:	f7ff fef5 	bl	8a64 <_malloc_trim_r>
    8c7a:	e78d      	b.n	8b98 <_free_r+0x94>
    8c7c:	2b14      	cmp	r3, #20
    8c7e:	d90a      	bls.n	8c96 <_free_r+0x192>
    8c80:	2b54      	cmp	r3, #84	; 0x54
    8c82:	d81f      	bhi.n	8cc4 <_free_r+0x1c0>
    8c84:	0b0b      	lsrs	r3, r1, #12
    8c86:	f103 006f 	add.w	r0, r3, #111	; 0x6f
    8c8a:	f103 026e 	add.w	r2, r3, #110	; 0x6e
    8c8e:	00c3      	lsls	r3, r0, #3
    8c90:	e7b1      	b.n	8bf6 <_free_r+0xf2>
    8c92:	4419      	add	r1, r3
    8c94:	e78d      	b.n	8bb2 <_free_r+0xae>
    8c96:	f103 005c 	add.w	r0, r3, #92	; 0x5c
    8c9a:	f103 025b 	add.w	r2, r3, #91	; 0x5b
    8c9e:	00c3      	lsls	r3, r0, #3
    8ca0:	e7a9      	b.n	8bf6 <_free_r+0xf2>
    8ca2:	f041 0301 	orr.w	r3, r1, #1
    8ca6:	e9c7 5504 	strd	r5, r5, [r7, #16]
    8caa:	e9c5 0002 	strd	r0, r0, [r5, #8]
    8cae:	606b      	str	r3, [r5, #4]
    8cb0:	5069      	str	r1, [r5, r1]
    8cb2:	e771      	b.n	8b98 <_free_r+0x94>
    8cb4:	6879      	ldr	r1, [r7, #4]
    8cb6:	1092      	asrs	r2, r2, #2
    8cb8:	2401      	movs	r4, #1
    8cba:	fa04 f202 	lsl.w	r2, r4, r2
    8cbe:	430a      	orrs	r2, r1
    8cc0:	607a      	str	r2, [r7, #4]
    8cc2:	e7a6      	b.n	8c12 <_free_r+0x10e>
    8cc4:	f5b3 7faa 	cmp.w	r3, #340	; 0x154
    8cc8:	d806      	bhi.n	8cd8 <_free_r+0x1d4>
    8cca:	0bcb      	lsrs	r3, r1, #15
    8ccc:	f103 0078 	add.w	r0, r3, #120	; 0x78
    8cd0:	f103 0277 	add.w	r2, r3, #119	; 0x77
    8cd4:	00c3      	lsls	r3, r0, #3
    8cd6:	e78e      	b.n	8bf6 <_free_r+0xf2>
    8cd8:	f240 5254 	movw	r2, #1364	; 0x554
    8cdc:	4293      	cmp	r3, r2
    8cde:	d806      	bhi.n	8cee <_free_r+0x1ea>
    8ce0:	0c8b      	lsrs	r3, r1, #18
    8ce2:	f103 007d 	add.w	r0, r3, #125	; 0x7d
    8ce6:	f103 027c 	add.w	r2, r3, #124	; 0x7c
    8cea:	00c3      	lsls	r3, r0, #3
    8cec:	e783      	b.n	8bf6 <_free_r+0xf2>
    8cee:	f44f 737e 	mov.w	r3, #1016	; 0x3f8
    8cf2:	227e      	movs	r2, #126	; 0x7e
    8cf4:	e77f      	b.n	8bf6 <_free_r+0xf2>
    8cf6:	f041 0301 	orr.w	r3, r1, #1
    8cfa:	606b      	str	r3, [r5, #4]
    8cfc:	f8cc 1000 	str.w	r1, [ip]
    8d00:	e74a      	b.n	8b98 <_free_r+0x94>
    8d02:	bf00      	nop
    8d04:	20000db8 	.word	0x20000db8
    8d08:	200011c4 	.word	0x200011c4
    8d0c:	20001fdc 	.word	0x20001fdc

00008d10 <___reboot_Teensyduino__veneer>:
    8d10:	f85f f000 	ldr.w	pc, [pc]	; 8d14 <___reboot_Teensyduino__veneer+0x4>
    8d14:	60001a05 	.word	0x60001a05

00008d18 <___init_veneer>:
    8d18:	f85f f000 	ldr.w	pc, [pc]	; 8d1c <___init_veneer+0x4>
    8d1c:	60001aad 	.word	0x60001aad

Disassembly of section .fini:

00008d20 <_fini>:
    8d20:	b5f8      	push	{r3, r4, r5, r6, r7, lr}
    8d22:	bf00      	nop
